	.text
	.syntax unified
	.eabi_attribute	67, "2.09"	@ Tag_conformance
	.cpu	cortex-m23
	.eabi_attribute	6, 16	@ Tag_CPU_arch
	.eabi_attribute	7, 77	@ Tag_CPU_arch_profile
	.eabi_attribute	8, 0	@ Tag_ARM_ISA_use
	.eabi_attribute	9, 3	@ Tag_THUMB_ISA_use
	.eabi_attribute	34, 0	@ Tag_CPU_unaligned_access
	.eabi_attribute	17, 1	@ Tag_ABI_PCS_GOT_use
	.eabi_attribute	20, 2	@ Tag_ABI_FP_denormal
	.eabi_attribute	21, 0	@ Tag_ABI_FP_exceptions
	.eabi_attribute	23, 1	@ Tag_ABI_FP_number_model
	.eabi_attribute	24, 1	@ Tag_ABI_align_needed
	.eabi_attribute	25, 1	@ Tag_ABI_align_preserved
	.eabi_attribute	38, 1	@ Tag_ABI_FP_16bit_format
	.eabi_attribute	18, 2	@ Tag_ABI_PCS_wchar_t
	.eabi_attribute	26, 1	@ Tag_ABI_enum_size
	.eabi_attribute	14, 0	@ Tag_ABI_PCS_R9_use
	.file	"gd32e23x_timer.c"
	.file	1 "C:\\Users\\13728\\Desktop\\general igniter\\Project" "../Basic/Include\\gd32e23x_rcu.h"
	.file	2 "C:\\Users\\13728\\Desktop\\general igniter\\Project" "../CMSIS/Include\\gd32e23x.h"
	.file	3 "D:\\ProgramFile\\Keil5\\ARM\\ARMCLANG\\Bin\\..\\include" "stdint.h"
	.section	.text.timer_deinit,"ax",%progbits
	.hidden	timer_deinit            @ -- Begin function timer_deinit
	.globl	timer_deinit
	.p2align	2
	.type	timer_deinit,%function
	.code	16                      @ @timer_deinit
	.thumb_func
timer_deinit:
.Lfunc_begin0:
	.file	4 "C:\\Users\\13728\\Desktop\\general igniter\\Project" "../Basic/Source/gd32e23x_timer.c"
	.loc	4 51 0                  @ ../Basic/Source/gd32e23x_timer.c:51:0
	.fnstart
	.cfi_sections .debug_frame
	.cfi_startproc
@ %bb.0:
	@DEBUG_VALUE: timer_deinit:timer_periph <- $r0
	@DEBUG_VALUE: timer_deinit:timer_periph <- $r0
	.save	{r4, lr}
	push	{r4, lr}
	.cfi_def_cfa_offset 8
	.cfi_offset lr, -4
	.cfi_offset r4, -8
	ldr	r4, __arm_cp.0_0
	ldr	r1, __arm_cp.0_1
.Ltmp0:
	.loc	4 52 5 prologue_end     @ ../Basic/Source/gd32e23x_timer.c:52:5
	cmp	r0, r1
	beq	.LBB0_8
.Ltmp1:
@ %bb.1:
	@DEBUG_VALUE: timer_deinit:timer_periph <- $r0
	.loc	4 0 5 is_stmt 0         @ ../Basic/Source/gd32e23x_timer.c:0:5
	ldr	r1, __arm_cp.0_2
	.loc	4 52 5                  @ ../Basic/Source/gd32e23x_timer.c:52:5
	cmp	r0, r1
	beq	.LBB0_9
.Ltmp2:
@ %bb.2:
	@DEBUG_VALUE: timer_deinit:timer_periph <- $r0
	.loc	4 0 5                   @ ../Basic/Source/gd32e23x_timer.c:0:5
	ldr	r1, __arm_cp.0_3
	.loc	4 52 5                  @ ../Basic/Source/gd32e23x_timer.c:52:5
	cmp	r0, r1
	beq	.LBB0_10
.Ltmp3:
@ %bb.3:
	@DEBUG_VALUE: timer_deinit:timer_periph <- $r0
	.loc	4 0 5                   @ ../Basic/Source/gd32e23x_timer.c:0:5
	ldr	r1, __arm_cp.0_4
	.loc	4 52 5                  @ ../Basic/Source/gd32e23x_timer.c:52:5
	cmp	r0, r1
	beq	.LBB0_13
.Ltmp4:
@ %bb.4:
	@DEBUG_VALUE: timer_deinit:timer_periph <- $r0
	.loc	4 0 5                   @ ../Basic/Source/gd32e23x_timer.c:0:5
	ldr	r1, __arm_cp.0_5
	.loc	4 52 5                  @ ../Basic/Source/gd32e23x_timer.c:52:5
	cmp	r0, r1
	beq	.LBB0_11
.Ltmp5:
@ %bb.5:
	@DEBUG_VALUE: timer_deinit:timer_periph <- $r0
	.loc	4 0 5                   @ ../Basic/Source/gd32e23x_timer.c:0:5
	ldr	r1, __arm_cp.0_6
	.loc	4 52 5                  @ ../Basic/Source/gd32e23x_timer.c:52:5
	cmp	r0, r1
	beq	.LBB0_12
.Ltmp6:
@ %bb.6:
	@DEBUG_VALUE: timer_deinit:timer_periph <- $r0
	.loc	4 0 5                   @ ../Basic/Source/gd32e23x_timer.c:0:5
	ldr	r1, __arm_cp.0_7
	.loc	4 52 5                  @ ../Basic/Source/gd32e23x_timer.c:52:5
	cmp	r0, r1
	bne	.LBB0_14
.Ltmp7:
@ %bb.7:
	@DEBUG_VALUE: timer_deinit:timer_periph <- $r0
	.loc	4 0 5                   @ ../Basic/Source/gd32e23x_timer.c:0:5
	adds	r4, #246
	b	.LBB0_13
.Ltmp8:
.LBB0_8:
	@DEBUG_VALUE: timer_deinit:timer_periph <- $r0
	adds	r4, r4, #7
	b	.LBB0_13
.Ltmp9:
.LBB0_9:
	@DEBUG_VALUE: timer_deinit:timer_periph <- $r0
	adds	r4, #249
	b	.LBB0_13
.Ltmp10:
.LBB0_10:
	@DEBUG_VALUE: timer_deinit:timer_periph <- $r0
	adds	r4, #253
	b	.LBB0_13
.Ltmp11:
.LBB0_11:
	@DEBUG_VALUE: timer_deinit:timer_periph <- $r0
	adds	r4, r4, #5
	b	.LBB0_13
.Ltmp12:
.LBB0_12:
	@DEBUG_VALUE: timer_deinit:timer_periph <- $r0
	adds	r4, r4, #6
.Ltmp13:
.LBB0_13:
	@DEBUG_VALUE: timer_deinit:timer_periph <- $r0
	mov	r0, r4
.Ltmp14:
	bl	rcu_periph_reset_enable
	mov	r0, r4
	pop	{r4}
	pop	{r1}
	mov	lr, r1
	b	rcu_periph_reset_disable
.Ltmp15:
.LBB0_14:
	@DEBUG_VALUE: timer_deinit:timer_periph <- $r0
	.loc	4 91 1 is_stmt 1        @ ../Basic/Source/gd32e23x_timer.c:91:1
	pop	{r4, pc}
.Ltmp16:
	.p2align	2
@ %bb.15:
	.loc	4 0 1 is_stmt 0         @ ../Basic/Source/gd32e23x_timer.c:0:1
__arm_cp.0_0:
	.long	779                     @ 0x30b
.Lcpi_end0:
	.size	__arm_cp.0_0, .Lcpi_end0-__arm_cp.0_0
__arm_cp.0_1:
	.long	1073825792              @ 0x40014800
.Lcpi_end1:
	.size	__arm_cp.0_1, .Lcpi_end1-__arm_cp.0_1
__arm_cp.0_2:
	.long	1073745920              @ 0x40001000
.Lcpi_end2:
	.size	__arm_cp.0_2, .Lcpi_end2-__arm_cp.0_2
__arm_cp.0_3:
	.long	1073750016              @ 0x40002000
.Lcpi_end3:
	.size	__arm_cp.0_3, .Lcpi_end3-__arm_cp.0_3
__arm_cp.0_4:
	.long	1073818624              @ 0x40012c00
.Lcpi_end4:
	.size	__arm_cp.0_4, .Lcpi_end4-__arm_cp.0_4
__arm_cp.0_5:
	.long	1073823744              @ 0x40014000
.Lcpi_end5:
	.size	__arm_cp.0_5, .Lcpi_end5-__arm_cp.0_5
__arm_cp.0_6:
	.long	1073824768              @ 0x40014400
.Lcpi_end6:
	.size	__arm_cp.0_6, .Lcpi_end6-__arm_cp.0_6
__arm_cp.0_7:
	.long	1073742848              @ 0x40000400
.Lcpi_end7:
	.size	__arm_cp.0_7, .Lcpi_end7-__arm_cp.0_7
.Lfunc_end0:
	.size	timer_deinit, .Lfunc_end0-timer_deinit
	.cfi_endproc
	.cantunwind
	.fnend
                                        @ -- End function
	.section	.text.timer_struct_para_init,"ax",%progbits
	.hidden	timer_struct_para_init  @ -- Begin function timer_struct_para_init
	.globl	timer_struct_para_init
	.p2align	2
	.type	timer_struct_para_init,%function
	.code	16                      @ @timer_struct_para_init
	.thumb_func
timer_struct_para_init:
.Lfunc_begin1:
	.loc	4 100 0 is_stmt 1       @ ../Basic/Source/gd32e23x_timer.c:100:0
	.fnstart
	.cfi_startproc
@ %bb.0:
	@DEBUG_VALUE: timer_struct_para_init:initpara <- $r0
	@DEBUG_VALUE: timer_struct_para_init:initpara <- $r0
	ldr	r1, __arm_cp.1_0
	movs	r2, #0
.Ltmp17:
	.loc	4 107 33 prologue_end   @ ../Basic/Source/gd32e23x_timer.c:107:33
	strb	r2, [r0, #12]
	.loc	4 102 33                @ ../Basic/Source/gd32e23x_timer.c:102:33
	str	r2, [r0]
	.loc	4 104 33                @ ../Basic/Source/gd32e23x_timer.c:104:33
	str	r2, [r0, #4]
	.loc	4 105 33                @ ../Basic/Source/gd32e23x_timer.c:105:33
	str	r1, [r0, #8]
	.loc	4 108 1                 @ ../Basic/Source/gd32e23x_timer.c:108:1
	bx	lr
.Ltmp18:
	.p2align	2
@ %bb.1:
	.loc	4 0 1 is_stmt 0         @ ../Basic/Source/gd32e23x_timer.c:0:1
__arm_cp.1_0:
	.long	65535                   @ 0xffff
.Lcpi_end8:
	.size	__arm_cp.1_0, .Lcpi_end8-__arm_cp.1_0
.Lfunc_end1:
	.size	timer_struct_para_init, .Lfunc_end1-timer_struct_para_init
	.cfi_endproc
	.cantunwind
	.fnend
                                        @ -- End function
	.section	.text.timer_init,"ax",%progbits
	.hidden	timer_init              @ -- Begin function timer_init
	.globl	timer_init
	.p2align	2
	.type	timer_init,%function
	.code	16                      @ @timer_init
	.thumb_func
timer_init:
.Lfunc_begin2:
	.loc	4 124 0 is_stmt 1       @ ../Basic/Source/gd32e23x_timer.c:124:0
	.fnstart
	.cfi_startproc
@ %bb.0:
	@DEBUG_VALUE: timer_init:timer_periph <- $r0
	@DEBUG_VALUE: timer_init:timer_periph <- $r0
	@DEBUG_VALUE: timer_init:initpara <- $r1
	@DEBUG_VALUE: timer_init:initpara <- $r1
	.save	{r4, lr}
	push	{r4, lr}
	.cfi_def_cfa_offset 8
	.cfi_offset lr, -4
	.cfi_offset r4, -8
.Ltmp19:
	.loc	4 126 51 prologue_end   @ ../Basic/Source/gd32e23x_timer.c:126:51
	ldrh	r2, [r1]
	.loc	4 126 29 is_stmt 0      @ ../Basic/Source/gd32e23x_timer.c:126:29
	str	r2, [r0, #40]
	ldr	r2, __arm_cp.2_0
.Ltmp20:
	.loc	4 129 33 is_stmt 1      @ ../Basic/Source/gd32e23x_timer.c:129:33
	cmp	r0, r2
	beq	.LBB2_2
.Ltmp21:
@ %bb.1:
	@DEBUG_VALUE: timer_init:initpara <- $r1
	@DEBUG_VALUE: timer_init:timer_periph <- $r0
	.loc	4 0 33 is_stmt 0        @ ../Basic/Source/gd32e23x_timer.c:0:33
	ldr	r3, __arm_cp.2_1
	.loc	4 129 33                @ ../Basic/Source/gd32e23x_timer.c:129:33
	cmp	r0, r3
	bne	.LBB2_3
.Ltmp22:
.LBB2_2:
	@DEBUG_VALUE: timer_init:initpara <- $r1
	@DEBUG_VALUE: timer_init:timer_periph <- $r0
	.loc	4 130 34 is_stmt 1      @ ../Basic/Source/gd32e23x_timer.c:130:34
	ldr	r3, [r0]
	movs	r4, #112
	bics	r3, r4
	str	r3, [r0]
	.loc	4 131 57                @ ../Basic/Source/gd32e23x_timer.c:131:57
	ldrh	r3, [r1, #2]
	.loc	4 131 34 is_stmt 0      @ ../Basic/Source/gd32e23x_timer.c:131:34
	ldr	r4, [r0]
	orrs	r4, r3
	str	r4, [r0]
	.loc	4 132 57 is_stmt 1      @ ../Basic/Source/gd32e23x_timer.c:132:57
	ldrh	r3, [r1, #4]
	.loc	4 132 34 is_stmt 0      @ ../Basic/Source/gd32e23x_timer.c:132:34
	ldr	r4, [r0]
	orrs	r4, r3
	str	r4, [r0]
.Ltmp23:
.LBB2_3:
	@DEBUG_VALUE: timer_init:initpara <- $r1
	@DEBUG_VALUE: timer_init:timer_periph <- $r0
	.loc	4 136 51 is_stmt 1      @ ../Basic/Source/gd32e23x_timer.c:136:51
	ldr	r3, [r1, #8]
	.loc	4 136 29 is_stmt 0      @ ../Basic/Source/gd32e23x_timer.c:136:29
	str	r3, [r0, #44]
	ldr	r3, __arm_cp.2_1
.Ltmp24:
	.loc	4 138 33 is_stmt 1      @ ../Basic/Source/gd32e23x_timer.c:138:33
	cmp	r0, r3
	beq	.LBB2_9
.Ltmp25:
@ %bb.4:
	@DEBUG_VALUE: timer_init:initpara <- $r1
	@DEBUG_VALUE: timer_init:timer_periph <- $r0
	.loc	4 0 33 is_stmt 0        @ ../Basic/Source/gd32e23x_timer.c:0:33
	ldr	r3, __arm_cp.2_2
	.loc	4 138 33                @ ../Basic/Source/gd32e23x_timer.c:138:33
	cmp	r0, r3
	beq	.LBB2_9
.Ltmp26:
@ %bb.5:
	@DEBUG_VALUE: timer_init:initpara <- $r1
	@DEBUG_VALUE: timer_init:timer_periph <- $r0
	cmp	r0, r2
	beq	.LBB2_9
.Ltmp27:
@ %bb.6:
	@DEBUG_VALUE: timer_init:initpara <- $r1
	@DEBUG_VALUE: timer_init:timer_periph <- $r0
	.loc	4 0 33                  @ ../Basic/Source/gd32e23x_timer.c:0:33
	ldr	r2, __arm_cp.2_3
	.loc	4 138 33                @ ../Basic/Source/gd32e23x_timer.c:138:33
	cmp	r0, r2
	beq	.LBB2_9
.Ltmp28:
@ %bb.7:
	@DEBUG_VALUE: timer_init:initpara <- $r1
	@DEBUG_VALUE: timer_init:timer_periph <- $r0
	.loc	4 0 33                  @ ../Basic/Source/gd32e23x_timer.c:0:33
	ldr	r2, __arm_cp.2_4
	.loc	4 138 33                @ ../Basic/Source/gd32e23x_timer.c:138:33
	cmp	r0, r2
	beq	.LBB2_9
.Ltmp29:
@ %bb.8:
	@DEBUG_VALUE: timer_init:initpara <- $r1
	@DEBUG_VALUE: timer_init:timer_periph <- $r0
	.loc	4 0 33                  @ ../Basic/Source/gd32e23x_timer.c:0:33
	ldr	r2, __arm_cp.2_5
	.loc	4 138 33                @ ../Basic/Source/gd32e23x_timer.c:138:33
	cmp	r0, r2
	bne	.LBB2_12
.Ltmp30:
.LBB2_9:
	@DEBUG_VALUE: timer_init:initpara <- $r1
	@DEBUG_VALUE: timer_init:timer_periph <- $r0
	.loc	4 141 34 is_stmt 1      @ ../Basic/Source/gd32e23x_timer.c:141:34
	ldr	r2, [r0]
	movw	r3, #768
	bics	r2, r3
	str	r2, [r0]
	.loc	4 142 57                @ ../Basic/Source/gd32e23x_timer.c:142:57
	ldrh	r2, [r1, #6]
	.loc	4 142 34 is_stmt 0      @ ../Basic/Source/gd32e23x_timer.c:142:34
	ldr	r3, [r0]
	orrs	r3, r2
	str	r3, [r0]
	ldr	r2, __arm_cp.2_6
.Ltmp31:
	.loc	4 145 33 is_stmt 1      @ ../Basic/Source/gd32e23x_timer.c:145:33
	adds	r2, r0, r2
	movs	r3, #10
	rors	r2, r3
	cmp	r2, #7
	bhi	.LBB2_12
.Ltmp32:
@ %bb.10:
	@DEBUG_VALUE: timer_init:initpara <- $r1
	@DEBUG_VALUE: timer_init:timer_periph <- $r0
	.loc	4 0 33 is_stmt 0        @ ../Basic/Source/gd32e23x_timer.c:0:33
	movs	r3, #1
	lsls	r3, r2
	movs	r2, #225
	tst	r3, r2
	beq	.LBB2_12
.Ltmp33:
@ %bb.11:
	@DEBUG_VALUE: timer_init:initpara <- $r1
	@DEBUG_VALUE: timer_init:timer_periph <- $r0
	.loc	4 147 56 is_stmt 1      @ ../Basic/Source/gd32e23x_timer.c:147:56
	ldrb	r1, [r1, #12]
.Ltmp34:
	.loc	4 147 34 is_stmt 0      @ ../Basic/Source/gd32e23x_timer.c:147:34
	str	r1, [r0, #48]
.Ltmp35:
.LBB2_12:
	@DEBUG_VALUE: timer_init:timer_periph <- $r0
	.loc	4 151 31 is_stmt 1      @ ../Basic/Source/gd32e23x_timer.c:151:31
	ldr	r1, [r0, #20]
	movs	r2, #1
	orrs	r2, r1
	str	r2, [r0, #20]
	.loc	4 152 1                 @ ../Basic/Source/gd32e23x_timer.c:152:1
	pop	{r4, pc}
.Ltmp36:
	.p2align	2
@ %bb.13:
	.loc	4 0 1 is_stmt 0         @ ../Basic/Source/gd32e23x_timer.c:0:1
__arm_cp.2_0:
	.long	1073818624              @ 0x40012c00
.Lcpi_end9:
	.size	__arm_cp.2_0, .Lcpi_end9-__arm_cp.2_0
__arm_cp.2_1:
	.long	1073742848              @ 0x40000400
.Lcpi_end10:
	.size	__arm_cp.2_1, .Lcpi_end10-__arm_cp.2_1
__arm_cp.2_2:
	.long	1073750016              @ 0x40002000
.Lcpi_end11:
	.size	__arm_cp.2_2, .Lcpi_end11-__arm_cp.2_2
__arm_cp.2_3:
	.long	1073823744              @ 0x40014000
.Lcpi_end12:
	.size	__arm_cp.2_3, .Lcpi_end12-__arm_cp.2_3
__arm_cp.2_4:
	.long	1073825792              @ 0x40014800
.Lcpi_end13:
	.size	__arm_cp.2_4, .Lcpi_end13-__arm_cp.2_4
__arm_cp.2_5:
	.long	1073824768              @ 0x40014400
.Lcpi_end14:
	.size	__arm_cp.2_5, .Lcpi_end14-__arm_cp.2_5
__arm_cp.2_6:
	.long	3221148672              @ 0xbffed400
.Lcpi_end15:
	.size	__arm_cp.2_6, .Lcpi_end15-__arm_cp.2_6
.Lfunc_end2:
	.size	timer_init, .Lfunc_end2-timer_init
	.cfi_endproc
	.cantunwind
	.fnend
                                        @ -- End function
	.section	.text.timer_enable,"ax",%progbits
	.hidden	timer_enable            @ -- Begin function timer_enable
	.globl	timer_enable
	.p2align	1
	.type	timer_enable,%function
	.code	16                      @ @timer_enable
	.thumb_func
timer_enable:
.Lfunc_begin3:
	.loc	4 161 0 is_stmt 1       @ ../Basic/Source/gd32e23x_timer.c:161:0
	.fnstart
	.cfi_startproc
@ %bb.0:
	@DEBUG_VALUE: timer_enable:timer_periph <- $r0
	@DEBUG_VALUE: timer_enable:timer_periph <- $r0
	.loc	4 162 30 prologue_end   @ ../Basic/Source/gd32e23x_timer.c:162:30
	ldr	r1, [r0]
	movs	r2, #1
	orrs	r2, r1
	str	r2, [r0]
	.loc	4 163 1                 @ ../Basic/Source/gd32e23x_timer.c:163:1
	bx	lr
.Ltmp37:
.Lfunc_end3:
	.size	timer_enable, .Lfunc_end3-timer_enable
	.cfi_endproc
	.cantunwind
	.fnend
                                        @ -- End function
	.section	.text.timer_disable,"ax",%progbits
	.hidden	timer_disable           @ -- Begin function timer_disable
	.globl	timer_disable
	.p2align	1
	.type	timer_disable,%function
	.code	16                      @ @timer_disable
	.thumb_func
timer_disable:
.Lfunc_begin4:
	.loc	4 172 0                 @ ../Basic/Source/gd32e23x_timer.c:172:0
	.fnstart
	.cfi_startproc
@ %bb.0:
	@DEBUG_VALUE: timer_disable:timer_periph <- $r0
	@DEBUG_VALUE: timer_disable:timer_periph <- $r0
	.loc	4 173 30 prologue_end   @ ../Basic/Source/gd32e23x_timer.c:173:30
	ldr	r1, [r0]
	movs	r2, #1
	bics	r1, r2
	str	r1, [r0]
	.loc	4 174 1                 @ ../Basic/Source/gd32e23x_timer.c:174:1
	bx	lr
.Ltmp38:
.Lfunc_end4:
	.size	timer_disable, .Lfunc_end4-timer_disable
	.cfi_endproc
	.cantunwind
	.fnend
                                        @ -- End function
	.section	.text.timer_auto_reload_shadow_enable,"ax",%progbits
	.hidden	timer_auto_reload_shadow_enable @ -- Begin function timer_auto_reload_shadow_enable
	.globl	timer_auto_reload_shadow_enable
	.p2align	1
	.type	timer_auto_reload_shadow_enable,%function
	.code	16                      @ @timer_auto_reload_shadow_enable
	.thumb_func
timer_auto_reload_shadow_enable:
.Lfunc_begin5:
	.loc	4 183 0                 @ ../Basic/Source/gd32e23x_timer.c:183:0
	.fnstart
	.cfi_startproc
@ %bb.0:
	@DEBUG_VALUE: timer_auto_reload_shadow_enable:timer_periph <- $r0
	@DEBUG_VALUE: timer_auto_reload_shadow_enable:timer_periph <- $r0
	.loc	4 184 30 prologue_end   @ ../Basic/Source/gd32e23x_timer.c:184:30
	ldr	r1, [r0]
	movs	r2, #128
	orrs	r2, r1
	str	r2, [r0]
	.loc	4 185 1                 @ ../Basic/Source/gd32e23x_timer.c:185:1
	bx	lr
.Ltmp39:
.Lfunc_end5:
	.size	timer_auto_reload_shadow_enable, .Lfunc_end5-timer_auto_reload_shadow_enable
	.cfi_endproc
	.cantunwind
	.fnend
                                        @ -- End function
	.section	.text.timer_auto_reload_shadow_disable,"ax",%progbits
	.hidden	timer_auto_reload_shadow_disable @ -- Begin function timer_auto_reload_shadow_disable
	.globl	timer_auto_reload_shadow_disable
	.p2align	1
	.type	timer_auto_reload_shadow_disable,%function
	.code	16                      @ @timer_auto_reload_shadow_disable
	.thumb_func
timer_auto_reload_shadow_disable:
.Lfunc_begin6:
	.loc	4 194 0                 @ ../Basic/Source/gd32e23x_timer.c:194:0
	.fnstart
	.cfi_startproc
@ %bb.0:
	@DEBUG_VALUE: timer_auto_reload_shadow_disable:timer_periph <- $r0
	@DEBUG_VALUE: timer_auto_reload_shadow_disable:timer_periph <- $r0
	.loc	4 195 30 prologue_end   @ ../Basic/Source/gd32e23x_timer.c:195:30
	ldr	r1, [r0]
	movs	r2, #128
	bics	r1, r2
	str	r1, [r0]
	.loc	4 196 1                 @ ../Basic/Source/gd32e23x_timer.c:196:1
	bx	lr
.Ltmp40:
.Lfunc_end6:
	.size	timer_auto_reload_shadow_disable, .Lfunc_end6-timer_auto_reload_shadow_disable
	.cfi_endproc
	.cantunwind
	.fnend
                                        @ -- End function
	.section	.text.timer_update_event_enable,"ax",%progbits
	.hidden	timer_update_event_enable @ -- Begin function timer_update_event_enable
	.globl	timer_update_event_enable
	.p2align	1
	.type	timer_update_event_enable,%function
	.code	16                      @ @timer_update_event_enable
	.thumb_func
timer_update_event_enable:
.Lfunc_begin7:
	.loc	4 205 0                 @ ../Basic/Source/gd32e23x_timer.c:205:0
	.fnstart
	.cfi_startproc
@ %bb.0:
	@DEBUG_VALUE: timer_update_event_enable:timer_periph <- $r0
	@DEBUG_VALUE: timer_update_event_enable:timer_periph <- $r0
	.loc	4 206 30 prologue_end   @ ../Basic/Source/gd32e23x_timer.c:206:30
	ldr	r1, [r0]
	movs	r2, #2
	bics	r1, r2
	str	r1, [r0]
	.loc	4 207 1                 @ ../Basic/Source/gd32e23x_timer.c:207:1
	bx	lr
.Ltmp41:
.Lfunc_end7:
	.size	timer_update_event_enable, .Lfunc_end7-timer_update_event_enable
	.cfi_endproc
	.cantunwind
	.fnend
                                        @ -- End function
	.section	.text.timer_update_event_disable,"ax",%progbits
	.hidden	timer_update_event_disable @ -- Begin function timer_update_event_disable
	.globl	timer_update_event_disable
	.p2align	1
	.type	timer_update_event_disable,%function
	.code	16                      @ @timer_update_event_disable
	.thumb_func
timer_update_event_disable:
.Lfunc_begin8:
	.loc	4 216 0                 @ ../Basic/Source/gd32e23x_timer.c:216:0
	.fnstart
	.cfi_startproc
@ %bb.0:
	@DEBUG_VALUE: timer_update_event_disable:timer_periph <- $r0
	@DEBUG_VALUE: timer_update_event_disable:timer_periph <- $r0
	.loc	4 217 30 prologue_end   @ ../Basic/Source/gd32e23x_timer.c:217:30
	ldr	r1, [r0]
	movs	r2, #2
	orrs	r2, r1
	str	r2, [r0]
	.loc	4 218 1                 @ ../Basic/Source/gd32e23x_timer.c:218:1
	bx	lr
.Ltmp42:
.Lfunc_end8:
	.size	timer_update_event_disable, .Lfunc_end8-timer_update_event_disable
	.cfi_endproc
	.cantunwind
	.fnend
                                        @ -- End function
	.section	.text.timer_counter_alignment,"ax",%progbits
	.hidden	timer_counter_alignment @ -- Begin function timer_counter_alignment
	.globl	timer_counter_alignment
	.p2align	1
	.type	timer_counter_alignment,%function
	.code	16                      @ @timer_counter_alignment
	.thumb_func
timer_counter_alignment:
.Lfunc_begin9:
	.loc	4 233 0                 @ ../Basic/Source/gd32e23x_timer.c:233:0
	.fnstart
	.cfi_startproc
@ %bb.0:
	@DEBUG_VALUE: timer_counter_alignment:timer_periph <- $r0
	@DEBUG_VALUE: timer_counter_alignment:timer_periph <- $r0
	@DEBUG_VALUE: timer_counter_alignment:aligned <- $r1
	@DEBUG_VALUE: timer_counter_alignment:aligned <- $r1
	.loc	4 234 30 prologue_end   @ ../Basic/Source/gd32e23x_timer.c:234:30
	ldr	r2, [r0]
	movs	r3, #96
	bics	r2, r3
	str	r2, [r0]
	.loc	4 235 30                @ ../Basic/Source/gd32e23x_timer.c:235:30
	ldr	r2, [r0]
	orrs	r2, r1
	str	r2, [r0]
	.loc	4 236 1                 @ ../Basic/Source/gd32e23x_timer.c:236:1
	bx	lr
.Ltmp43:
.Lfunc_end9:
	.size	timer_counter_alignment, .Lfunc_end9-timer_counter_alignment
	.cfi_endproc
	.cantunwind
	.fnend
                                        @ -- End function
	.section	.text.timer_counter_up_direction,"ax",%progbits
	.hidden	timer_counter_up_direction @ -- Begin function timer_counter_up_direction
	.globl	timer_counter_up_direction
	.p2align	1
	.type	timer_counter_up_direction,%function
	.code	16                      @ @timer_counter_up_direction
	.thumb_func
timer_counter_up_direction:
.Lfunc_begin10:
	.loc	4 245 0                 @ ../Basic/Source/gd32e23x_timer.c:245:0
	.fnstart
	.cfi_startproc
@ %bb.0:
	@DEBUG_VALUE: timer_counter_up_direction:timer_periph <- $r0
	@DEBUG_VALUE: timer_counter_up_direction:timer_periph <- $r0
	.loc	4 246 30 prologue_end   @ ../Basic/Source/gd32e23x_timer.c:246:30
	ldr	r1, [r0]
	movs	r2, #16
	bics	r1, r2
	str	r1, [r0]
	.loc	4 247 1                 @ ../Basic/Source/gd32e23x_timer.c:247:1
	bx	lr
.Ltmp44:
.Lfunc_end10:
	.size	timer_counter_up_direction, .Lfunc_end10-timer_counter_up_direction
	.cfi_endproc
	.cantunwind
	.fnend
                                        @ -- End function
	.section	.text.timer_counter_down_direction,"ax",%progbits
	.hidden	timer_counter_down_direction @ -- Begin function timer_counter_down_direction
	.globl	timer_counter_down_direction
	.p2align	1
	.type	timer_counter_down_direction,%function
	.code	16                      @ @timer_counter_down_direction
	.thumb_func
timer_counter_down_direction:
.Lfunc_begin11:
	.loc	4 256 0                 @ ../Basic/Source/gd32e23x_timer.c:256:0
	.fnstart
	.cfi_startproc
@ %bb.0:
	@DEBUG_VALUE: timer_counter_down_direction:timer_periph <- $r0
	@DEBUG_VALUE: timer_counter_down_direction:timer_periph <- $r0
	.loc	4 257 30 prologue_end   @ ../Basic/Source/gd32e23x_timer.c:257:30
	ldr	r1, [r0]
	movs	r2, #16
	orrs	r2, r1
	str	r2, [r0]
	.loc	4 258 1                 @ ../Basic/Source/gd32e23x_timer.c:258:1
	bx	lr
.Ltmp45:
.Lfunc_end11:
	.size	timer_counter_down_direction, .Lfunc_end11-timer_counter_down_direction
	.cfi_endproc
	.cantunwind
	.fnend
                                        @ -- End function
	.section	.text.timer_prescaler_config,"ax",%progbits
	.hidden	timer_prescaler_config  @ -- Begin function timer_prescaler_config
	.globl	timer_prescaler_config
	.p2align	1
	.type	timer_prescaler_config,%function
	.code	16                      @ @timer_prescaler_config
	.thumb_func
timer_prescaler_config:
.Lfunc_begin12:
	.loc	4 272 0                 @ ../Basic/Source/gd32e23x_timer.c:272:0
	.fnstart
	.cfi_startproc
@ %bb.0:
	@DEBUG_VALUE: timer_prescaler_config:timer_periph <- $r0
	@DEBUG_VALUE: timer_prescaler_config:timer_periph <- $r0
	@DEBUG_VALUE: timer_prescaler_config:prescaler <- $r1
	@DEBUG_VALUE: timer_prescaler_config:prescaler <- $r1
	@DEBUG_VALUE: timer_prescaler_config:pscreload <- $r2
	@DEBUG_VALUE: timer_prescaler_config:pscreload <- $r2
	.loc	4 273 29 prologue_end   @ ../Basic/Source/gd32e23x_timer.c:273:29
	str	r1, [r0, #40]
	.loc	4 275 8                 @ ../Basic/Source/gd32e23x_timer.c:275:8
	cmp	r2, #1
	bne	.LBB12_2
.Ltmp46:
@ %bb.1:
	@DEBUG_VALUE: timer_prescaler_config:pscreload <- $r2
	@DEBUG_VALUE: timer_prescaler_config:prescaler <- $r1
	@DEBUG_VALUE: timer_prescaler_config:timer_periph <- $r0
	.loc	4 276 35                @ ../Basic/Source/gd32e23x_timer.c:276:35
	ldr	r1, [r0, #20]
.Ltmp47:
	.loc	4 0 35 is_stmt 0        @ ../Basic/Source/gd32e23x_timer.c:0:35
	movs	r2, #1
.Ltmp48:
	.loc	4 276 35                @ ../Basic/Source/gd32e23x_timer.c:276:35
	orrs	r2, r1
	str	r2, [r0, #20]
.Ltmp49:
.LBB12_2:
	@DEBUG_VALUE: timer_prescaler_config:timer_periph <- $r0
	.loc	4 278 1 is_stmt 1       @ ../Basic/Source/gd32e23x_timer.c:278:1
	bx	lr
.Ltmp50:
.Lfunc_end12:
	.size	timer_prescaler_config, .Lfunc_end12-timer_prescaler_config
	.cfi_endproc
	.cantunwind
	.fnend
                                        @ -- End function
	.section	.text.timer_repetition_value_config,"ax",%progbits
	.hidden	timer_repetition_value_config @ -- Begin function timer_repetition_value_config
	.globl	timer_repetition_value_config
	.p2align	1
	.type	timer_repetition_value_config,%function
	.code	16                      @ @timer_repetition_value_config
	.thumb_func
timer_repetition_value_config:
.Lfunc_begin13:
	.loc	4 288 0                 @ ../Basic/Source/gd32e23x_timer.c:288:0
	.fnstart
	.cfi_startproc
@ %bb.0:
	@DEBUG_VALUE: timer_repetition_value_config:timer_periph <- $r0
	@DEBUG_VALUE: timer_repetition_value_config:timer_periph <- $r0
	@DEBUG_VALUE: timer_repetition_value_config:repetition <- $r1
	@DEBUG_VALUE: timer_repetition_value_config:repetition <- $r1
	.loc	4 289 30 prologue_end   @ ../Basic/Source/gd32e23x_timer.c:289:30
	str	r1, [r0, #48]
	.loc	4 290 1                 @ ../Basic/Source/gd32e23x_timer.c:290:1
	bx	lr
.Ltmp51:
.Lfunc_end13:
	.size	timer_repetition_value_config, .Lfunc_end13-timer_repetition_value_config
	.cfi_endproc
	.cantunwind
	.fnend
                                        @ -- End function
	.section	.text.timer_autoreload_value_config,"ax",%progbits
	.hidden	timer_autoreload_value_config @ -- Begin function timer_autoreload_value_config
	.globl	timer_autoreload_value_config
	.p2align	1
	.type	timer_autoreload_value_config,%function
	.code	16                      @ @timer_autoreload_value_config
	.thumb_func
timer_autoreload_value_config:
.Lfunc_begin14:
	.loc	4 300 0                 @ ../Basic/Source/gd32e23x_timer.c:300:0
	.fnstart
	.cfi_startproc
@ %bb.0:
	@DEBUG_VALUE: timer_autoreload_value_config:timer_periph <- $r0
	@DEBUG_VALUE: timer_autoreload_value_config:timer_periph <- $r0
	@DEBUG_VALUE: timer_autoreload_value_config:autoreload <- $r1
	@DEBUG_VALUE: timer_autoreload_value_config:autoreload <- $r1
	.loc	4 301 29 prologue_end   @ ../Basic/Source/gd32e23x_timer.c:301:29
	str	r1, [r0, #44]
	.loc	4 302 1                 @ ../Basic/Source/gd32e23x_timer.c:302:1
	bx	lr
.Ltmp52:
.Lfunc_end14:
	.size	timer_autoreload_value_config, .Lfunc_end14-timer_autoreload_value_config
	.cfi_endproc
	.cantunwind
	.fnend
                                        @ -- End function
	.section	.text.timer_counter_value_config,"ax",%progbits
	.hidden	timer_counter_value_config @ -- Begin function timer_counter_value_config
	.globl	timer_counter_value_config
	.p2align	1
	.type	timer_counter_value_config,%function
	.code	16                      @ @timer_counter_value_config
	.thumb_func
timer_counter_value_config:
.Lfunc_begin15:
	.loc	4 312 0                 @ ../Basic/Source/gd32e23x_timer.c:312:0
	.fnstart
	.cfi_startproc
@ %bb.0:
	@DEBUG_VALUE: timer_counter_value_config:timer_periph <- $r0
	@DEBUG_VALUE: timer_counter_value_config:timer_periph <- $r0
	@DEBUG_VALUE: timer_counter_value_config:counter <- $r1
	@DEBUG_VALUE: timer_counter_value_config:counter <- $r1
	.loc	4 313 29 prologue_end   @ ../Basic/Source/gd32e23x_timer.c:313:29
	str	r1, [r0, #36]
	.loc	4 314 1                 @ ../Basic/Source/gd32e23x_timer.c:314:1
	bx	lr
.Ltmp53:
.Lfunc_end15:
	.size	timer_counter_value_config, .Lfunc_end15-timer_counter_value_config
	.cfi_endproc
	.cantunwind
	.fnend
                                        @ -- End function
	.section	.text.timer_counter_read,"ax",%progbits
	.hidden	timer_counter_read      @ -- Begin function timer_counter_read
	.globl	timer_counter_read
	.p2align	1
	.type	timer_counter_read,%function
	.code	16                      @ @timer_counter_read
	.thumb_func
timer_counter_read:
.Lfunc_begin16:
	.loc	4 323 0                 @ ../Basic/Source/gd32e23x_timer.c:323:0
	.fnstart
	.cfi_startproc
@ %bb.0:
	@DEBUG_VALUE: timer_counter_read:timer_periph <- $r0
	@DEBUG_VALUE: timer_counter_read:timer_periph <- $r0
	@DEBUG_VALUE: timer_counter_read:count_value <- 0
	.loc	4 325 19 prologue_end   @ ../Basic/Source/gd32e23x_timer.c:325:19
	ldr	r0, [r0, #36]
.Ltmp54:
	@DEBUG_VALUE: timer_counter_read:count_value <- $r0
	.loc	4 326 5                 @ ../Basic/Source/gd32e23x_timer.c:326:5
	bx	lr
.Ltmp55:
.Lfunc_end16:
	.size	timer_counter_read, .Lfunc_end16-timer_counter_read
	.cfi_endproc
	.cantunwind
	.fnend
                                        @ -- End function
	.section	.text.timer_prescaler_read,"ax",%progbits
	.hidden	timer_prescaler_read    @ -- Begin function timer_prescaler_read
	.globl	timer_prescaler_read
	.p2align	1
	.type	timer_prescaler_read,%function
	.code	16                      @ @timer_prescaler_read
	.thumb_func
timer_prescaler_read:
.Lfunc_begin17:
	.loc	4 336 0                 @ ../Basic/Source/gd32e23x_timer.c:336:0
	.fnstart
	.cfi_startproc
@ %bb.0:
	@DEBUG_VALUE: timer_prescaler_read:timer_periph <- $r0
	@DEBUG_VALUE: timer_prescaler_read:timer_periph <- $r0
	@DEBUG_VALUE: timer_prescaler_read:prescaler_value <- 0
	.loc	4 338 34 prologue_end   @ ../Basic/Source/gd32e23x_timer.c:338:34
	ldr	r0, [r0, #40]
.Ltmp56:
	.loc	4 339 5                 @ ../Basic/Source/gd32e23x_timer.c:339:5
	uxth	r0, r0
.Ltmp57:
	@DEBUG_VALUE: timer_prescaler_read:prescaler_value <- $r0
	bx	lr
.Ltmp58:
.Lfunc_end17:
	.size	timer_prescaler_read, .Lfunc_end17-timer_prescaler_read
	.cfi_endproc
	.cantunwind
	.fnend
                                        @ -- End function
	.section	.text.timer_single_pulse_mode_config,"ax",%progbits
	.hidden	timer_single_pulse_mode_config @ -- Begin function timer_single_pulse_mode_config
	.globl	timer_single_pulse_mode_config
	.p2align	1
	.type	timer_single_pulse_mode_config,%function
	.code	16                      @ @timer_single_pulse_mode_config
	.thumb_func
timer_single_pulse_mode_config:
.Lfunc_begin18:
	.loc	4 353 0                 @ ../Basic/Source/gd32e23x_timer.c:353:0
	.fnstart
	.cfi_startproc
@ %bb.0:
	@DEBUG_VALUE: timer_single_pulse_mode_config:timer_periph <- $r0
	@DEBUG_VALUE: timer_single_pulse_mode_config:timer_periph <- $r0
	@DEBUG_VALUE: timer_single_pulse_mode_config:spmode <- $r1
	@DEBUG_VALUE: timer_single_pulse_mode_config:spmode <- $r1
	.loc	4 354 8 prologue_end    @ ../Basic/Source/gd32e23x_timer.c:354:8
	cbz	r1, .LBB18_3
.Ltmp59:
@ %bb.1:
	@DEBUG_VALUE: timer_single_pulse_mode_config:spmode <- $r1
	@DEBUG_VALUE: timer_single_pulse_mode_config:timer_periph <- $r0
	cmp	r1, #8
	bne	.LBB18_4
.Ltmp60:
@ %bb.2:
	@DEBUG_VALUE: timer_single_pulse_mode_config:spmode <- $r1
	@DEBUG_VALUE: timer_single_pulse_mode_config:timer_periph <- $r0
	.loc	4 355 34                @ ../Basic/Source/gd32e23x_timer.c:355:34
	ldr	r1, [r0]
.Ltmp61:
	.loc	4 0 34 is_stmt 0        @ ../Basic/Source/gd32e23x_timer.c:0:34
	movs	r2, #8
	.loc	4 355 34                @ ../Basic/Source/gd32e23x_timer.c:355:34
	orrs	r2, r1
	str	r2, [r0]
.Ltmp62:
	.loc	4 361 1 is_stmt 1       @ ../Basic/Source/gd32e23x_timer.c:361:1
	bx	lr
.Ltmp63:
.LBB18_3:
	@DEBUG_VALUE: timer_single_pulse_mode_config:spmode <- $r1
	@DEBUG_VALUE: timer_single_pulse_mode_config:timer_periph <- $r0
	.loc	4 357 34                @ ../Basic/Source/gd32e23x_timer.c:357:34
	ldr	r1, [r0]
.Ltmp64:
	.loc	4 0 34 is_stmt 0        @ ../Basic/Source/gd32e23x_timer.c:0:34
	movs	r2, #8
	.loc	4 357 34                @ ../Basic/Source/gd32e23x_timer.c:357:34
	bics	r1, r2
	str	r1, [r0]
.Ltmp65:
.LBB18_4:
	@DEBUG_VALUE: timer_single_pulse_mode_config:timer_periph <- $r0
	.loc	4 361 1 is_stmt 1       @ ../Basic/Source/gd32e23x_timer.c:361:1
	bx	lr
.Ltmp66:
.Lfunc_end18:
	.size	timer_single_pulse_mode_config, .Lfunc_end18-timer_single_pulse_mode_config
	.cfi_endproc
	.cantunwind
	.fnend
                                        @ -- End function
	.section	.text.timer_update_source_config,"ax",%progbits
	.hidden	timer_update_source_config @ -- Begin function timer_update_source_config
	.globl	timer_update_source_config
	.p2align	1
	.type	timer_update_source_config,%function
	.code	16                      @ @timer_update_source_config
	.thumb_func
timer_update_source_config:
.Lfunc_begin19:
	.loc	4 374 0                 @ ../Basic/Source/gd32e23x_timer.c:374:0
	.fnstart
	.cfi_startproc
@ %bb.0:
	@DEBUG_VALUE: timer_update_source_config:timer_periph <- $r0
	@DEBUG_VALUE: timer_update_source_config:timer_periph <- $r0
	@DEBUG_VALUE: timer_update_source_config:update <- $r1
	@DEBUG_VALUE: timer_update_source_config:update <- $r1
	.loc	4 375 8 prologue_end    @ ../Basic/Source/gd32e23x_timer.c:375:8
	cbz	r1, .LBB19_3
.Ltmp67:
@ %bb.1:
	@DEBUG_VALUE: timer_update_source_config:update <- $r1
	@DEBUG_VALUE: timer_update_source_config:timer_periph <- $r0
	cmp	r1, #4
	bne	.LBB19_4
.Ltmp68:
@ %bb.2:
	@DEBUG_VALUE: timer_update_source_config:update <- $r1
	@DEBUG_VALUE: timer_update_source_config:timer_periph <- $r0
	.loc	4 376 34                @ ../Basic/Source/gd32e23x_timer.c:376:34
	ldr	r1, [r0]
.Ltmp69:
	.loc	4 0 34 is_stmt 0        @ ../Basic/Source/gd32e23x_timer.c:0:34
	movs	r2, #4
	.loc	4 376 34                @ ../Basic/Source/gd32e23x_timer.c:376:34
	orrs	r2, r1
	str	r2, [r0]
.Ltmp70:
	.loc	4 382 1 is_stmt 1       @ ../Basic/Source/gd32e23x_timer.c:382:1
	bx	lr
.Ltmp71:
.LBB19_3:
	@DEBUG_VALUE: timer_update_source_config:update <- $r1
	@DEBUG_VALUE: timer_update_source_config:timer_periph <- $r0
	.loc	4 378 34                @ ../Basic/Source/gd32e23x_timer.c:378:34
	ldr	r1, [r0]
.Ltmp72:
	.loc	4 0 34 is_stmt 0        @ ../Basic/Source/gd32e23x_timer.c:0:34
	movs	r2, #4
	.loc	4 378 34                @ ../Basic/Source/gd32e23x_timer.c:378:34
	bics	r1, r2
	str	r1, [r0]
.Ltmp73:
.LBB19_4:
	@DEBUG_VALUE: timer_update_source_config:timer_periph <- $r0
	.loc	4 382 1 is_stmt 1       @ ../Basic/Source/gd32e23x_timer.c:382:1
	bx	lr
.Ltmp74:
.Lfunc_end19:
	.size	timer_update_source_config, .Lfunc_end19-timer_update_source_config
	.cfi_endproc
	.cantunwind
	.fnend
                                        @ -- End function
	.section	.text.timer_ocpre_clear_source_config,"ax",%progbits
	.hidden	timer_ocpre_clear_source_config @ -- Begin function timer_ocpre_clear_source_config
	.globl	timer_ocpre_clear_source_config
	.p2align	1
	.type	timer_ocpre_clear_source_config,%function
	.code	16                      @ @timer_ocpre_clear_source_config
	.thumb_func
timer_ocpre_clear_source_config:
.Lfunc_begin20:
	.loc	4 395 0                 @ ../Basic/Source/gd32e23x_timer.c:395:0
	.fnstart
	.cfi_startproc
@ %bb.0:
	@DEBUG_VALUE: timer_ocpre_clear_source_config:timer_periph <- $r0
	@DEBUG_VALUE: timer_ocpre_clear_source_config:timer_periph <- $r0
	@DEBUG_VALUE: timer_ocpre_clear_source_config:ocpreclear <- $r1
	@DEBUG_VALUE: timer_ocpre_clear_source_config:ocpreclear <- $r1
	.loc	4 396 8 prologue_end    @ ../Basic/Source/gd32e23x_timer.c:396:8
	cbz	r1, .LBB20_3
.Ltmp75:
@ %bb.1:
	@DEBUG_VALUE: timer_ocpre_clear_source_config:ocpreclear <- $r1
	@DEBUG_VALUE: timer_ocpre_clear_source_config:timer_periph <- $r0
	cmp	r1, #1
	bne	.LBB20_4
.Ltmp76:
@ %bb.2:
	@DEBUG_VALUE: timer_ocpre_clear_source_config:ocpreclear <- $r1
	@DEBUG_VALUE: timer_ocpre_clear_source_config:timer_periph <- $r0
	.loc	4 397 35                @ ../Basic/Source/gd32e23x_timer.c:397:35
	ldr	r1, [r0, #8]
.Ltmp77:
	.loc	4 0 35 is_stmt 0        @ ../Basic/Source/gd32e23x_timer.c:0:35
	movs	r2, #8
	.loc	4 397 35                @ ../Basic/Source/gd32e23x_timer.c:397:35
	orrs	r2, r1
	str	r2, [r0, #8]
.Ltmp78:
	.loc	4 403 1 is_stmt 1       @ ../Basic/Source/gd32e23x_timer.c:403:1
	bx	lr
.Ltmp79:
.LBB20_3:
	@DEBUG_VALUE: timer_ocpre_clear_source_config:ocpreclear <- $r1
	@DEBUG_VALUE: timer_ocpre_clear_source_config:timer_periph <- $r0
	.loc	4 399 35                @ ../Basic/Source/gd32e23x_timer.c:399:35
	ldr	r1, [r0, #8]
.Ltmp80:
	.loc	4 0 35 is_stmt 0        @ ../Basic/Source/gd32e23x_timer.c:0:35
	movs	r2, #8
	.loc	4 399 35                @ ../Basic/Source/gd32e23x_timer.c:399:35
	bics	r1, r2
	str	r1, [r0, #8]
.Ltmp81:
.LBB20_4:
	@DEBUG_VALUE: timer_ocpre_clear_source_config:timer_periph <- $r0
	.loc	4 403 1 is_stmt 1       @ ../Basic/Source/gd32e23x_timer.c:403:1
	bx	lr
.Ltmp82:
.Lfunc_end20:
	.size	timer_ocpre_clear_source_config, .Lfunc_end20-timer_ocpre_clear_source_config
	.cfi_endproc
	.cantunwind
	.fnend
                                        @ -- End function
	.section	.text.timer_interrupt_enable,"ax",%progbits
	.hidden	timer_interrupt_enable  @ -- Begin function timer_interrupt_enable
	.globl	timer_interrupt_enable
	.p2align	1
	.type	timer_interrupt_enable,%function
	.code	16                      @ @timer_interrupt_enable
	.thumb_func
timer_interrupt_enable:
.Lfunc_begin21:
	.loc	4 422 0                 @ ../Basic/Source/gd32e23x_timer.c:422:0
	.fnstart
	.cfi_startproc
@ %bb.0:
	@DEBUG_VALUE: timer_interrupt_enable:timer_periph <- $r0
	@DEBUG_VALUE: timer_interrupt_enable:timer_periph <- $r0
	@DEBUG_VALUE: timer_interrupt_enable:interrupt <- $r1
	@DEBUG_VALUE: timer_interrupt_enable:interrupt <- $r1
	.loc	4 423 34 prologue_end   @ ../Basic/Source/gd32e23x_timer.c:423:34
	ldr	r2, [r0, #12]
	orrs	r2, r1
	str	r2, [r0, #12]
	.loc	4 424 1                 @ ../Basic/Source/gd32e23x_timer.c:424:1
	bx	lr
.Ltmp83:
.Lfunc_end21:
	.size	timer_interrupt_enable, .Lfunc_end21-timer_interrupt_enable
	.cfi_endproc
	.cantunwind
	.fnend
                                        @ -- End function
	.section	.text.timer_interrupt_disable,"ax",%progbits
	.hidden	timer_interrupt_disable @ -- Begin function timer_interrupt_disable
	.globl	timer_interrupt_disable
	.p2align	1
	.type	timer_interrupt_disable,%function
	.code	16                      @ @timer_interrupt_disable
	.thumb_func
timer_interrupt_disable:
.Lfunc_begin22:
	.loc	4 443 0                 @ ../Basic/Source/gd32e23x_timer.c:443:0
	.fnstart
	.cfi_startproc
@ %bb.0:
	@DEBUG_VALUE: timer_interrupt_disable:timer_periph <- $r0
	@DEBUG_VALUE: timer_interrupt_disable:timer_periph <- $r0
	@DEBUG_VALUE: timer_interrupt_disable:interrupt <- $r1
	@DEBUG_VALUE: timer_interrupt_disable:interrupt <- $r1
	.loc	4 444 34 prologue_end   @ ../Basic/Source/gd32e23x_timer.c:444:34
	ldr	r2, [r0, #12]
	bics	r2, r1
	str	r2, [r0, #12]
	.loc	4 445 1                 @ ../Basic/Source/gd32e23x_timer.c:445:1
	bx	lr
.Ltmp84:
.Lfunc_end22:
	.size	timer_interrupt_disable, .Lfunc_end22-timer_interrupt_disable
	.cfi_endproc
	.cantunwind
	.fnend
                                        @ -- End function
	.section	.text.timer_interrupt_flag_get,"ax",%progbits
	.hidden	timer_interrupt_flag_get @ -- Begin function timer_interrupt_flag_get
	.globl	timer_interrupt_flag_get
	.p2align	1
	.type	timer_interrupt_flag_get,%function
	.code	16                      @ @timer_interrupt_flag_get
	.thumb_func
timer_interrupt_flag_get:
.Lfunc_begin23:
	.loc	4 464 0                 @ ../Basic/Source/gd32e23x_timer.c:464:0
	.fnstart
	.cfi_startproc
@ %bb.0:
	@DEBUG_VALUE: timer_interrupt_flag_get:timer_periph <- $r0
	@DEBUG_VALUE: timer_interrupt_flag_get:timer_periph <- $r0
	@DEBUG_VALUE: timer_interrupt_flag_get:interrupt <- $r1
	@DEBUG_VALUE: timer_interrupt_flag_get:interrupt <- $r1
	.loc	4 466 12 prologue_end   @ ../Basic/Source/gd32e23x_timer.c:466:12
	ldr	r2, [r0, #12]
	.loc	4 466 41 is_stmt 0      @ ../Basic/Source/gd32e23x_timer.c:466:41
	ands	r2, r1
.Ltmp85:
	@DEBUG_VALUE: timer_interrupt_flag_get:val <- $r2
	.loc	4 467 69 is_stmt 1      @ ../Basic/Source/gd32e23x_timer.c:467:69
	subs	r3, r2, #1
	sbcs	r2, r3
.Ltmp86:
	.loc	4 467 19 is_stmt 0      @ ../Basic/Source/gd32e23x_timer.c:467:19
	ldr	r0, [r0, #16]
.Ltmp87:
	.loc	4 467 44                @ ../Basic/Source/gd32e23x_timer.c:467:44
	ands	r0, r1
	.loc	4 467 15                @ ../Basic/Source/gd32e23x_timer.c:467:15
	subs	r1, r0, #1
.Ltmp88:
	sbcs	r0, r1
	.loc	4 467 59                @ ../Basic/Source/gd32e23x_timer.c:467:59
	ands	r0, r2
.Ltmp89:
	.loc	4 472 1 is_stmt 1       @ ../Basic/Source/gd32e23x_timer.c:472:1
	bx	lr
.Ltmp90:
.Lfunc_end23:
	.size	timer_interrupt_flag_get, .Lfunc_end23-timer_interrupt_flag_get
	.cfi_endproc
	.cantunwind
	.fnend
                                        @ -- End function
	.section	.text.timer_interrupt_flag_clear,"ax",%progbits
	.hidden	timer_interrupt_flag_clear @ -- Begin function timer_interrupt_flag_clear
	.globl	timer_interrupt_flag_clear
	.p2align	1
	.type	timer_interrupt_flag_clear,%function
	.code	16                      @ @timer_interrupt_flag_clear
	.thumb_func
timer_interrupt_flag_clear:
.Lfunc_begin24:
	.loc	4 491 0                 @ ../Basic/Source/gd32e23x_timer.c:491:0
	.fnstart
	.cfi_startproc
@ %bb.0:
	@DEBUG_VALUE: timer_interrupt_flag_clear:timer_periph <- $r0
	@DEBUG_VALUE: timer_interrupt_flag_clear:timer_periph <- $r0
	@DEBUG_VALUE: timer_interrupt_flag_clear:interrupt <- $r1
	@DEBUG_VALUE: timer_interrupt_flag_clear:interrupt <- $r1
	.loc	4 492 33 prologue_end   @ ../Basic/Source/gd32e23x_timer.c:492:33
	mvns	r1, r1
.Ltmp91:
	.loc	4 492 30 is_stmt 0      @ ../Basic/Source/gd32e23x_timer.c:492:30
	str	r1, [r0, #16]
	.loc	4 493 1 is_stmt 1       @ ../Basic/Source/gd32e23x_timer.c:493:1
	bx	lr
.Ltmp92:
.Lfunc_end24:
	.size	timer_interrupt_flag_clear, .Lfunc_end24-timer_interrupt_flag_clear
	.cfi_endproc
	.cantunwind
	.fnend
                                        @ -- End function
	.section	.text.timer_flag_get,"ax",%progbits
	.hidden	timer_flag_get          @ -- Begin function timer_flag_get
	.globl	timer_flag_get
	.p2align	1
	.type	timer_flag_get,%function
	.code	16                      @ @timer_flag_get
	.thumb_func
timer_flag_get:
.Lfunc_begin25:
	.loc	4 516 0                 @ ../Basic/Source/gd32e23x_timer.c:516:0
	.fnstart
	.cfi_startproc
@ %bb.0:
	@DEBUG_VALUE: timer_flag_get:timer_periph <- $r0
	@DEBUG_VALUE: timer_flag_get:timer_periph <- $r0
	@DEBUG_VALUE: timer_flag_get:flag <- $r1
	@DEBUG_VALUE: timer_flag_get:flag <- $r1
	.loc	4 517 18 prologue_end   @ ../Basic/Source/gd32e23x_timer.c:517:18
	ldr	r0, [r0, #16]
.Ltmp93:
	.loc	4 517 43 is_stmt 0      @ ../Basic/Source/gd32e23x_timer.c:517:43
	ands	r0, r1
	.loc	4 517 14                @ ../Basic/Source/gd32e23x_timer.c:517:14
	subs	r1, r0, #1
.Ltmp94:
	sbcs	r0, r1
.Ltmp95:
	.loc	4 522 1 is_stmt 1       @ ../Basic/Source/gd32e23x_timer.c:522:1
	bx	lr
.Ltmp96:
.Lfunc_end25:
	.size	timer_flag_get, .Lfunc_end25-timer_flag_get
	.cfi_endproc
	.cantunwind
	.fnend
                                        @ -- End function
	.section	.text.timer_flag_clear,"ax",%progbits
	.hidden	timer_flag_clear        @ -- Begin function timer_flag_clear
	.globl	timer_flag_clear
	.p2align	1
	.type	timer_flag_clear,%function
	.code	16                      @ @timer_flag_clear
	.thumb_func
timer_flag_clear:
.Lfunc_begin26:
	.loc	4 545 0                 @ ../Basic/Source/gd32e23x_timer.c:545:0
	.fnstart
	.cfi_startproc
@ %bb.0:
	@DEBUG_VALUE: timer_flag_clear:timer_periph <- $r0
	@DEBUG_VALUE: timer_flag_clear:timer_periph <- $r0
	@DEBUG_VALUE: timer_flag_clear:flag <- $r1
	@DEBUG_VALUE: timer_flag_clear:flag <- $r1
	.loc	4 546 33 prologue_end   @ ../Basic/Source/gd32e23x_timer.c:546:33
	mvns	r1, r1
.Ltmp97:
	.loc	4 546 30 is_stmt 0      @ ../Basic/Source/gd32e23x_timer.c:546:30
	str	r1, [r0, #16]
	.loc	4 547 1 is_stmt 1       @ ../Basic/Source/gd32e23x_timer.c:547:1
	bx	lr
.Ltmp98:
.Lfunc_end26:
	.size	timer_flag_clear, .Lfunc_end26-timer_flag_clear
	.cfi_endproc
	.cantunwind
	.fnend
                                        @ -- End function
	.section	.text.timer_dma_enable,"ax",%progbits
	.hidden	timer_dma_enable        @ -- Begin function timer_dma_enable
	.globl	timer_dma_enable
	.p2align	1
	.type	timer_dma_enable,%function
	.code	16                      @ @timer_dma_enable
	.thumb_func
timer_dma_enable:
.Lfunc_begin27:
	.loc	4 565 0                 @ ../Basic/Source/gd32e23x_timer.c:565:0
	.fnstart
	.cfi_startproc
@ %bb.0:
	@DEBUG_VALUE: timer_dma_enable:timer_periph <- $r0
	@DEBUG_VALUE: timer_dma_enable:timer_periph <- $r0
	@DEBUG_VALUE: timer_dma_enable:dma <- $r1
	@DEBUG_VALUE: timer_dma_enable:dma <- $r1
	.loc	4 566 34 prologue_end   @ ../Basic/Source/gd32e23x_timer.c:566:34
	ldr	r2, [r0, #12]
	orrs	r2, r1
	str	r2, [r0, #12]
	.loc	4 567 1                 @ ../Basic/Source/gd32e23x_timer.c:567:1
	bx	lr
.Ltmp99:
.Lfunc_end27:
	.size	timer_dma_enable, .Lfunc_end27-timer_dma_enable
	.cfi_endproc
	.cantunwind
	.fnend
                                        @ -- End function
	.section	.text.timer_dma_disable,"ax",%progbits
	.hidden	timer_dma_disable       @ -- Begin function timer_dma_disable
	.globl	timer_dma_disable
	.p2align	1
	.type	timer_dma_disable,%function
	.code	16                      @ @timer_dma_disable
	.thumb_func
timer_dma_disable:
.Lfunc_begin28:
	.loc	4 585 0                 @ ../Basic/Source/gd32e23x_timer.c:585:0
	.fnstart
	.cfi_startproc
@ %bb.0:
	@DEBUG_VALUE: timer_dma_disable:timer_periph <- $r0
	@DEBUG_VALUE: timer_dma_disable:timer_periph <- $r0
	@DEBUG_VALUE: timer_dma_disable:dma <- $r1
	@DEBUG_VALUE: timer_dma_disable:dma <- $r1
	.loc	4 586 34 prologue_end   @ ../Basic/Source/gd32e23x_timer.c:586:34
	ldr	r2, [r0, #12]
	bics	r2, r1
	str	r2, [r0, #12]
	.loc	4 587 1                 @ ../Basic/Source/gd32e23x_timer.c:587:1
	bx	lr
.Ltmp100:
.Lfunc_end28:
	.size	timer_dma_disable, .Lfunc_end28-timer_dma_disable
	.cfi_endproc
	.cantunwind
	.fnend
                                        @ -- End function
	.section	.text.timer_channel_dma_request_source_select,"ax",%progbits
	.hidden	timer_channel_dma_request_source_select @ -- Begin function timer_channel_dma_request_source_select
	.globl	timer_channel_dma_request_source_select
	.p2align	1
	.type	timer_channel_dma_request_source_select,%function
	.code	16                      @ @timer_channel_dma_request_source_select
	.thumb_func
timer_channel_dma_request_source_select:
.Lfunc_begin29:
	.loc	4 600 0                 @ ../Basic/Source/gd32e23x_timer.c:600:0
	.fnstart
	.cfi_startproc
@ %bb.0:
	@DEBUG_VALUE: timer_channel_dma_request_source_select:timer_periph <- $r0
	@DEBUG_VALUE: timer_channel_dma_request_source_select:timer_periph <- $r0
	@DEBUG_VALUE: timer_channel_dma_request_source_select:dma_request <- $r1
	@DEBUG_VALUE: timer_channel_dma_request_source_select:dma_request <- $r1
	.loc	4 601 8 prologue_end    @ ../Basic/Source/gd32e23x_timer.c:601:8
	cbz	r1, .LBB29_3
.Ltmp101:
@ %bb.1:
	@DEBUG_VALUE: timer_channel_dma_request_source_select:dma_request <- $r1
	@DEBUG_VALUE: timer_channel_dma_request_source_select:timer_periph <- $r0
	cmp	r1, #8
	bne	.LBB29_4
.Ltmp102:
@ %bb.2:
	@DEBUG_VALUE: timer_channel_dma_request_source_select:dma_request <- $r1
	@DEBUG_VALUE: timer_channel_dma_request_source_select:timer_periph <- $r0
	.loc	4 602 34                @ ../Basic/Source/gd32e23x_timer.c:602:34
	ldr	r1, [r0, #4]
.Ltmp103:
	.loc	4 0 34 is_stmt 0        @ ../Basic/Source/gd32e23x_timer.c:0:34
	movs	r2, #8
	.loc	4 602 34                @ ../Basic/Source/gd32e23x_timer.c:602:34
	orrs	r2, r1
	str	r2, [r0, #4]
.Ltmp104:
	.loc	4 608 1 is_stmt 1       @ ../Basic/Source/gd32e23x_timer.c:608:1
	bx	lr
.Ltmp105:
.LBB29_3:
	@DEBUG_VALUE: timer_channel_dma_request_source_select:dma_request <- $r1
	@DEBUG_VALUE: timer_channel_dma_request_source_select:timer_periph <- $r0
	.loc	4 604 34                @ ../Basic/Source/gd32e23x_timer.c:604:34
	ldr	r1, [r0, #4]
.Ltmp106:
	.loc	4 0 34 is_stmt 0        @ ../Basic/Source/gd32e23x_timer.c:0:34
	movs	r2, #8
	.loc	4 604 34                @ ../Basic/Source/gd32e23x_timer.c:604:34
	bics	r1, r2
	str	r1, [r0, #4]
.Ltmp107:
.LBB29_4:
	@DEBUG_VALUE: timer_channel_dma_request_source_select:timer_periph <- $r0
	.loc	4 608 1 is_stmt 1       @ ../Basic/Source/gd32e23x_timer.c:608:1
	bx	lr
.Ltmp108:
.Lfunc_end29:
	.size	timer_channel_dma_request_source_select, .Lfunc_end29-timer_channel_dma_request_source_select
	.cfi_endproc
	.cantunwind
	.fnend
                                        @ -- End function
	.section	.text.timer_dma_transfer_config,"ax",%progbits
	.hidden	timer_dma_transfer_config @ -- Begin function timer_dma_transfer_config
	.globl	timer_dma_transfer_config
	.p2align	2
	.type	timer_dma_transfer_config,%function
	.code	16                      @ @timer_dma_transfer_config
	.thumb_func
timer_dma_transfer_config:
.Lfunc_begin30:
	.loc	4 641 0                 @ ../Basic/Source/gd32e23x_timer.c:641:0
	.fnstart
	.cfi_startproc
@ %bb.0:
	@DEBUG_VALUE: timer_dma_transfer_config:timer_periph <- $r0
	@DEBUG_VALUE: timer_dma_transfer_config:timer_periph <- $r0
	@DEBUG_VALUE: timer_dma_transfer_config:dma_baseaddr <- $r1
	@DEBUG_VALUE: timer_dma_transfer_config:dma_baseaddr <- $r1
	@DEBUG_VALUE: timer_dma_transfer_config:dma_lenth <- $r2
	@DEBUG_VALUE: timer_dma_transfer_config:dma_lenth <- $r2
	.save	{r4, lr}
	push	{r4, lr}
	.cfi_def_cfa_offset 8
	.cfi_offset lr, -4
	.cfi_offset r4, -8
.Ltmp109:
	.loc	4 642 32 prologue_end   @ ../Basic/Source/gd32e23x_timer.c:642:32
	ldr	r3, [r0, #72]
	ldr	r4, __arm_cp.30_0
	ands	r4, r3
	str	r4, [r0, #72]
	.loc	4 643 59                @ ../Basic/Source/gd32e23x_timer.c:643:59
	orrs	r1, r2
.Ltmp110:
	.loc	4 643 32 is_stmt 0      @ ../Basic/Source/gd32e23x_timer.c:643:32
	ldr	r2, [r0, #72]
.Ltmp111:
	orrs	r2, r1
	str	r2, [r0, #72]
	.loc	4 644 1 is_stmt 1       @ ../Basic/Source/gd32e23x_timer.c:644:1
	pop	{r4, pc}
.Ltmp112:
	.p2align	2
@ %bb.1:
	.loc	4 0 1 is_stmt 0         @ ../Basic/Source/gd32e23x_timer.c:0:1
__arm_cp.30_0:
	.long	4294959328              @ 0xffffe0e0
.Lcpi_end16:
	.size	__arm_cp.30_0, .Lcpi_end16-__arm_cp.30_0
.Lfunc_end30:
	.size	timer_dma_transfer_config, .Lfunc_end30-timer_dma_transfer_config
	.cfi_endproc
	.cantunwind
	.fnend
                                        @ -- End function
	.section	.text.timer_event_software_generate,"ax",%progbits
	.hidden	timer_event_software_generate @ -- Begin function timer_event_software_generate
	.globl	timer_event_software_generate
	.p2align	1
	.type	timer_event_software_generate,%function
	.code	16                      @ @timer_event_software_generate
	.thumb_func
timer_event_software_generate:
.Lfunc_begin31:
	.loc	4 663 0 is_stmt 1       @ ../Basic/Source/gd32e23x_timer.c:663:0
	.fnstart
	.cfi_startproc
@ %bb.0:
	@DEBUG_VALUE: timer_event_software_generate:timer_periph <- $r0
	@DEBUG_VALUE: timer_event_software_generate:timer_periph <- $r0
	@DEBUG_VALUE: timer_event_software_generate:event <- $r1
	@DEBUG_VALUE: timer_event_software_generate:event <- $r1
	.loc	4 664 31 prologue_end   @ ../Basic/Source/gd32e23x_timer.c:664:31
	ldr	r2, [r0, #20]
	orrs	r2, r1
	str	r2, [r0, #20]
	.loc	4 665 1                 @ ../Basic/Source/gd32e23x_timer.c:665:1
	bx	lr
.Ltmp113:
.Lfunc_end31:
	.size	timer_event_software_generate, .Lfunc_end31-timer_event_software_generate
	.cfi_endproc
	.cantunwind
	.fnend
                                        @ -- End function
	.section	.text.timer_break_struct_para_init,"ax",%progbits
	.hidden	timer_break_struct_para_init @ -- Begin function timer_break_struct_para_init
	.globl	timer_break_struct_para_init
	.p2align	1
	.type	timer_break_struct_para_init,%function
	.code	16                      @ @timer_break_struct_para_init
	.thumb_func
timer_break_struct_para_init:
.Lfunc_begin32:
	.loc	4 674 0                 @ ../Basic/Source/gd32e23x_timer.c:674:0
	.fnstart
	.cfi_startproc
@ %bb.0:
	@DEBUG_VALUE: timer_break_struct_para_init:breakpara <- $r0
	@DEBUG_VALUE: timer_break_struct_para_init:breakpara <- $r0
	.save	{r7, lr}
	push	{r7, lr}
	.cfi_def_cfa_offset 8
	.cfi_offset lr, -4
	.cfi_offset r7, -8
	movs	r1, #14
	@DEBUG_VALUE: timer_break_struct_para_init:breakpara <- $r0
.Ltmp114:
	.loc	4 677 32 prologue_end   @ ../Basic/Source/gd32e23x_timer.c:677:32
	bl	__aeabi_memclr
.Ltmp115:
	.loc	4 683 1                 @ ../Basic/Source/gd32e23x_timer.c:683:1
	pop	{r7, pc}
.Ltmp116:
.Lfunc_end32:
	.size	timer_break_struct_para_init, .Lfunc_end32-timer_break_struct_para_init
	.cfi_endproc
	.cantunwind
	.fnend
                                        @ -- End function
	.section	.text.timer_break_config,"ax",%progbits
	.hidden	timer_break_config      @ -- Begin function timer_break_config
	.globl	timer_break_config
	.p2align	1
	.type	timer_break_config,%function
	.code	16                      @ @timer_break_config
	.thumb_func
timer_break_config:
.Lfunc_begin33:
	.loc	4 700 0                 @ ../Basic/Source/gd32e23x_timer.c:700:0
	.fnstart
	.cfi_startproc
@ %bb.0:
	@DEBUG_VALUE: timer_break_config:timer_periph <- $r0
	@DEBUG_VALUE: timer_break_config:timer_periph <- $r0
	@DEBUG_VALUE: timer_break_config:breakpara <- $r1
	@DEBUG_VALUE: timer_break_config:breakpara <- $r1
	.loc	4 701 66 prologue_end   @ ../Basic/Source/gd32e23x_timer.c:701:66
	ldrh	r2, [r1]
	.loc	4 702 66                @ ../Basic/Source/gd32e23x_timer.c:702:66
	ldrh	r3, [r1, #2]
	.loc	4 701 79                @ ../Basic/Source/gd32e23x_timer.c:701:79
	orrs	r3, r2
	.loc	4 703 66                @ ../Basic/Source/gd32e23x_timer.c:703:66
	ldrh	r2, [r1, #4]
	.loc	4 702 80                @ ../Basic/Source/gd32e23x_timer.c:702:80
	orrs	r2, r3
	.loc	4 704 66                @ ../Basic/Source/gd32e23x_timer.c:704:66
	ldrh	r3, [r1, #6]
	.loc	4 703 76                @ ../Basic/Source/gd32e23x_timer.c:703:76
	orrs	r3, r2
	.loc	4 705 66                @ ../Basic/Source/gd32e23x_timer.c:705:66
	ldrh	r2, [r1, #8]
	.loc	4 704 81                @ ../Basic/Source/gd32e23x_timer.c:704:81
	orrs	r2, r3
	.loc	4 706 66                @ ../Basic/Source/gd32e23x_timer.c:706:66
	ldrh	r3, [r1, #10]
	.loc	4 705 84                @ ../Basic/Source/gd32e23x_timer.c:705:84
	orrs	r3, r2
	.loc	4 707 66                @ ../Basic/Source/gd32e23x_timer.c:707:66
	ldrh	r1, [r1, #12]
.Ltmp117:
	.loc	4 706 79                @ ../Basic/Source/gd32e23x_timer.c:706:79
	orrs	r1, r3
	.loc	4 701 30                @ ../Basic/Source/gd32e23x_timer.c:701:30
	str	r1, [r0, #68]
	.loc	4 708 1                 @ ../Basic/Source/gd32e23x_timer.c:708:1
	bx	lr
.Ltmp118:
.Lfunc_end33:
	.size	timer_break_config, .Lfunc_end33-timer_break_config
	.cfi_endproc
	.cantunwind
	.fnend
                                        @ -- End function
	.section	.text.timer_break_enable,"ax",%progbits
	.hidden	timer_break_enable      @ -- Begin function timer_break_enable
	.globl	timer_break_enable
	.p2align	1
	.type	timer_break_enable,%function
	.code	16                      @ @timer_break_enable
	.thumb_func
timer_break_enable:
.Lfunc_begin34:
	.loc	4 717 0                 @ ../Basic/Source/gd32e23x_timer.c:717:0
	.fnstart
	.cfi_startproc
@ %bb.0:
	@DEBUG_VALUE: timer_break_enable:timer_periph <- $r0
	@DEBUG_VALUE: timer_break_enable:timer_periph <- $r0
	.loc	4 718 30 prologue_end   @ ../Basic/Source/gd32e23x_timer.c:718:30
	ldr	r1, [r0, #68]
	movw	r2, #4096
	orrs	r2, r1
	str	r2, [r0, #68]
	.loc	4 719 1                 @ ../Basic/Source/gd32e23x_timer.c:719:1
	bx	lr
.Ltmp119:
.Lfunc_end34:
	.size	timer_break_enable, .Lfunc_end34-timer_break_enable
	.cfi_endproc
	.cantunwind
	.fnend
                                        @ -- End function
	.section	.text.timer_break_disable,"ax",%progbits
	.hidden	timer_break_disable     @ -- Begin function timer_break_disable
	.globl	timer_break_disable
	.p2align	1
	.type	timer_break_disable,%function
	.code	16                      @ @timer_break_disable
	.thumb_func
timer_break_disable:
.Lfunc_begin35:
	.loc	4 728 0                 @ ../Basic/Source/gd32e23x_timer.c:728:0
	.fnstart
	.cfi_startproc
@ %bb.0:
	@DEBUG_VALUE: timer_break_disable:timer_periph <- $r0
	@DEBUG_VALUE: timer_break_disable:timer_periph <- $r0
	.loc	4 729 30 prologue_end   @ ../Basic/Source/gd32e23x_timer.c:729:30
	ldr	r1, [r0, #68]
	movw	r2, #4096
	bics	r1, r2
	str	r1, [r0, #68]
	.loc	4 730 1                 @ ../Basic/Source/gd32e23x_timer.c:730:1
	bx	lr
.Ltmp120:
.Lfunc_end35:
	.size	timer_break_disable, .Lfunc_end35-timer_break_disable
	.cfi_endproc
	.cantunwind
	.fnend
                                        @ -- End function
	.section	.text.timer_automatic_output_enable,"ax",%progbits
	.hidden	timer_automatic_output_enable @ -- Begin function timer_automatic_output_enable
	.globl	timer_automatic_output_enable
	.p2align	1
	.type	timer_automatic_output_enable,%function
	.code	16                      @ @timer_automatic_output_enable
	.thumb_func
timer_automatic_output_enable:
.Lfunc_begin36:
	.loc	4 739 0                 @ ../Basic/Source/gd32e23x_timer.c:739:0
	.fnstart
	.cfi_startproc
@ %bb.0:
	@DEBUG_VALUE: timer_automatic_output_enable:timer_periph <- $r0
	@DEBUG_VALUE: timer_automatic_output_enable:timer_periph <- $r0
	.loc	4 740 30 prologue_end   @ ../Basic/Source/gd32e23x_timer.c:740:30
	ldr	r1, [r0, #68]
	movw	r2, #16384
	orrs	r2, r1
	str	r2, [r0, #68]
	.loc	4 741 1                 @ ../Basic/Source/gd32e23x_timer.c:741:1
	bx	lr
.Ltmp121:
.Lfunc_end36:
	.size	timer_automatic_output_enable, .Lfunc_end36-timer_automatic_output_enable
	.cfi_endproc
	.cantunwind
	.fnend
                                        @ -- End function
	.section	.text.timer_automatic_output_disable,"ax",%progbits
	.hidden	timer_automatic_output_disable @ -- Begin function timer_automatic_output_disable
	.globl	timer_automatic_output_disable
	.p2align	1
	.type	timer_automatic_output_disable,%function
	.code	16                      @ @timer_automatic_output_disable
	.thumb_func
timer_automatic_output_disable:
.Lfunc_begin37:
	.loc	4 750 0                 @ ../Basic/Source/gd32e23x_timer.c:750:0
	.fnstart
	.cfi_startproc
@ %bb.0:
	@DEBUG_VALUE: timer_automatic_output_disable:timer_periph <- $r0
	@DEBUG_VALUE: timer_automatic_output_disable:timer_periph <- $r0
	.loc	4 751 30 prologue_end   @ ../Basic/Source/gd32e23x_timer.c:751:30
	ldr	r1, [r0, #68]
	movw	r2, #16384
	bics	r1, r2
	str	r1, [r0, #68]
	.loc	4 752 1                 @ ../Basic/Source/gd32e23x_timer.c:752:1
	bx	lr
.Ltmp122:
.Lfunc_end37:
	.size	timer_automatic_output_disable, .Lfunc_end37-timer_automatic_output_disable
	.cfi_endproc
	.cantunwind
	.fnend
                                        @ -- End function
	.section	.text.timer_primary_output_config,"ax",%progbits
	.hidden	timer_primary_output_config @ -- Begin function timer_primary_output_config
	.globl	timer_primary_output_config
	.p2align	1
	.type	timer_primary_output_config,%function
	.code	16                      @ @timer_primary_output_config
	.thumb_func
timer_primary_output_config:
.Lfunc_begin38:
	.loc	4 762 0                 @ ../Basic/Source/gd32e23x_timer.c:762:0
	.fnstart
	.cfi_startproc
@ %bb.0:
	@DEBUG_VALUE: timer_primary_output_config:timer_periph <- $r0
	@DEBUG_VALUE: timer_primary_output_config:timer_periph <- $r0
	@DEBUG_VALUE: timer_primary_output_config:newvalue <- $r1
	@DEBUG_VALUE: timer_primary_output_config:newvalue <- $r1
	.loc	4 0 0 prologue_end      @ ../Basic/Source/gd32e23x_timer.c:0:0
	ldr	r2, [r0, #68]
	movw	r3, #32768
.Ltmp123:
	.loc	4 763 8                 @ ../Basic/Source/gd32e23x_timer.c:763:8
	cmp	r1, #1
	beq	.LBB38_2
.Ltmp124:
@ %bb.1:
	@DEBUG_VALUE: timer_primary_output_config:newvalue <- $r1
	@DEBUG_VALUE: timer_primary_output_config:timer_periph <- $r0
	.loc	4 0 8 is_stmt 0         @ ../Basic/Source/gd32e23x_timer.c:0:8
	bics	r2, r3
	b	.LBB38_3
.Ltmp125:
.LBB38_2:
	@DEBUG_VALUE: timer_primary_output_config:newvalue <- $r1
	@DEBUG_VALUE: timer_primary_output_config:timer_periph <- $r0
	orrs	r2, r3
.Ltmp126:
.LBB38_3:
	@DEBUG_VALUE: timer_primary_output_config:newvalue <- $r1
	@DEBUG_VALUE: timer_primary_output_config:timer_periph <- $r0
	str	r2, [r0, #68]
.Ltmp127:
	.loc	4 768 1 is_stmt 1       @ ../Basic/Source/gd32e23x_timer.c:768:1
	bx	lr
.Ltmp128:
.Lfunc_end38:
	.size	timer_primary_output_config, .Lfunc_end38-timer_primary_output_config
	.cfi_endproc
	.cantunwind
	.fnend
                                        @ -- End function
	.section	.text.timer_channel_control_shadow_config,"ax",%progbits
	.hidden	timer_channel_control_shadow_config @ -- Begin function timer_channel_control_shadow_config
	.globl	timer_channel_control_shadow_config
	.p2align	1
	.type	timer_channel_control_shadow_config,%function
	.code	16                      @ @timer_channel_control_shadow_config
	.thumb_func
timer_channel_control_shadow_config:
.Lfunc_begin39:
	.loc	4 778 0                 @ ../Basic/Source/gd32e23x_timer.c:778:0
	.fnstart
	.cfi_startproc
@ %bb.0:
	@DEBUG_VALUE: timer_channel_control_shadow_config:timer_periph <- $r0
	@DEBUG_VALUE: timer_channel_control_shadow_config:timer_periph <- $r0
	@DEBUG_VALUE: timer_channel_control_shadow_config:newvalue <- $r1
	@DEBUG_VALUE: timer_channel_control_shadow_config:newvalue <- $r1
	.loc	4 0 0 prologue_end      @ ../Basic/Source/gd32e23x_timer.c:0:0
	ldr	r2, [r0, #4]
	movs	r3, #1
.Ltmp129:
	.loc	4 779 9                 @ ../Basic/Source/gd32e23x_timer.c:779:9
	cmp	r1, #1
	beq	.LBB39_2
.Ltmp130:
@ %bb.1:
	@DEBUG_VALUE: timer_channel_control_shadow_config:newvalue <- $r1
	@DEBUG_VALUE: timer_channel_control_shadow_config:timer_periph <- $r0
	.loc	4 0 9 is_stmt 0         @ ../Basic/Source/gd32e23x_timer.c:0:9
	bics	r2, r3
	b	.LBB39_3
.Ltmp131:
.LBB39_2:
	@DEBUG_VALUE: timer_channel_control_shadow_config:newvalue <- $r1
	@DEBUG_VALUE: timer_channel_control_shadow_config:timer_periph <- $r0
	orrs	r2, r3
.Ltmp132:
.LBB39_3:
	@DEBUG_VALUE: timer_channel_control_shadow_config:newvalue <- $r1
	@DEBUG_VALUE: timer_channel_control_shadow_config:timer_periph <- $r0
	str	r2, [r0, #4]
.Ltmp133:
	.loc	4 784 1 is_stmt 1       @ ../Basic/Source/gd32e23x_timer.c:784:1
	bx	lr
.Ltmp134:
.Lfunc_end39:
	.size	timer_channel_control_shadow_config, .Lfunc_end39-timer_channel_control_shadow_config
	.cfi_endproc
	.cantunwind
	.fnend
                                        @ -- End function
	.section	.text.timer_channel_control_shadow_update_config,"ax",%progbits
	.hidden	timer_channel_control_shadow_update_config @ -- Begin function timer_channel_control_shadow_update_config
	.globl	timer_channel_control_shadow_update_config
	.p2align	1
	.type	timer_channel_control_shadow_update_config,%function
	.code	16                      @ @timer_channel_control_shadow_update_config
	.thumb_func
timer_channel_control_shadow_update_config:
.Lfunc_begin40:
	.loc	4 797 0                 @ ../Basic/Source/gd32e23x_timer.c:797:0
	.fnstart
	.cfi_startproc
@ %bb.0:
	@DEBUG_VALUE: timer_channel_control_shadow_update_config:timer_periph <- $r0
	@DEBUG_VALUE: timer_channel_control_shadow_update_config:timer_periph <- $r0
	@DEBUG_VALUE: timer_channel_control_shadow_update_config:ccuctl <- $r1
	@DEBUG_VALUE: timer_channel_control_shadow_update_config:ccuctl <- $r1
	.loc	4 798 8 prologue_end    @ ../Basic/Source/gd32e23x_timer.c:798:8
	cmp	r1, #4
	beq	.LBB40_3
.Ltmp135:
@ %bb.1:
	@DEBUG_VALUE: timer_channel_control_shadow_update_config:ccuctl <- $r1
	@DEBUG_VALUE: timer_channel_control_shadow_update_config:timer_periph <- $r0
	cbnz	r1, .LBB40_4
.Ltmp136:
@ %bb.2:
	@DEBUG_VALUE: timer_channel_control_shadow_update_config:ccuctl <- $r1
	@DEBUG_VALUE: timer_channel_control_shadow_update_config:timer_periph <- $r0
	.loc	4 799 34                @ ../Basic/Source/gd32e23x_timer.c:799:34
	ldr	r1, [r0, #4]
.Ltmp137:
	.loc	4 0 34 is_stmt 0        @ ../Basic/Source/gd32e23x_timer.c:0:34
	movs	r2, #4
	.loc	4 799 34                @ ../Basic/Source/gd32e23x_timer.c:799:34
	bics	r1, r2
	str	r1, [r0, #4]
.Ltmp138:
	.loc	4 805 1 is_stmt 1       @ ../Basic/Source/gd32e23x_timer.c:805:1
	bx	lr
.Ltmp139:
.LBB40_3:
	@DEBUG_VALUE: timer_channel_control_shadow_update_config:ccuctl <- $r1
	@DEBUG_VALUE: timer_channel_control_shadow_update_config:timer_periph <- $r0
	.loc	4 801 34                @ ../Basic/Source/gd32e23x_timer.c:801:34
	ldr	r1, [r0, #4]
.Ltmp140:
	.loc	4 0 34 is_stmt 0        @ ../Basic/Source/gd32e23x_timer.c:0:34
	movs	r2, #4
	.loc	4 801 34                @ ../Basic/Source/gd32e23x_timer.c:801:34
	orrs	r2, r1
	str	r2, [r0, #4]
.Ltmp141:
.LBB40_4:
	@DEBUG_VALUE: timer_channel_control_shadow_update_config:timer_periph <- $r0
	.loc	4 805 1 is_stmt 1       @ ../Basic/Source/gd32e23x_timer.c:805:1
	bx	lr
.Ltmp142:
.Lfunc_end40:
	.size	timer_channel_control_shadow_update_config, .Lfunc_end40-timer_channel_control_shadow_update_config
	.cfi_endproc
	.cantunwind
	.fnend
                                        @ -- End function
	.section	.text.timer_channel_output_struct_para_init,"ax",%progbits
	.hidden	timer_channel_output_struct_para_init @ -- Begin function timer_channel_output_struct_para_init
	.globl	timer_channel_output_struct_para_init
	.p2align	1
	.type	timer_channel_output_struct_para_init,%function
	.code	16                      @ @timer_channel_output_struct_para_init
	.thumb_func
timer_channel_output_struct_para_init:
.Lfunc_begin41:
	.loc	4 814 0                 @ ../Basic/Source/gd32e23x_timer.c:814:0
	.fnstart
	.cfi_startproc
@ %bb.0:
	@DEBUG_VALUE: timer_channel_output_struct_para_init:ocpara <- $r0
	@DEBUG_VALUE: timer_channel_output_struct_para_init:ocpara <- $r0
	.save	{r7, lr}
	push	{r7, lr}
	.cfi_def_cfa_offset 8
	.cfi_offset lr, -4
	.cfi_offset r7, -8
	movs	r1, #12
	@DEBUG_VALUE: timer_channel_output_struct_para_init:ocpara <- $r0
.Ltmp143:
	.loc	4 817 26 prologue_end   @ ../Basic/Source/gd32e23x_timer.c:817:26
	bl	__aeabi_memclr
.Ltmp144:
	.loc	4 822 1                 @ ../Basic/Source/gd32e23x_timer.c:822:1
	pop	{r7, pc}
.Ltmp145:
.Lfunc_end41:
	.size	timer_channel_output_struct_para_init, .Lfunc_end41-timer_channel_output_struct_para_init
	.cfi_endproc
	.cantunwind
	.fnend
                                        @ -- End function
	.section	.text.timer_channel_output_config,"ax",%progbits
	.hidden	timer_channel_output_config @ -- Begin function timer_channel_output_config
	.globl	timer_channel_output_config
	.p2align	2
	.type	timer_channel_output_config,%function
	.code	16                      @ @timer_channel_output_config
	.thumb_func
timer_channel_output_config:
.Lfunc_begin42:
	.loc	4 844 0                 @ ../Basic/Source/gd32e23x_timer.c:844:0
	.fnstart
	.cfi_startproc
@ %bb.0:
	@DEBUG_VALUE: timer_channel_output_config:timer_periph <- $r0
	@DEBUG_VALUE: timer_channel_output_config:timer_periph <- $r0
	@DEBUG_VALUE: timer_channel_output_config:channel <- $r1
	@DEBUG_VALUE: timer_channel_output_config:channel <- $r1
	@DEBUG_VALUE: timer_channel_output_config:ocpara <- $r2
	@DEBUG_VALUE: timer_channel_output_config:ocpara <- $r2
	.save	{r4, lr}
	push	{r4, lr}
	.cfi_def_cfa_offset 8
	.cfi_offset lr, -4
	.cfi_offset r4, -8
.Ltmp146:
	.loc	4 845 5 prologue_end    @ ../Basic/Source/gd32e23x_timer.c:845:5
	cmp	r1, #3
	bls	.LBB42_1
	b	.LBB42_14
.Ltmp147:
.LBB42_1:
	@DEBUG_VALUE: timer_channel_output_config:ocpara <- $r2
	@DEBUG_VALUE: timer_channel_output_config:channel <- $r1
	@DEBUG_VALUE: timer_channel_output_config:timer_periph <- $r0
	.loc	4 0 5 is_stmt 0         @ ../Basic/Source/gd32e23x_timer.c:0:5
	lsls	r3, r1, #2
	adr	r4, .LJTI42_0
	adds	r3, r4, r3
	mov	pc, r3
.Ltmp148:
@ %bb.2:
	.p2align	2
.LJTI42_0:
	b.w	.LBB42_3
	b.w	.LBB42_8
	b.w	.LBB42_6
	b.w	.LBB42_11
.LBB42_3:
.Ltmp149:
	@DEBUG_VALUE: timer_channel_output_config:ocpara <- $r2
	@DEBUG_VALUE: timer_channel_output_config:channel <- $r1
	@DEBUG_VALUE: timer_channel_output_config:timer_periph <- $r0
	.loc	4 849 36 is_stmt 1      @ ../Basic/Source/gd32e23x_timer.c:849:36
	ldr	r3, [r0, #32]
	movs	r1, #1
.Ltmp150:
	bics	r3, r1
	str	r3, [r0, #32]
	.loc	4 850 36                @ ../Basic/Source/gd32e23x_timer.c:850:36
	ldr	r3, [r0, #24]
	movs	r4, #3
	bics	r3, r4
	str	r3, [r0, #24]
	.loc	4 852 57                @ ../Basic/Source/gd32e23x_timer.c:852:57
	ldrh	r3, [r2]
	.loc	4 852 36 is_stmt 0      @ ../Basic/Source/gd32e23x_timer.c:852:36
	ldr	r4, [r0, #32]
	orrs	r4, r3
	str	r4, [r0, #32]
	.loc	4 854 36 is_stmt 1      @ ../Basic/Source/gd32e23x_timer.c:854:36
	ldr	r3, [r0, #32]
	movs	r4, #2
	bics	r3, r4
	str	r3, [r0, #32]
	.loc	4 856 57                @ ../Basic/Source/gd32e23x_timer.c:856:57
	ldrh	r3, [r2, #4]
	.loc	4 856 36 is_stmt 0      @ ../Basic/Source/gd32e23x_timer.c:856:36
	ldr	r4, [r0, #32]
	orrs	r4, r3
	str	r4, [r0, #32]
	ldr	r3, __arm_cp.42_4
.Ltmp151:
	.loc	4 858 37 is_stmt 1      @ ../Basic/Source/gd32e23x_timer.c:858:37
	adds	r3, r0, r3
	movs	r4, #10
	rors	r3, r4
	cmp	r3, #7
	bls	.LBB42_4
	b	.LBB42_14
.Ltmp152:
.LBB42_4:
	@DEBUG_VALUE: timer_channel_output_config:ocpara <- $r2
	@DEBUG_VALUE: timer_channel_output_config:timer_periph <- $r0
	.loc	4 0 37 is_stmt 0        @ ../Basic/Source/gd32e23x_timer.c:0:37
	lsls	r1, r3
	movs	r3, #225
	tst	r1, r3
	bne	.LBB42_5
	b	.LBB42_14
.Ltmp153:
.LBB42_5:
	@DEBUG_VALUE: timer_channel_output_config:ocpara <- $r2
	@DEBUG_VALUE: timer_channel_output_config:timer_periph <- $r0
	.loc	4 860 40 is_stmt 1      @ ../Basic/Source/gd32e23x_timer.c:860:40
	ldr	r1, [r0, #32]
	movs	r3, #4
	bics	r1, r3
	str	r1, [r0, #32]
	.loc	4 862 61                @ ../Basic/Source/gd32e23x_timer.c:862:61
	ldrh	r1, [r2, #2]
	.loc	4 862 40 is_stmt 0      @ ../Basic/Source/gd32e23x_timer.c:862:40
	ldr	r3, [r0, #32]
	orrs	r3, r1
	str	r3, [r0, #32]
	.loc	4 864 40 is_stmt 1      @ ../Basic/Source/gd32e23x_timer.c:864:40
	ldr	r1, [r0, #32]
	movs	r3, #8
	bics	r1, r3
	str	r1, [r0, #32]
	.loc	4 866 61                @ ../Basic/Source/gd32e23x_timer.c:866:61
	ldrh	r1, [r2, #6]
	.loc	4 866 40 is_stmt 0      @ ../Basic/Source/gd32e23x_timer.c:866:40
	ldr	r3, [r0, #32]
	orrs	r3, r1
	str	r3, [r0, #32]
	.loc	4 868 38 is_stmt 1      @ ../Basic/Source/gd32e23x_timer.c:868:38
	ldr	r1, [r0, #4]
	movw	r3, #256
	bics	r1, r3
	str	r1, [r0, #4]
	.loc	4 870 59                @ ../Basic/Source/gd32e23x_timer.c:870:59
	ldrh	r1, [r2, #8]
	.loc	4 870 38 is_stmt 0      @ ../Basic/Source/gd32e23x_timer.c:870:38
	ldr	r3, [r0, #4]
	orrs	r3, r1
	str	r3, [r0, #4]
	.loc	4 872 38 is_stmt 1      @ ../Basic/Source/gd32e23x_timer.c:872:38
	ldr	r1, [r0, #4]
	movw	r3, #512
	bics	r1, r3
	str	r1, [r0, #4]
	.loc	4 874 59                @ ../Basic/Source/gd32e23x_timer.c:874:59
	ldrh	r1, [r2, #10]
	.loc	4 874 38 is_stmt 0      @ ../Basic/Source/gd32e23x_timer.c:874:38
	ldr	r2, [r0, #4]
.Ltmp154:
	orrs	r2, r1
	str	r2, [r0, #4]
.Ltmp155:
	.loc	4 969 1 is_stmt 1       @ ../Basic/Source/gd32e23x_timer.c:969:1
	pop	{r4, pc}
.Ltmp156:
.LBB42_6:
	@DEBUG_VALUE: timer_channel_output_config:ocpara <- $r2
	@DEBUG_VALUE: timer_channel_output_config:channel <- $r1
	@DEBUG_VALUE: timer_channel_output_config:timer_periph <- $r0
	.loc	4 919 36                @ ../Basic/Source/gd32e23x_timer.c:919:36
	ldr	r1, [r0, #32]
.Ltmp157:
	.loc	4 0 36 is_stmt 0        @ ../Basic/Source/gd32e23x_timer.c:0:36
	movw	r3, #256
	.loc	4 919 36                @ ../Basic/Source/gd32e23x_timer.c:919:36
	bics	r1, r3
	str	r1, [r0, #32]
	movs	r1, #3
	mvns	r1, r1
	.loc	4 920 36 is_stmt 1      @ ../Basic/Source/gd32e23x_timer.c:920:36
	ldr	r3, [r0, #28]
	ands	r3, r1
	str	r3, [r0, #28]
	.loc	4 922 68                @ ../Basic/Source/gd32e23x_timer.c:922:68
	ldrh	r1, [r2]
	.loc	4 922 80 is_stmt 0      @ ../Basic/Source/gd32e23x_timer.c:922:80
	lsls	r1, r1, #8
	.loc	4 922 36                @ ../Basic/Source/gd32e23x_timer.c:922:36
	ldr	r3, [r0, #32]
	orrs	r3, r1
	str	r3, [r0, #32]
	.loc	4 924 36 is_stmt 1      @ ../Basic/Source/gd32e23x_timer.c:924:36
	ldr	r1, [r0, #32]
	movw	r3, #512
	bics	r1, r3
	str	r1, [r0, #32]
	.loc	4 926 69                @ ../Basic/Source/gd32e23x_timer.c:926:69
	ldrh	r1, [r2, #4]
	.loc	4 926 81 is_stmt 0      @ ../Basic/Source/gd32e23x_timer.c:926:81
	lsls	r1, r1, #8
	.loc	4 926 36                @ ../Basic/Source/gd32e23x_timer.c:926:36
	ldr	r3, [r0, #32]
	orrs	r3, r1
	str	r3, [r0, #32]
	ldr	r1, __arm_cp.42_0
.Ltmp158:
	.loc	4 928 19 is_stmt 1      @ ../Basic/Source/gd32e23x_timer.c:928:19
	subs	r3, r1, #4
.Ltmp159:
	.loc	4 928 12 is_stmt 0      @ ../Basic/Source/gd32e23x_timer.c:928:12
	cmp	r0, r3
	beq	.LBB42_7
	b	.LBB42_14
.Ltmp160:
.LBB42_7:
	@DEBUG_VALUE: timer_channel_output_config:ocpara <- $r2
	@DEBUG_VALUE: timer_channel_output_config:timer_periph <- $r0
	.loc	4 930 40 is_stmt 1      @ ../Basic/Source/gd32e23x_timer.c:930:40
	ldr	r3, [r0, #32]
	movw	r4, #1024
	bics	r3, r4
	str	r3, [r0, #32]
	.loc	4 932 73                @ ../Basic/Source/gd32e23x_timer.c:932:73
	ldrh	r3, [r2, #2]
	.loc	4 932 87 is_stmt 0      @ ../Basic/Source/gd32e23x_timer.c:932:87
	lsls	r3, r3, #8
	.loc	4 932 40                @ ../Basic/Source/gd32e23x_timer.c:932:40
	ldr	r4, [r0, #32]
	orrs	r4, r3
	str	r4, [r0, #32]
	.loc	4 934 40 is_stmt 1      @ ../Basic/Source/gd32e23x_timer.c:934:40
	ldr	r3, [r0, #32]
	movw	r4, #2048
	bics	r3, r4
	str	r3, [r0, #32]
	.loc	4 936 73                @ ../Basic/Source/gd32e23x_timer.c:936:73
	ldrh	r3, [r2, #6]
	.loc	4 936 86 is_stmt 0      @ ../Basic/Source/gd32e23x_timer.c:936:86
	lsls	r3, r3, #8
	.loc	4 936 40                @ ../Basic/Source/gd32e23x_timer.c:936:40
	ldr	r4, [r0, #32]
	orrs	r4, r3
	str	r4, [r0, #32]
	.loc	4 938 38 is_stmt 1      @ ../Basic/Source/gd32e23x_timer.c:938:38
	ldr	r0, [r1]
.Ltmp161:
	.loc	4 0 38 is_stmt 0        @ ../Basic/Source/gd32e23x_timer.c:0:38
	movw	r3, #4096
	.loc	4 938 38                @ ../Basic/Source/gd32e23x_timer.c:938:38
	bics	r0, r3
	str	r0, [r1]
	.loc	4 940 71 is_stmt 1      @ ../Basic/Source/gd32e23x_timer.c:940:71
	ldrh	r0, [r2, #8]
	.loc	4 940 84 is_stmt 0      @ ../Basic/Source/gd32e23x_timer.c:940:84
	lsls	r0, r0, #4
	.loc	4 940 38                @ ../Basic/Source/gd32e23x_timer.c:940:38
	ldr	r3, [r1]
	orrs	r3, r0
	str	r3, [r1]
	.loc	4 942 38 is_stmt 1      @ ../Basic/Source/gd32e23x_timer.c:942:38
	ldr	r0, [r1]
	movw	r3, #8192
	bics	r0, r3
	str	r0, [r1]
	.loc	4 944 71                @ ../Basic/Source/gd32e23x_timer.c:944:71
	ldrh	r0, [r2, #10]
	.loc	4 944 85 is_stmt 0      @ ../Basic/Source/gd32e23x_timer.c:944:85
	lsls	r0, r0, #4
	b	.LBB42_13
.Ltmp162:
.LBB42_8:
	@DEBUG_VALUE: timer_channel_output_config:ocpara <- $r2
	@DEBUG_VALUE: timer_channel_output_config:channel <- $r1
	@DEBUG_VALUE: timer_channel_output_config:timer_periph <- $r0
	.loc	4 880 36 is_stmt 1      @ ../Basic/Source/gd32e23x_timer.c:880:36
	ldr	r1, [r0, #32]
.Ltmp163:
	.loc	4 0 36 is_stmt 0        @ ../Basic/Source/gd32e23x_timer.c:0:36
	movs	r3, #16
	.loc	4 880 36                @ ../Basic/Source/gd32e23x_timer.c:880:36
	bics	r1, r3
	str	r1, [r0, #32]
	.loc	4 881 36 is_stmt 1      @ ../Basic/Source/gd32e23x_timer.c:881:36
	ldr	r1, [r0, #24]
	movw	r3, #768
	bics	r1, r3
	str	r1, [r0, #24]
	.loc	4 883 68                @ ../Basic/Source/gd32e23x_timer.c:883:68
	ldrh	r1, [r2]
	.loc	4 883 80 is_stmt 0      @ ../Basic/Source/gd32e23x_timer.c:883:80
	lsls	r1, r1, #4
	.loc	4 883 36                @ ../Basic/Source/gd32e23x_timer.c:883:36
	ldr	r3, [r0, #32]
	orrs	r3, r1
	str	r3, [r0, #32]
	.loc	4 885 36 is_stmt 1      @ ../Basic/Source/gd32e23x_timer.c:885:36
	ldr	r1, [r0, #32]
	movs	r3, #32
	bics	r1, r3
	str	r1, [r0, #32]
	.loc	4 887 69                @ ../Basic/Source/gd32e23x_timer.c:887:69
	ldrh	r1, [r2, #4]
	.loc	4 887 81 is_stmt 0      @ ../Basic/Source/gd32e23x_timer.c:887:81
	lsls	r1, r1, #4
	.loc	4 887 36                @ ../Basic/Source/gd32e23x_timer.c:887:36
	ldr	r3, [r0, #32]
	orrs	r3, r1
	str	r3, [r0, #32]
	ldr	r1, __arm_cp.42_1
	.loc	4 889 12 is_stmt 1      @ ../Basic/Source/gd32e23x_timer.c:889:12
	cmp	r0, r1
	beq	.LBB42_15
.Ltmp164:
@ %bb.9:
	@DEBUG_VALUE: timer_channel_output_config:ocpara <- $r2
	@DEBUG_VALUE: timer_channel_output_config:timer_periph <- $r0
	.loc	4 0 12 is_stmt 0        @ ../Basic/Source/gd32e23x_timer.c:0:12
	ldr	r1, __arm_cp.42_2
	.loc	4 889 12                @ ../Basic/Source/gd32e23x_timer.c:889:12
	cmp	r0, r1
	bne	.LBB42_14
.Ltmp165:
@ %bb.10:
	@DEBUG_VALUE: timer_channel_output_config:ocpara <- $r2
	@DEBUG_VALUE: timer_channel_output_config:timer_periph <- $r0
	.loc	4 891 40 is_stmt 1      @ ../Basic/Source/gd32e23x_timer.c:891:40
	ldr	r1, [r0, #32]
	movs	r3, #64
	bics	r1, r3
	str	r1, [r0, #32]
	.loc	4 893 73                @ ../Basic/Source/gd32e23x_timer.c:893:73
	ldrh	r1, [r2, #2]
	.loc	4 893 87 is_stmt 0      @ ../Basic/Source/gd32e23x_timer.c:893:87
	lsls	r1, r1, #4
	.loc	4 893 40                @ ../Basic/Source/gd32e23x_timer.c:893:40
	ldr	r3, [r0, #32]
	orrs	r3, r1
	str	r3, [r0, #32]
	.loc	4 895 40 is_stmt 1      @ ../Basic/Source/gd32e23x_timer.c:895:40
	ldr	r1, [r0, #32]
	movs	r3, #128
	bics	r1, r3
	str	r1, [r0, #32]
	.loc	4 897 73                @ ../Basic/Source/gd32e23x_timer.c:897:73
	ldrh	r1, [r2, #6]
	.loc	4 897 86 is_stmt 0      @ ../Basic/Source/gd32e23x_timer.c:897:86
	lsls	r1, r1, #4
	.loc	4 897 40                @ ../Basic/Source/gd32e23x_timer.c:897:40
	ldr	r3, [r0, #32]
	orrs	r3, r1
	str	r3, [r0, #32]
	ldr	r0, __arm_cp.42_0
.Ltmp166:
	.loc	4 899 38 is_stmt 1      @ ../Basic/Source/gd32e23x_timer.c:899:38
	ldr	r1, [r0]
	movw	r3, #1024
	bics	r1, r3
	str	r1, [r0]
	.loc	4 901 71                @ ../Basic/Source/gd32e23x_timer.c:901:71
	ldrh	r1, [r2, #8]
	.loc	4 901 84 is_stmt 0      @ ../Basic/Source/gd32e23x_timer.c:901:84
	lsls	r1, r1, #2
	.loc	4 901 38                @ ../Basic/Source/gd32e23x_timer.c:901:38
	ldr	r3, [r0]
	orrs	r3, r1
	str	r3, [r0]
	.loc	4 903 38 is_stmt 1      @ ../Basic/Source/gd32e23x_timer.c:903:38
	ldr	r1, [r0]
	movw	r3, #2048
	bics	r1, r3
	str	r1, [r0]
	.loc	4 905 71                @ ../Basic/Source/gd32e23x_timer.c:905:71
	ldrh	r1, [r2, #10]
	b	.LBB42_16
.Ltmp167:
.LBB42_11:
	@DEBUG_VALUE: timer_channel_output_config:ocpara <- $r2
	@DEBUG_VALUE: timer_channel_output_config:channel <- $r1
	@DEBUG_VALUE: timer_channel_output_config:timer_periph <- $r0
	.loc	4 950 36                @ ../Basic/Source/gd32e23x_timer.c:950:36
	ldr	r1, [r0, #32]
.Ltmp168:
	.loc	4 0 36 is_stmt 0        @ ../Basic/Source/gd32e23x_timer.c:0:36
	movw	r3, #4096
	.loc	4 950 36                @ ../Basic/Source/gd32e23x_timer.c:950:36
	bics	r1, r3
	str	r1, [r0, #32]
	.loc	4 951 36 is_stmt 1      @ ../Basic/Source/gd32e23x_timer.c:951:36
	ldr	r1, [r0, #28]
	movw	r3, #768
	bics	r1, r3
	str	r1, [r0, #28]
	.loc	4 953 68                @ ../Basic/Source/gd32e23x_timer.c:953:68
	ldrh	r1, [r2]
	.loc	4 953 80 is_stmt 0      @ ../Basic/Source/gd32e23x_timer.c:953:80
	lsls	r1, r1, #12
	.loc	4 953 36                @ ../Basic/Source/gd32e23x_timer.c:953:36
	ldr	r3, [r0, #32]
	orrs	r3, r1
	str	r3, [r0, #32]
	.loc	4 955 36 is_stmt 1      @ ../Basic/Source/gd32e23x_timer.c:955:36
	ldr	r1, [r0, #32]
	movw	r3, #8192
	bics	r1, r3
	str	r1, [r0, #32]
	.loc	4 957 69                @ ../Basic/Source/gd32e23x_timer.c:957:69
	ldrh	r1, [r2, #4]
	.loc	4 957 81 is_stmt 0      @ ../Basic/Source/gd32e23x_timer.c:957:81
	lsls	r1, r1, #12
	.loc	4 957 36                @ ../Basic/Source/gd32e23x_timer.c:957:36
	ldr	r3, [r0, #32]
	orrs	r3, r1
	str	r3, [r0, #32]
	ldr	r1, __arm_cp.42_0
.Ltmp169:
	.loc	4 959 19 is_stmt 1      @ ../Basic/Source/gd32e23x_timer.c:959:19
	subs	r3, r1, #4
.Ltmp170:
	.loc	4 959 12 is_stmt 0      @ ../Basic/Source/gd32e23x_timer.c:959:12
	cmp	r0, r3
	bne	.LBB42_14
.Ltmp171:
@ %bb.12:
	@DEBUG_VALUE: timer_channel_output_config:ocpara <- $r2
	@DEBUG_VALUE: timer_channel_output_config:timer_periph <- $r0
	.loc	4 961 38 is_stmt 1      @ ../Basic/Source/gd32e23x_timer.c:961:38
	ldr	r0, [r1]
.Ltmp172:
	.loc	4 0 38 is_stmt 0        @ ../Basic/Source/gd32e23x_timer.c:0:38
	movw	r3, #16384
	.loc	4 961 38                @ ../Basic/Source/gd32e23x_timer.c:961:38
	bics	r0, r3
	str	r0, [r1]
	.loc	4 963 71 is_stmt 1      @ ../Basic/Source/gd32e23x_timer.c:963:71
	ldrh	r0, [r2, #8]
	.loc	4 963 84 is_stmt 0      @ ../Basic/Source/gd32e23x_timer.c:963:84
	lsls	r0, r0, #6
.Ltmp173:
.LBB42_13:
	@DEBUG_VALUE: timer_channel_output_config:ocpara <- $r2
	.loc	4 0 0                   @ ../Basic/Source/gd32e23x_timer.c:0:0
	ldr	r2, [r1]
.Ltmp174:
	orrs	r2, r0
	str	r2, [r1]
.Ltmp175:
.LBB42_14:
	.loc	4 969 1 is_stmt 1       @ ../Basic/Source/gd32e23x_timer.c:969:1
	pop	{r4, pc}
.LBB42_15:
.Ltmp176:
	@DEBUG_VALUE: timer_channel_output_config:ocpara <- $r2
	@DEBUG_VALUE: timer_channel_output_config:timer_periph <- $r0
	.loc	4 0 1 is_stmt 0         @ ../Basic/Source/gd32e23x_timer.c:0:1
	ldr	r0, __arm_cp.42_3
.Ltmp177:
	.loc	4 910 38 is_stmt 1      @ ../Basic/Source/gd32e23x_timer.c:910:38
	ldr	r1, [r0]
	movw	r3, #1024
	bics	r1, r3
	str	r1, [r0]
	.loc	4 912 71                @ ../Basic/Source/gd32e23x_timer.c:912:71
	ldrh	r1, [r2, #8]
.Ltmp178:
.LBB42_16:
	@DEBUG_VALUE: timer_channel_output_config:ocpara <- $r2
	.loc	4 0 0 is_stmt 0         @ ../Basic/Source/gd32e23x_timer.c:0:0
	lsls	r1, r1, #2
	ldr	r2, [r0]
.Ltmp179:
	orrs	r2, r1
	str	r2, [r0]
.Ltmp180:
	.loc	4 969 1 is_stmt 1       @ ../Basic/Source/gd32e23x_timer.c:969:1
	pop	{r4, pc}
.Ltmp181:
	.p2align	2
@ %bb.17:
	.loc	4 0 1 is_stmt 0         @ ../Basic/Source/gd32e23x_timer.c:0:1
__arm_cp.42_0:
	.long	1073818628              @ 0x40012c04
.Lcpi_end17:
	.size	__arm_cp.42_0, .Lcpi_end17-__arm_cp.42_0
__arm_cp.42_1:
	.long	1073823744              @ 0x40014000
.Lcpi_end18:
	.size	__arm_cp.42_1, .Lcpi_end18-__arm_cp.42_1
__arm_cp.42_2:
	.long	1073818624              @ 0x40012c00
.Lcpi_end19:
	.size	__arm_cp.42_2, .Lcpi_end19-__arm_cp.42_2
__arm_cp.42_3:
	.long	1073823748              @ 0x40014004
.Lcpi_end20:
	.size	__arm_cp.42_3, .Lcpi_end20-__arm_cp.42_3
__arm_cp.42_4:
	.long	3221148672              @ 0xbffed400
.Lcpi_end21:
	.size	__arm_cp.42_4, .Lcpi_end21-__arm_cp.42_4
.Lfunc_end42:
	.size	timer_channel_output_config, .Lfunc_end42-timer_channel_output_config
	.cfi_endproc
	.cantunwind
	.fnend
                                        @ -- End function
	.section	.text.timer_channel_output_mode_config,"ax",%progbits
	.hidden	timer_channel_output_mode_config @ -- Begin function timer_channel_output_mode_config
	.globl	timer_channel_output_mode_config
	.p2align	2
	.type	timer_channel_output_mode_config,%function
	.code	16                      @ @timer_channel_output_mode_config
	.thumb_func
timer_channel_output_mode_config:
.Lfunc_begin43:
	.loc	4 994 0 is_stmt 1       @ ../Basic/Source/gd32e23x_timer.c:994:0
	.fnstart
	.cfi_startproc
@ %bb.0:
	@DEBUG_VALUE: timer_channel_output_mode_config:timer_periph <- $r0
	@DEBUG_VALUE: timer_channel_output_mode_config:timer_periph <- $r0
	@DEBUG_VALUE: timer_channel_output_mode_config:channel <- $r1
	@DEBUG_VALUE: timer_channel_output_mode_config:channel <- $r1
	@DEBUG_VALUE: timer_channel_output_mode_config:ocmode <- $r2
	@DEBUG_VALUE: timer_channel_output_mode_config:ocmode <- $r2
	.save	{r4, lr}
	push	{r4, lr}
	.cfi_def_cfa_offset 8
	.cfi_offset lr, -4
	.cfi_offset r4, -8
.Ltmp182:
	.loc	4 995 5 prologue_end    @ ../Basic/Source/gd32e23x_timer.c:995:5
	cmp	r1, #3
	bhi	.LBB43_10
.Ltmp183:
@ %bb.1:
	@DEBUG_VALUE: timer_channel_output_mode_config:ocmode <- $r2
	@DEBUG_VALUE: timer_channel_output_mode_config:channel <- $r1
	@DEBUG_VALUE: timer_channel_output_mode_config:timer_periph <- $r0
	@DEBUG_VALUE: timer_channel_output_mode_config:ocmode <- $r2
	.loc	4 0 5 is_stmt 0         @ ../Basic/Source/gd32e23x_timer.c:0:5
	lsls	r3, r1, #2
	adr	r4, .LJTI43_0
	adds	r3, r4, r3
	mov	pc, r3
.Ltmp184:
@ %bb.2:
	.p2align	2
.LJTI43_0:
	b.w	.LBB43_3
	b.w	.LBB43_4
	b.w	.LBB43_6
	b.w	.LBB43_7
.LBB43_3:
.Ltmp185:
	@DEBUG_VALUE: timer_channel_output_mode_config:ocmode <- $r2
	@DEBUG_VALUE: timer_channel_output_mode_config:channel <- $r1
	@DEBUG_VALUE: timer_channel_output_mode_config:timer_periph <- $r0
	.loc	4 998 36 is_stmt 1      @ ../Basic/Source/gd32e23x_timer.c:998:36
	ldr	r1, [r0, #24]
.Ltmp186:
	.loc	4 0 36 is_stmt 0        @ ../Basic/Source/gd32e23x_timer.c:0:36
	movs	r3, #112
	.loc	4 998 36                @ ../Basic/Source/gd32e23x_timer.c:998:36
	bics	r1, r3
	str	r1, [r0, #24]
	b	.LBB43_5
.Ltmp187:
.LBB43_4:
	@DEBUG_VALUE: timer_channel_output_mode_config:ocmode <- $r2
	@DEBUG_VALUE: timer_channel_output_mode_config:channel <- $r1
	@DEBUG_VALUE: timer_channel_output_mode_config:timer_periph <- $r0
	.loc	4 1003 36 is_stmt 1     @ ../Basic/Source/gd32e23x_timer.c:1003:36
	ldr	r1, [r0, #24]
.Ltmp188:
	.loc	4 0 36 is_stmt 0        @ ../Basic/Source/gd32e23x_timer.c:0:36
	movw	r3, #28672
	.loc	4 1003 36               @ ../Basic/Source/gd32e23x_timer.c:1003:36
	bics	r1, r3
	str	r1, [r0, #24]
	.loc	4 1004 69 is_stmt 1     @ ../Basic/Source/gd32e23x_timer.c:1004:69
	lsls	r2, r2, #8
.Ltmp189:
.LBB43_5:
	@DEBUG_VALUE: timer_channel_output_mode_config:timer_periph <- $r0
	.loc	4 0 0 is_stmt 0         @ ../Basic/Source/gd32e23x_timer.c:0:0
	adds	r0, #24
.Ltmp190:
	b	.LBB43_9
.LBB43_6:
.Ltmp191:
	@DEBUG_VALUE: timer_channel_output_mode_config:ocmode <- $r2
	@DEBUG_VALUE: timer_channel_output_mode_config:channel <- $r1
	@DEBUG_VALUE: timer_channel_output_mode_config:timer_periph <- $r0
	.loc	4 1008 36 is_stmt 1     @ ../Basic/Source/gd32e23x_timer.c:1008:36
	ldr	r1, [r0, #28]
.Ltmp192:
	.loc	4 0 36 is_stmt 0        @ ../Basic/Source/gd32e23x_timer.c:0:36
	movs	r3, #112
	.loc	4 1008 36               @ ../Basic/Source/gd32e23x_timer.c:1008:36
	bics	r1, r3
	str	r1, [r0, #28]
	b	.LBB43_8
.Ltmp193:
.LBB43_7:
	@DEBUG_VALUE: timer_channel_output_mode_config:ocmode <- $r2
	@DEBUG_VALUE: timer_channel_output_mode_config:channel <- $r1
	@DEBUG_VALUE: timer_channel_output_mode_config:timer_periph <- $r0
	.loc	4 1013 36 is_stmt 1     @ ../Basic/Source/gd32e23x_timer.c:1013:36
	ldr	r1, [r0, #28]
.Ltmp194:
	.loc	4 0 36 is_stmt 0        @ ../Basic/Source/gd32e23x_timer.c:0:36
	movw	r3, #28672
	.loc	4 1013 36               @ ../Basic/Source/gd32e23x_timer.c:1013:36
	bics	r1, r3
	str	r1, [r0, #28]
	.loc	4 1014 69 is_stmt 1     @ ../Basic/Source/gd32e23x_timer.c:1014:69
	lsls	r2, r2, #8
.Ltmp195:
.LBB43_8:
	@DEBUG_VALUE: timer_channel_output_mode_config:timer_periph <- $r0
	.loc	4 0 0 is_stmt 0         @ ../Basic/Source/gd32e23x_timer.c:0:0
	adds	r0, #28
.Ltmp196:
.LBB43_9:
	ldr	r1, [r0]
	orrs	r1, r2
	str	r1, [r0]
.Ltmp197:
.LBB43_10:
	.loc	4 1019 1 is_stmt 1      @ ../Basic/Source/gd32e23x_timer.c:1019:1
	pop	{r4, pc}
.Ltmp198:
.Lfunc_end43:
	.size	timer_channel_output_mode_config, .Lfunc_end43-timer_channel_output_mode_config
	.cfi_endproc
	.cantunwind
	.fnend
                                        @ -- End function
	.section	.text.timer_channel_output_pulse_value_config,"ax",%progbits
	.hidden	timer_channel_output_pulse_value_config @ -- Begin function timer_channel_output_pulse_value_config
	.globl	timer_channel_output_pulse_value_config
	.p2align	1
	.type	timer_channel_output_pulse_value_config,%function
	.code	16                      @ @timer_channel_output_pulse_value_config
	.thumb_func
timer_channel_output_pulse_value_config:
.Lfunc_begin44:
	.loc	4 1035 0                @ ../Basic/Source/gd32e23x_timer.c:1035:0
	.fnstart
	.cfi_startproc
@ %bb.0:
	@DEBUG_VALUE: timer_channel_output_pulse_value_config:timer_periph <- $r0
	@DEBUG_VALUE: timer_channel_output_pulse_value_config:timer_periph <- $r0
	@DEBUG_VALUE: timer_channel_output_pulse_value_config:channel <- $r1
	@DEBUG_VALUE: timer_channel_output_pulse_value_config:channel <- $r1
	@DEBUG_VALUE: timer_channel_output_pulse_value_config:pulse <- $r2
	@DEBUG_VALUE: timer_channel_output_pulse_value_config:pulse <- $r2
	.loc	4 1036 5 prologue_end   @ ../Basic/Source/gd32e23x_timer.c:1036:5
	cmp	r1, #3
	bhi	.LBB44_2
.Ltmp199:
@ %bb.1:
	@DEBUG_VALUE: timer_channel_output_pulse_value_config:pulse <- $r2
	@DEBUG_VALUE: timer_channel_output_pulse_value_config:channel <- $r1
	@DEBUG_VALUE: timer_channel_output_pulse_value_config:timer_periph <- $r0
	lsls	r1, r1, #2
.Ltmp200:
	adds	r0, r1, r0
.Ltmp201:
	.loc	4 0 0 is_stmt 0         @ ../Basic/Source/gd32e23x_timer.c:0:0
	str	r2, [r0, #52]
.Ltmp202:
.LBB44_2:
	@DEBUG_VALUE: timer_channel_output_pulse_value_config:pulse <- $r2
	.loc	4 1056 1 is_stmt 1      @ ../Basic/Source/gd32e23x_timer.c:1056:1
	bx	lr
.Ltmp203:
.Lfunc_end44:
	.size	timer_channel_output_pulse_value_config, .Lfunc_end44-timer_channel_output_pulse_value_config
	.cfi_endproc
	.cantunwind
	.fnend
                                        @ -- End function
	.section	.text.timer_channel_output_shadow_config,"ax",%progbits
	.hidden	timer_channel_output_shadow_config @ -- Begin function timer_channel_output_shadow_config
	.globl	timer_channel_output_shadow_config
	.p2align	2
	.type	timer_channel_output_shadow_config,%function
	.code	16                      @ @timer_channel_output_shadow_config
	.thumb_func
timer_channel_output_shadow_config:
.Lfunc_begin45:
	.loc	4 1075 0                @ ../Basic/Source/gd32e23x_timer.c:1075:0
	.fnstart
	.cfi_startproc
@ %bb.0:
	@DEBUG_VALUE: timer_channel_output_shadow_config:timer_periph <- $r0
	@DEBUG_VALUE: timer_channel_output_shadow_config:timer_periph <- $r0
	@DEBUG_VALUE: timer_channel_output_shadow_config:channel <- $r1
	@DEBUG_VALUE: timer_channel_output_shadow_config:channel <- $r1
	@DEBUG_VALUE: timer_channel_output_shadow_config:ocshadow <- $r2
	@DEBUG_VALUE: timer_channel_output_shadow_config:ocshadow <- $r2
	.save	{r4, lr}
	push	{r4, lr}
	.cfi_def_cfa_offset 8
	.cfi_offset lr, -4
	.cfi_offset r4, -8
.Ltmp204:
	.loc	4 1076 5 prologue_end   @ ../Basic/Source/gd32e23x_timer.c:1076:5
	cmp	r1, #3
	bhi	.LBB45_10
.Ltmp205:
@ %bb.1:
	@DEBUG_VALUE: timer_channel_output_shadow_config:ocshadow <- $r2
	@DEBUG_VALUE: timer_channel_output_shadow_config:channel <- $r1
	@DEBUG_VALUE: timer_channel_output_shadow_config:timer_periph <- $r0
	@DEBUG_VALUE: timer_channel_output_shadow_config:ocshadow <- $r2
	.loc	4 0 5 is_stmt 0         @ ../Basic/Source/gd32e23x_timer.c:0:5
	lsls	r3, r1, #2
	adr	r4, .LJTI45_0
	adds	r3, r4, r3
	mov	pc, r3
.Ltmp206:
@ %bb.2:
	.p2align	2
.LJTI45_0:
	b.w	.LBB45_3
	b.w	.LBB45_4
	b.w	.LBB45_6
	b.w	.LBB45_7
.LBB45_3:
.Ltmp207:
	@DEBUG_VALUE: timer_channel_output_shadow_config:ocshadow <- $r2
	@DEBUG_VALUE: timer_channel_output_shadow_config:channel <- $r1
	@DEBUG_VALUE: timer_channel_output_shadow_config:timer_periph <- $r0
	.loc	4 1079 36 is_stmt 1     @ ../Basic/Source/gd32e23x_timer.c:1079:36
	ldr	r1, [r0, #24]
.Ltmp208:
	.loc	4 0 36 is_stmt 0        @ ../Basic/Source/gd32e23x_timer.c:0:36
	movs	r3, #8
	.loc	4 1079 36               @ ../Basic/Source/gd32e23x_timer.c:1079:36
	bics	r1, r3
	str	r1, [r0, #24]
	b	.LBB45_5
.Ltmp209:
.LBB45_4:
	@DEBUG_VALUE: timer_channel_output_shadow_config:ocshadow <- $r2
	@DEBUG_VALUE: timer_channel_output_shadow_config:channel <- $r1
	@DEBUG_VALUE: timer_channel_output_shadow_config:timer_periph <- $r0
	.loc	4 1084 36 is_stmt 1     @ ../Basic/Source/gd32e23x_timer.c:1084:36
	ldr	r1, [r0, #24]
.Ltmp210:
	.loc	4 0 36 is_stmt 0        @ ../Basic/Source/gd32e23x_timer.c:0:36
	movw	r3, #2048
	.loc	4 1084 36               @ ../Basic/Source/gd32e23x_timer.c:1084:36
	bics	r1, r3
	str	r1, [r0, #24]
	.loc	4 1085 71 is_stmt 1     @ ../Basic/Source/gd32e23x_timer.c:1085:71
	lsls	r2, r2, #8
.Ltmp211:
.LBB45_5:
	@DEBUG_VALUE: timer_channel_output_shadow_config:timer_periph <- $r0
	.loc	4 0 0 is_stmt 0         @ ../Basic/Source/gd32e23x_timer.c:0:0
	adds	r0, #24
.Ltmp212:
	b	.LBB45_9
.LBB45_6:
.Ltmp213:
	@DEBUG_VALUE: timer_channel_output_shadow_config:ocshadow <- $r2
	@DEBUG_VALUE: timer_channel_output_shadow_config:channel <- $r1
	@DEBUG_VALUE: timer_channel_output_shadow_config:timer_periph <- $r0
	.loc	4 1089 36 is_stmt 1     @ ../Basic/Source/gd32e23x_timer.c:1089:36
	ldr	r1, [r0, #28]
.Ltmp214:
	.loc	4 0 36 is_stmt 0        @ ../Basic/Source/gd32e23x_timer.c:0:36
	movs	r3, #8
	.loc	4 1089 36               @ ../Basic/Source/gd32e23x_timer.c:1089:36
	bics	r1, r3
	str	r1, [r0, #28]
	b	.LBB45_8
.Ltmp215:
.LBB45_7:
	@DEBUG_VALUE: timer_channel_output_shadow_config:ocshadow <- $r2
	@DEBUG_VALUE: timer_channel_output_shadow_config:channel <- $r1
	@DEBUG_VALUE: timer_channel_output_shadow_config:timer_periph <- $r0
	.loc	4 1094 36 is_stmt 1     @ ../Basic/Source/gd32e23x_timer.c:1094:36
	ldr	r1, [r0, #28]
.Ltmp216:
	.loc	4 0 36 is_stmt 0        @ ../Basic/Source/gd32e23x_timer.c:0:36
	movw	r3, #2048
	.loc	4 1094 36               @ ../Basic/Source/gd32e23x_timer.c:1094:36
	bics	r1, r3
	str	r1, [r0, #28]
	.loc	4 1095 71 is_stmt 1     @ ../Basic/Source/gd32e23x_timer.c:1095:71
	lsls	r2, r2, #8
.Ltmp217:
.LBB45_8:
	@DEBUG_VALUE: timer_channel_output_shadow_config:timer_periph <- $r0
	.loc	4 0 0 is_stmt 0         @ ../Basic/Source/gd32e23x_timer.c:0:0
	adds	r0, #28
.Ltmp218:
.LBB45_9:
	ldr	r1, [r0]
	orrs	r1, r2
	str	r1, [r0]
.Ltmp219:
.LBB45_10:
	.loc	4 1100 1 is_stmt 1      @ ../Basic/Source/gd32e23x_timer.c:1100:1
	pop	{r4, pc}
.Ltmp220:
.Lfunc_end45:
	.size	timer_channel_output_shadow_config, .Lfunc_end45-timer_channel_output_shadow_config
	.cfi_endproc
	.cantunwind
	.fnend
                                        @ -- End function
	.section	.text.timer_channel_output_fast_config,"ax",%progbits
	.hidden	timer_channel_output_fast_config @ -- Begin function timer_channel_output_fast_config
	.globl	timer_channel_output_fast_config
	.p2align	2
	.type	timer_channel_output_fast_config,%function
	.code	16                      @ @timer_channel_output_fast_config
	.thumb_func
timer_channel_output_fast_config:
.Lfunc_begin46:
	.loc	4 1119 0                @ ../Basic/Source/gd32e23x_timer.c:1119:0
	.fnstart
	.cfi_startproc
@ %bb.0:
	@DEBUG_VALUE: timer_channel_output_fast_config:timer_periph <- $r0
	@DEBUG_VALUE: timer_channel_output_fast_config:timer_periph <- $r0
	@DEBUG_VALUE: timer_channel_output_fast_config:channel <- $r1
	@DEBUG_VALUE: timer_channel_output_fast_config:channel <- $r1
	@DEBUG_VALUE: timer_channel_output_fast_config:ocfast <- $r2
	@DEBUG_VALUE: timer_channel_output_fast_config:ocfast <- $r2
	.save	{r4, lr}
	push	{r4, lr}
	.cfi_def_cfa_offset 8
	.cfi_offset lr, -4
	.cfi_offset r4, -8
.Ltmp221:
	.loc	4 1120 5 prologue_end   @ ../Basic/Source/gd32e23x_timer.c:1120:5
	cmp	r1, #3
	bhi	.LBB46_10
.Ltmp222:
@ %bb.1:
	@DEBUG_VALUE: timer_channel_output_fast_config:ocfast <- $r2
	@DEBUG_VALUE: timer_channel_output_fast_config:channel <- $r1
	@DEBUG_VALUE: timer_channel_output_fast_config:timer_periph <- $r0
	@DEBUG_VALUE: timer_channel_output_fast_config:ocfast <- $r2
	.loc	4 0 5 is_stmt 0         @ ../Basic/Source/gd32e23x_timer.c:0:5
	lsls	r3, r1, #2
	adr	r4, .LJTI46_0
	adds	r3, r4, r3
	mov	pc, r3
.Ltmp223:
@ %bb.2:
	.p2align	2
.LJTI46_0:
	b.w	.LBB46_3
	b.w	.LBB46_4
	b.w	.LBB46_6
	b.w	.LBB46_7
.LBB46_3:
.Ltmp224:
	@DEBUG_VALUE: timer_channel_output_fast_config:ocfast <- $r2
	@DEBUG_VALUE: timer_channel_output_fast_config:channel <- $r1
	@DEBUG_VALUE: timer_channel_output_fast_config:timer_periph <- $r0
	.loc	4 1123 36 is_stmt 1     @ ../Basic/Source/gd32e23x_timer.c:1123:36
	ldr	r1, [r0, #24]
.Ltmp225:
	.loc	4 0 36 is_stmt 0        @ ../Basic/Source/gd32e23x_timer.c:0:36
	movs	r3, #4
	.loc	4 1123 36               @ ../Basic/Source/gd32e23x_timer.c:1123:36
	bics	r1, r3
	str	r1, [r0, #24]
	b	.LBB46_5
.Ltmp226:
.LBB46_4:
	@DEBUG_VALUE: timer_channel_output_fast_config:ocfast <- $r2
	@DEBUG_VALUE: timer_channel_output_fast_config:channel <- $r1
	@DEBUG_VALUE: timer_channel_output_fast_config:timer_periph <- $r0
	.loc	4 1128 36 is_stmt 1     @ ../Basic/Source/gd32e23x_timer.c:1128:36
	ldr	r1, [r0, #24]
.Ltmp227:
	.loc	4 0 36 is_stmt 0        @ ../Basic/Source/gd32e23x_timer.c:0:36
	movw	r3, #1024
	.loc	4 1128 36               @ ../Basic/Source/gd32e23x_timer.c:1128:36
	bics	r1, r3
	str	r1, [r0, #24]
	.loc	4 1129 67 is_stmt 1     @ ../Basic/Source/gd32e23x_timer.c:1129:67
	lsls	r2, r2, #8
.Ltmp228:
.LBB46_5:
	@DEBUG_VALUE: timer_channel_output_fast_config:timer_periph <- $r0
	.loc	4 0 0 is_stmt 0         @ ../Basic/Source/gd32e23x_timer.c:0:0
	adds	r0, #24
.Ltmp229:
	b	.LBB46_9
.LBB46_6:
.Ltmp230:
	@DEBUG_VALUE: timer_channel_output_fast_config:ocfast <- $r2
	@DEBUG_VALUE: timer_channel_output_fast_config:channel <- $r1
	@DEBUG_VALUE: timer_channel_output_fast_config:timer_periph <- $r0
	.loc	4 1133 36 is_stmt 1     @ ../Basic/Source/gd32e23x_timer.c:1133:36
	ldr	r1, [r0, #28]
.Ltmp231:
	.loc	4 0 36 is_stmt 0        @ ../Basic/Source/gd32e23x_timer.c:0:36
	movs	r3, #4
	.loc	4 1133 36               @ ../Basic/Source/gd32e23x_timer.c:1133:36
	bics	r1, r3
	str	r1, [r0, #28]
	b	.LBB46_8
.Ltmp232:
.LBB46_7:
	@DEBUG_VALUE: timer_channel_output_fast_config:ocfast <- $r2
	@DEBUG_VALUE: timer_channel_output_fast_config:channel <- $r1
	@DEBUG_VALUE: timer_channel_output_fast_config:timer_periph <- $r0
	.loc	4 1138 36 is_stmt 1     @ ../Basic/Source/gd32e23x_timer.c:1138:36
	ldr	r1, [r0, #28]
.Ltmp233:
	.loc	4 0 36 is_stmt 0        @ ../Basic/Source/gd32e23x_timer.c:0:36
	movw	r3, #1024
	.loc	4 1138 36               @ ../Basic/Source/gd32e23x_timer.c:1138:36
	bics	r1, r3
	str	r1, [r0, #28]
	.loc	4 1139 67 is_stmt 1     @ ../Basic/Source/gd32e23x_timer.c:1139:67
	lsls	r2, r2, #8
.Ltmp234:
.LBB46_8:
	@DEBUG_VALUE: timer_channel_output_fast_config:timer_periph <- $r0
	.loc	4 0 0 is_stmt 0         @ ../Basic/Source/gd32e23x_timer.c:0:0
	adds	r0, #28
.Ltmp235:
.LBB46_9:
	ldr	r1, [r0]
	orrs	r1, r2
	str	r1, [r0]
.Ltmp236:
.LBB46_10:
	.loc	4 1144 1 is_stmt 1      @ ../Basic/Source/gd32e23x_timer.c:1144:1
	pop	{r4, pc}
.Ltmp237:
.Lfunc_end46:
	.size	timer_channel_output_fast_config, .Lfunc_end46-timer_channel_output_fast_config
	.cfi_endproc
	.cantunwind
	.fnend
                                        @ -- End function
	.section	.text.timer_channel_output_clear_config,"ax",%progbits
	.hidden	timer_channel_output_clear_config @ -- Begin function timer_channel_output_clear_config
	.globl	timer_channel_output_clear_config
	.p2align	2
	.type	timer_channel_output_clear_config,%function
	.code	16                      @ @timer_channel_output_clear_config
	.thumb_func
timer_channel_output_clear_config:
.Lfunc_begin47:
	.loc	4 1163 0                @ ../Basic/Source/gd32e23x_timer.c:1163:0
	.fnstart
	.cfi_startproc
@ %bb.0:
	@DEBUG_VALUE: timer_channel_output_clear_config:timer_periph <- $r0
	@DEBUG_VALUE: timer_channel_output_clear_config:timer_periph <- $r0
	@DEBUG_VALUE: timer_channel_output_clear_config:channel <- $r1
	@DEBUG_VALUE: timer_channel_output_clear_config:channel <- $r1
	@DEBUG_VALUE: timer_channel_output_clear_config:occlear <- $r2
	@DEBUG_VALUE: timer_channel_output_clear_config:occlear <- $r2
	.save	{r4, lr}
	push	{r4, lr}
	.cfi_def_cfa_offset 8
	.cfi_offset lr, -4
	.cfi_offset r4, -8
.Ltmp238:
	.loc	4 1164 5 prologue_end   @ ../Basic/Source/gd32e23x_timer.c:1164:5
	cmp	r1, #3
	bhi	.LBB47_10
.Ltmp239:
@ %bb.1:
	@DEBUG_VALUE: timer_channel_output_clear_config:occlear <- $r2
	@DEBUG_VALUE: timer_channel_output_clear_config:channel <- $r1
	@DEBUG_VALUE: timer_channel_output_clear_config:timer_periph <- $r0
	@DEBUG_VALUE: timer_channel_output_clear_config:occlear <- $r2
	.loc	4 0 5 is_stmt 0         @ ../Basic/Source/gd32e23x_timer.c:0:5
	lsls	r3, r1, #2
	adr	r4, .LJTI47_0
	adds	r3, r4, r3
	mov	pc, r3
.Ltmp240:
@ %bb.2:
	.p2align	2
.LJTI47_0:
	b.w	.LBB47_3
	b.w	.LBB47_4
	b.w	.LBB47_6
	b.w	.LBB47_7
.LBB47_3:
.Ltmp241:
	@DEBUG_VALUE: timer_channel_output_clear_config:occlear <- $r2
	@DEBUG_VALUE: timer_channel_output_clear_config:channel <- $r1
	@DEBUG_VALUE: timer_channel_output_clear_config:timer_periph <- $r0
	.loc	4 1167 36 is_stmt 1     @ ../Basic/Source/gd32e23x_timer.c:1167:36
	ldr	r1, [r0, #24]
.Ltmp242:
	.loc	4 0 36 is_stmt 0        @ ../Basic/Source/gd32e23x_timer.c:0:36
	movs	r3, #128
	.loc	4 1167 36               @ ../Basic/Source/gd32e23x_timer.c:1167:36
	bics	r1, r3
	str	r1, [r0, #24]
	b	.LBB47_5
.Ltmp243:
.LBB47_4:
	@DEBUG_VALUE: timer_channel_output_clear_config:occlear <- $r2
	@DEBUG_VALUE: timer_channel_output_clear_config:channel <- $r1
	@DEBUG_VALUE: timer_channel_output_clear_config:timer_periph <- $r0
	.loc	4 1172 36 is_stmt 1     @ ../Basic/Source/gd32e23x_timer.c:1172:36
	ldr	r1, [r0, #24]
.Ltmp244:
	.loc	4 0 36 is_stmt 0        @ ../Basic/Source/gd32e23x_timer.c:0:36
	movw	r3, #32768
	.loc	4 1172 36               @ ../Basic/Source/gd32e23x_timer.c:1172:36
	bics	r1, r3
	str	r1, [r0, #24]
	.loc	4 1173 68 is_stmt 1     @ ../Basic/Source/gd32e23x_timer.c:1173:68
	lsls	r2, r2, #8
.Ltmp245:
.LBB47_5:
	@DEBUG_VALUE: timer_channel_output_clear_config:timer_periph <- $r0
	.loc	4 0 0 is_stmt 0         @ ../Basic/Source/gd32e23x_timer.c:0:0
	adds	r0, #24
.Ltmp246:
	b	.LBB47_9
.LBB47_6:
.Ltmp247:
	@DEBUG_VALUE: timer_channel_output_clear_config:occlear <- $r2
	@DEBUG_VALUE: timer_channel_output_clear_config:channel <- $r1
	@DEBUG_VALUE: timer_channel_output_clear_config:timer_periph <- $r0
	.loc	4 1177 36 is_stmt 1     @ ../Basic/Source/gd32e23x_timer.c:1177:36
	ldr	r1, [r0, #28]
.Ltmp248:
	.loc	4 0 36 is_stmt 0        @ ../Basic/Source/gd32e23x_timer.c:0:36
	movs	r3, #128
	.loc	4 1177 36               @ ../Basic/Source/gd32e23x_timer.c:1177:36
	bics	r1, r3
	str	r1, [r0, #28]
	b	.LBB47_8
.Ltmp249:
.LBB47_7:
	@DEBUG_VALUE: timer_channel_output_clear_config:occlear <- $r2
	@DEBUG_VALUE: timer_channel_output_clear_config:channel <- $r1
	@DEBUG_VALUE: timer_channel_output_clear_config:timer_periph <- $r0
	.loc	4 1182 36 is_stmt 1     @ ../Basic/Source/gd32e23x_timer.c:1182:36
	ldr	r1, [r0, #28]
.Ltmp250:
	.loc	4 0 36 is_stmt 0        @ ../Basic/Source/gd32e23x_timer.c:0:36
	movw	r3, #32768
	.loc	4 1182 36               @ ../Basic/Source/gd32e23x_timer.c:1182:36
	bics	r1, r3
	str	r1, [r0, #28]
	.loc	4 1183 68 is_stmt 1     @ ../Basic/Source/gd32e23x_timer.c:1183:68
	lsls	r2, r2, #8
.Ltmp251:
.LBB47_8:
	@DEBUG_VALUE: timer_channel_output_clear_config:timer_periph <- $r0
	.loc	4 0 0 is_stmt 0         @ ../Basic/Source/gd32e23x_timer.c:0:0
	adds	r0, #28
.Ltmp252:
.LBB47_9:
	ldr	r1, [r0]
	orrs	r1, r2
	str	r1, [r0]
.Ltmp253:
.LBB47_10:
	.loc	4 1188 1 is_stmt 1      @ ../Basic/Source/gd32e23x_timer.c:1188:1
	pop	{r4, pc}
.Ltmp254:
.Lfunc_end47:
	.size	timer_channel_output_clear_config, .Lfunc_end47-timer_channel_output_clear_config
	.cfi_endproc
	.cantunwind
	.fnend
                                        @ -- End function
	.section	.text.timer_channel_output_polarity_config,"ax",%progbits
	.hidden	timer_channel_output_polarity_config @ -- Begin function timer_channel_output_polarity_config
	.globl	timer_channel_output_polarity_config
	.p2align	2
	.type	timer_channel_output_polarity_config,%function
	.code	16                      @ @timer_channel_output_polarity_config
	.thumb_func
timer_channel_output_polarity_config:
.Lfunc_begin48:
	.loc	4 1207 0                @ ../Basic/Source/gd32e23x_timer.c:1207:0
	.fnstart
	.cfi_startproc
@ %bb.0:
	@DEBUG_VALUE: timer_channel_output_polarity_config:timer_periph <- $r0
	@DEBUG_VALUE: timer_channel_output_polarity_config:timer_periph <- $r0
	@DEBUG_VALUE: timer_channel_output_polarity_config:channel <- $r1
	@DEBUG_VALUE: timer_channel_output_polarity_config:channel <- $r1
	@DEBUG_VALUE: timer_channel_output_polarity_config:ocpolarity <- $r2
	@DEBUG_VALUE: timer_channel_output_polarity_config:ocpolarity <- $r2
	.save	{r4, lr}
	push	{r4, lr}
	.cfi_def_cfa_offset 8
	.cfi_offset lr, -4
	.cfi_offset r4, -8
.Ltmp255:
	.loc	4 1208 5 prologue_end   @ ../Basic/Source/gd32e23x_timer.c:1208:5
	cmp	r1, #3
	bhi	.LBB48_8
.Ltmp256:
@ %bb.1:
	@DEBUG_VALUE: timer_channel_output_polarity_config:ocpolarity <- $r2
	@DEBUG_VALUE: timer_channel_output_polarity_config:channel <- $r1
	@DEBUG_VALUE: timer_channel_output_polarity_config:timer_periph <- $r0
	@DEBUG_VALUE: timer_channel_output_polarity_config:ocpolarity <- $r2
	.loc	4 0 5 is_stmt 0         @ ../Basic/Source/gd32e23x_timer.c:0:5
	lsls	r3, r1, #2
	adr	r4, .LJTI48_0
	adds	r3, r4, r3
	mov	pc, r3
.Ltmp257:
@ %bb.2:
	.p2align	2
.LJTI48_0:
	b.w	.LBB48_3
	b.w	.LBB48_4
	b.w	.LBB48_5
	b.w	.LBB48_6
.LBB48_3:
.Ltmp258:
	@DEBUG_VALUE: timer_channel_output_polarity_config:ocpolarity <- $r2
	@DEBUG_VALUE: timer_channel_output_polarity_config:channel <- $r1
	@DEBUG_VALUE: timer_channel_output_polarity_config:timer_periph <- $r0
	@DEBUG_VALUE: timer_channel_output_polarity_config:ocpolarity <- $r2
	.loc	4 1211 36 is_stmt 1     @ ../Basic/Source/gd32e23x_timer.c:1211:36
	ldr	r1, [r0, #32]
.Ltmp259:
	.loc	4 0 36 is_stmt 0        @ ../Basic/Source/gd32e23x_timer.c:0:36
	movs	r3, #2
	.loc	4 1211 36               @ ../Basic/Source/gd32e23x_timer.c:1211:36
	bics	r1, r3
	str	r1, [r0, #32]
	b	.LBB48_7
.Ltmp260:
.LBB48_4:
	@DEBUG_VALUE: timer_channel_output_polarity_config:ocpolarity <- $r2
	@DEBUG_VALUE: timer_channel_output_polarity_config:channel <- $r1
	@DEBUG_VALUE: timer_channel_output_polarity_config:timer_periph <- $r0
	.loc	4 1216 36 is_stmt 1     @ ../Basic/Source/gd32e23x_timer.c:1216:36
	ldr	r1, [r0, #32]
.Ltmp261:
	.loc	4 0 36 is_stmt 0        @ ../Basic/Source/gd32e23x_timer.c:0:36
	movs	r3, #32
	.loc	4 1216 36               @ ../Basic/Source/gd32e23x_timer.c:1216:36
	bics	r1, r3
	str	r1, [r0, #32]
	.loc	4 1217 71 is_stmt 1     @ ../Basic/Source/gd32e23x_timer.c:1217:71
	lsls	r2, r2, #4
.Ltmp262:
	.loc	4 0 71 is_stmt 0        @ ../Basic/Source/gd32e23x_timer.c:0:71
	b	.LBB48_7
.Ltmp263:
.LBB48_5:
	@DEBUG_VALUE: timer_channel_output_polarity_config:ocpolarity <- $r2
	@DEBUG_VALUE: timer_channel_output_polarity_config:channel <- $r1
	@DEBUG_VALUE: timer_channel_output_polarity_config:timer_periph <- $r0
	.loc	4 1221 36 is_stmt 1     @ ../Basic/Source/gd32e23x_timer.c:1221:36
	ldr	r1, [r0, #32]
.Ltmp264:
	.loc	4 0 36 is_stmt 0        @ ../Basic/Source/gd32e23x_timer.c:0:36
	movw	r3, #512
	.loc	4 1221 36               @ ../Basic/Source/gd32e23x_timer.c:1221:36
	bics	r1, r3
	str	r1, [r0, #32]
	.loc	4 1222 71 is_stmt 1     @ ../Basic/Source/gd32e23x_timer.c:1222:71
	lsls	r2, r2, #8
.Ltmp265:
	.loc	4 0 71 is_stmt 0        @ ../Basic/Source/gd32e23x_timer.c:0:71
	b	.LBB48_7
.Ltmp266:
.LBB48_6:
	@DEBUG_VALUE: timer_channel_output_polarity_config:ocpolarity <- $r2
	@DEBUG_VALUE: timer_channel_output_polarity_config:channel <- $r1
	@DEBUG_VALUE: timer_channel_output_polarity_config:timer_periph <- $r0
	.loc	4 1226 36 is_stmt 1     @ ../Basic/Source/gd32e23x_timer.c:1226:36
	ldr	r1, [r0, #32]
.Ltmp267:
	.loc	4 0 36 is_stmt 0        @ ../Basic/Source/gd32e23x_timer.c:0:36
	movw	r3, #8192
	.loc	4 1226 36               @ ../Basic/Source/gd32e23x_timer.c:1226:36
	bics	r1, r3
	str	r1, [r0, #32]
	.loc	4 1227 71 is_stmt 1     @ ../Basic/Source/gd32e23x_timer.c:1227:71
	lsls	r2, r2, #12
.Ltmp268:
.LBB48_7:
	@DEBUG_VALUE: timer_channel_output_polarity_config:timer_periph <- $r0
	.loc	4 0 0 is_stmt 0         @ ../Basic/Source/gd32e23x_timer.c:0:0
	adds	r0, #32
.Ltmp269:
	ldr	r1, [r0]
	orrs	r1, r2
	str	r1, [r0]
.Ltmp270:
.LBB48_8:
	.loc	4 1232 1 is_stmt 1      @ ../Basic/Source/gd32e23x_timer.c:1232:1
	pop	{r4, pc}
.Ltmp271:
.Lfunc_end48:
	.size	timer_channel_output_polarity_config, .Lfunc_end48-timer_channel_output_polarity_config
	.cfi_endproc
	.cantunwind
	.fnend
                                        @ -- End function
	.section	.text.timer_channel_complementary_output_polarity_config,"ax",%progbits
	.hidden	timer_channel_complementary_output_polarity_config @ -- Begin function timer_channel_complementary_output_polarity_config
	.globl	timer_channel_complementary_output_polarity_config
	.p2align	2
	.type	timer_channel_complementary_output_polarity_config,%function
	.code	16                      @ @timer_channel_complementary_output_polarity_config
	.thumb_func
timer_channel_complementary_output_polarity_config:
.Lfunc_begin49:
	.loc	4 1251 0                @ ../Basic/Source/gd32e23x_timer.c:1251:0
	.fnstart
	.cfi_startproc
@ %bb.0:
	@DEBUG_VALUE: timer_channel_complementary_output_polarity_config:timer_periph <- $r0
	@DEBUG_VALUE: timer_channel_complementary_output_polarity_config:timer_periph <- $r0
	@DEBUG_VALUE: timer_channel_complementary_output_polarity_config:channel <- $r1
	@DEBUG_VALUE: timer_channel_complementary_output_polarity_config:channel <- $r1
	@DEBUG_VALUE: timer_channel_complementary_output_polarity_config:ocnpolarity <- $r2
	@DEBUG_VALUE: timer_channel_complementary_output_polarity_config:ocnpolarity <- $r2
	.save	{r4, lr}
	push	{r4, lr}
	.cfi_def_cfa_offset 8
	.cfi_offset lr, -4
	.cfi_offset r4, -8
.Ltmp272:
	.loc	4 1252 5 prologue_end   @ ../Basic/Source/gd32e23x_timer.c:1252:5
	cmp	r1, #3
	bhi	.LBB49_8
.Ltmp273:
@ %bb.1:
	@DEBUG_VALUE: timer_channel_complementary_output_polarity_config:ocnpolarity <- $r2
	@DEBUG_VALUE: timer_channel_complementary_output_polarity_config:channel <- $r1
	@DEBUG_VALUE: timer_channel_complementary_output_polarity_config:timer_periph <- $r0
	@DEBUG_VALUE: timer_channel_complementary_output_polarity_config:ocnpolarity <- $r2
	.loc	4 0 5 is_stmt 0         @ ../Basic/Source/gd32e23x_timer.c:0:5
	lsls	r3, r1, #2
	adr	r4, .LJTI49_0
	adds	r3, r4, r3
	mov	pc, r3
.Ltmp274:
@ %bb.2:
	.p2align	2
.LJTI49_0:
	b.w	.LBB49_3
	b.w	.LBB49_4
	b.w	.LBB49_5
	b.w	.LBB49_6
.LBB49_3:
.Ltmp275:
	@DEBUG_VALUE: timer_channel_complementary_output_polarity_config:ocnpolarity <- $r2
	@DEBUG_VALUE: timer_channel_complementary_output_polarity_config:channel <- $r1
	@DEBUG_VALUE: timer_channel_complementary_output_polarity_config:timer_periph <- $r0
	@DEBUG_VALUE: timer_channel_complementary_output_polarity_config:ocnpolarity <- $r2
	.loc	4 1255 36 is_stmt 1     @ ../Basic/Source/gd32e23x_timer.c:1255:36
	ldr	r1, [r0, #32]
.Ltmp276:
	.loc	4 0 36 is_stmt 0        @ ../Basic/Source/gd32e23x_timer.c:0:36
	movs	r3, #8
	.loc	4 1255 36               @ ../Basic/Source/gd32e23x_timer.c:1255:36
	bics	r1, r3
	str	r1, [r0, #32]
	b	.LBB49_7
.Ltmp277:
.LBB49_4:
	@DEBUG_VALUE: timer_channel_complementary_output_polarity_config:ocnpolarity <- $r2
	@DEBUG_VALUE: timer_channel_complementary_output_polarity_config:channel <- $r1
	@DEBUG_VALUE: timer_channel_complementary_output_polarity_config:timer_periph <- $r0
	.loc	4 1260 36 is_stmt 1     @ ../Basic/Source/gd32e23x_timer.c:1260:36
	ldr	r1, [r0, #32]
.Ltmp278:
	.loc	4 0 36 is_stmt 0        @ ../Basic/Source/gd32e23x_timer.c:0:36
	movs	r3, #128
	.loc	4 1260 36               @ ../Basic/Source/gd32e23x_timer.c:1260:36
	bics	r1, r3
	str	r1, [r0, #32]
	.loc	4 1261 72 is_stmt 1     @ ../Basic/Source/gd32e23x_timer.c:1261:72
	lsls	r2, r2, #4
.Ltmp279:
	.loc	4 0 72 is_stmt 0        @ ../Basic/Source/gd32e23x_timer.c:0:72
	b	.LBB49_7
.Ltmp280:
.LBB49_5:
	@DEBUG_VALUE: timer_channel_complementary_output_polarity_config:ocnpolarity <- $r2
	@DEBUG_VALUE: timer_channel_complementary_output_polarity_config:channel <- $r1
	@DEBUG_VALUE: timer_channel_complementary_output_polarity_config:timer_periph <- $r0
	.loc	4 1265 36 is_stmt 1     @ ../Basic/Source/gd32e23x_timer.c:1265:36
	ldr	r1, [r0, #32]
.Ltmp281:
	.loc	4 0 36 is_stmt 0        @ ../Basic/Source/gd32e23x_timer.c:0:36
	movw	r3, #2048
	.loc	4 1265 36               @ ../Basic/Source/gd32e23x_timer.c:1265:36
	bics	r1, r3
	str	r1, [r0, #32]
	.loc	4 1266 72 is_stmt 1     @ ../Basic/Source/gd32e23x_timer.c:1266:72
	lsls	r2, r2, #8
.Ltmp282:
	.loc	4 0 72 is_stmt 0        @ ../Basic/Source/gd32e23x_timer.c:0:72
	b	.LBB49_7
.Ltmp283:
.LBB49_6:
	@DEBUG_VALUE: timer_channel_complementary_output_polarity_config:ocnpolarity <- $r2
	@DEBUG_VALUE: timer_channel_complementary_output_polarity_config:channel <- $r1
	@DEBUG_VALUE: timer_channel_complementary_output_polarity_config:timer_periph <- $r0
	.loc	4 1270 36 is_stmt 1     @ ../Basic/Source/gd32e23x_timer.c:1270:36
	ldr	r1, [r0, #32]
.Ltmp284:
	.loc	4 0 36 is_stmt 0        @ ../Basic/Source/gd32e23x_timer.c:0:36
	movw	r3, #32768
	.loc	4 1270 36               @ ../Basic/Source/gd32e23x_timer.c:1270:36
	bics	r1, r3
	str	r1, [r0, #32]
	.loc	4 1271 72 is_stmt 1     @ ../Basic/Source/gd32e23x_timer.c:1271:72
	lsls	r2, r2, #12
.Ltmp285:
.LBB49_7:
	@DEBUG_VALUE: timer_channel_complementary_output_polarity_config:timer_periph <- $r0
	.loc	4 0 0 is_stmt 0         @ ../Basic/Source/gd32e23x_timer.c:0:0
	adds	r0, #32
.Ltmp286:
	ldr	r1, [r0]
	orrs	r1, r2
	str	r1, [r0]
.Ltmp287:
.LBB49_8:
	.loc	4 1276 1 is_stmt 1      @ ../Basic/Source/gd32e23x_timer.c:1276:1
	pop	{r4, pc}
.Ltmp288:
.Lfunc_end49:
	.size	timer_channel_complementary_output_polarity_config, .Lfunc_end49-timer_channel_complementary_output_polarity_config
	.cfi_endproc
	.cantunwind
	.fnend
                                        @ -- End function
	.section	.text.timer_channel_output_state_config,"ax",%progbits
	.hidden	timer_channel_output_state_config @ -- Begin function timer_channel_output_state_config
	.globl	timer_channel_output_state_config
	.p2align	2
	.type	timer_channel_output_state_config,%function
	.code	16                      @ @timer_channel_output_state_config
	.thumb_func
timer_channel_output_state_config:
.Lfunc_begin50:
	.loc	4 1295 0                @ ../Basic/Source/gd32e23x_timer.c:1295:0
	.fnstart
	.cfi_startproc
@ %bb.0:
	@DEBUG_VALUE: timer_channel_output_state_config:timer_periph <- $r0
	@DEBUG_VALUE: timer_channel_output_state_config:timer_periph <- $r0
	@DEBUG_VALUE: timer_channel_output_state_config:channel <- $r1
	@DEBUG_VALUE: timer_channel_output_state_config:channel <- $r1
	@DEBUG_VALUE: timer_channel_output_state_config:state <- $r2
	@DEBUG_VALUE: timer_channel_output_state_config:state <- $r2
	.save	{r4, lr}
	push	{r4, lr}
	.cfi_def_cfa_offset 8
	.cfi_offset lr, -4
	.cfi_offset r4, -8
.Ltmp289:
	.loc	4 1296 5 prologue_end   @ ../Basic/Source/gd32e23x_timer.c:1296:5
	cmp	r1, #3
	bhi	.LBB50_8
.Ltmp290:
@ %bb.1:
	@DEBUG_VALUE: timer_channel_output_state_config:state <- $r2
	@DEBUG_VALUE: timer_channel_output_state_config:channel <- $r1
	@DEBUG_VALUE: timer_channel_output_state_config:timer_periph <- $r0
	.loc	4 0 5 is_stmt 0         @ ../Basic/Source/gd32e23x_timer.c:0:5
	lsls	r3, r1, #2
	adr	r4, .LJTI50_0
	adds	r3, r4, r3
	mov	pc, r3
.Ltmp291:
@ %bb.2:
	.p2align	2
.LJTI50_0:
	b.w	.LBB50_3
	b.w	.LBB50_4
	b.w	.LBB50_5
	b.w	.LBB50_6
.LBB50_3:
.Ltmp292:
	@DEBUG_VALUE: timer_channel_output_state_config:state <- $r2
	@DEBUG_VALUE: timer_channel_output_state_config:channel <- $r1
	@DEBUG_VALUE: timer_channel_output_state_config:timer_periph <- $r0
	.loc	4 1299 36 is_stmt 1     @ ../Basic/Source/gd32e23x_timer.c:1299:36
	ldr	r1, [r0, #32]
.Ltmp293:
	.loc	4 0 36 is_stmt 0        @ ../Basic/Source/gd32e23x_timer.c:0:36
	movs	r3, #1
	.loc	4 1299 36               @ ../Basic/Source/gd32e23x_timer.c:1299:36
	bics	r1, r3
	str	r1, [r0, #32]
	b	.LBB50_7
.Ltmp294:
.LBB50_4:
	@DEBUG_VALUE: timer_channel_output_state_config:state <- $r2
	@DEBUG_VALUE: timer_channel_output_state_config:channel <- $r1
	@DEBUG_VALUE: timer_channel_output_state_config:timer_periph <- $r0
	.loc	4 1304 36 is_stmt 1     @ ../Basic/Source/gd32e23x_timer.c:1304:36
	ldr	r1, [r0, #32]
.Ltmp295:
	.loc	4 0 36 is_stmt 0        @ ../Basic/Source/gd32e23x_timer.c:0:36
	movs	r3, #16
	.loc	4 1304 36               @ ../Basic/Source/gd32e23x_timer.c:1304:36
	bics	r1, r3
	str	r1, [r0, #32]
	.loc	4 1305 66 is_stmt 1     @ ../Basic/Source/gd32e23x_timer.c:1305:66
	lsls	r2, r2, #4
.Ltmp296:
	.loc	4 0 66 is_stmt 0        @ ../Basic/Source/gd32e23x_timer.c:0:66
	b	.LBB50_7
.Ltmp297:
.LBB50_5:
	@DEBUG_VALUE: timer_channel_output_state_config:state <- $r2
	@DEBUG_VALUE: timer_channel_output_state_config:channel <- $r1
	@DEBUG_VALUE: timer_channel_output_state_config:timer_periph <- $r0
	.loc	4 1309 36 is_stmt 1     @ ../Basic/Source/gd32e23x_timer.c:1309:36
	ldr	r1, [r0, #32]
.Ltmp298:
	.loc	4 0 36 is_stmt 0        @ ../Basic/Source/gd32e23x_timer.c:0:36
	movw	r3, #256
	.loc	4 1309 36               @ ../Basic/Source/gd32e23x_timer.c:1309:36
	bics	r1, r3
	str	r1, [r0, #32]
	.loc	4 1310 66 is_stmt 1     @ ../Basic/Source/gd32e23x_timer.c:1310:66
	lsls	r2, r2, #8
.Ltmp299:
	.loc	4 0 66 is_stmt 0        @ ../Basic/Source/gd32e23x_timer.c:0:66
	b	.LBB50_7
.Ltmp300:
.LBB50_6:
	@DEBUG_VALUE: timer_channel_output_state_config:state <- $r2
	@DEBUG_VALUE: timer_channel_output_state_config:channel <- $r1
	@DEBUG_VALUE: timer_channel_output_state_config:timer_periph <- $r0
	.loc	4 1314 36 is_stmt 1     @ ../Basic/Source/gd32e23x_timer.c:1314:36
	ldr	r1, [r0, #32]
.Ltmp301:
	.loc	4 0 36 is_stmt 0        @ ../Basic/Source/gd32e23x_timer.c:0:36
	movw	r3, #4096
	.loc	4 1314 36               @ ../Basic/Source/gd32e23x_timer.c:1314:36
	bics	r1, r3
	str	r1, [r0, #32]
	.loc	4 1315 66 is_stmt 1     @ ../Basic/Source/gd32e23x_timer.c:1315:66
	lsls	r2, r2, #12
.Ltmp302:
.LBB50_7:
	@DEBUG_VALUE: timer_channel_output_state_config:timer_periph <- $r0
	.loc	4 0 0 is_stmt 0         @ ../Basic/Source/gd32e23x_timer.c:0:0
	adds	r0, #32
.Ltmp303:
	ldr	r1, [r0]
	orrs	r1, r2
	str	r1, [r0]
.Ltmp304:
.LBB50_8:
	.loc	4 1320 1 is_stmt 1      @ ../Basic/Source/gd32e23x_timer.c:1320:1
	pop	{r4, pc}
.Ltmp305:
.Lfunc_end50:
	.size	timer_channel_output_state_config, .Lfunc_end50-timer_channel_output_state_config
	.cfi_endproc
	.cantunwind
	.fnend
                                        @ -- End function
	.section	.text.timer_channel_complementary_output_state_config,"ax",%progbits
	.hidden	timer_channel_complementary_output_state_config @ -- Begin function timer_channel_complementary_output_state_config
	.globl	timer_channel_complementary_output_state_config
	.p2align	1
	.type	timer_channel_complementary_output_state_config,%function
	.code	16                      @ @timer_channel_complementary_output_state_config
	.thumb_func
timer_channel_complementary_output_state_config:
.Lfunc_begin51:
	.loc	4 1338 0                @ ../Basic/Source/gd32e23x_timer.c:1338:0
	.fnstart
	.cfi_startproc
@ %bb.0:
	@DEBUG_VALUE: timer_channel_complementary_output_state_config:timer_periph <- $r0
	@DEBUG_VALUE: timer_channel_complementary_output_state_config:timer_periph <- $r0
	@DEBUG_VALUE: timer_channel_complementary_output_state_config:channel <- $r1
	@DEBUG_VALUE: timer_channel_complementary_output_state_config:channel <- $r1
	@DEBUG_VALUE: timer_channel_complementary_output_state_config:ocnstate <- $r2
	@DEBUG_VALUE: timer_channel_complementary_output_state_config:ocnstate <- $r2
	.loc	4 1339 5 prologue_end   @ ../Basic/Source/gd32e23x_timer.c:1339:5
	cmp	r1, #2
	beq	.LBB51_4
.Ltmp306:
@ %bb.1:
	@DEBUG_VALUE: timer_channel_complementary_output_state_config:ocnstate <- $r2
	@DEBUG_VALUE: timer_channel_complementary_output_state_config:channel <- $r1
	@DEBUG_VALUE: timer_channel_complementary_output_state_config:timer_periph <- $r0
	@DEBUG_VALUE: timer_channel_complementary_output_state_config:ocnstate <- $r2
	cmp	r1, #1
	beq	.LBB51_5
.Ltmp307:
@ %bb.2:
	@DEBUG_VALUE: timer_channel_complementary_output_state_config:ocnstate <- $r2
	@DEBUG_VALUE: timer_channel_complementary_output_state_config:channel <- $r1
	@DEBUG_VALUE: timer_channel_complementary_output_state_config:timer_periph <- $r0
	@DEBUG_VALUE: timer_channel_complementary_output_state_config:ocnstate <- $r2
	cbnz	r1, .LBB51_7
.Ltmp308:
@ %bb.3:
	@DEBUG_VALUE: timer_channel_complementary_output_state_config:ocnstate <- $r2
	@DEBUG_VALUE: timer_channel_complementary_output_state_config:channel <- $r1
	@DEBUG_VALUE: timer_channel_complementary_output_state_config:timer_periph <- $r0
	@DEBUG_VALUE: timer_channel_complementary_output_state_config:ocnstate <- $r2
	.loc	4 1342 36               @ ../Basic/Source/gd32e23x_timer.c:1342:36
	ldr	r1, [r0, #32]
.Ltmp309:
	.loc	4 0 36 is_stmt 0        @ ../Basic/Source/gd32e23x_timer.c:0:36
	movs	r3, #4
	.loc	4 1342 36               @ ../Basic/Source/gd32e23x_timer.c:1342:36
	bics	r1, r3
	str	r1, [r0, #32]
	b	.LBB51_6
.Ltmp310:
.LBB51_4:
	@DEBUG_VALUE: timer_channel_complementary_output_state_config:ocnstate <- $r2
	@DEBUG_VALUE: timer_channel_complementary_output_state_config:channel <- $r1
	@DEBUG_VALUE: timer_channel_complementary_output_state_config:timer_periph <- $r0
	.loc	4 1352 36 is_stmt 1     @ ../Basic/Source/gd32e23x_timer.c:1352:36
	ldr	r1, [r0, #32]
.Ltmp311:
	.loc	4 0 36 is_stmt 0        @ ../Basic/Source/gd32e23x_timer.c:0:36
	movw	r3, #1024
	.loc	4 1352 36               @ ../Basic/Source/gd32e23x_timer.c:1352:36
	bics	r1, r3
	str	r1, [r0, #32]
	.loc	4 1353 69 is_stmt 1     @ ../Basic/Source/gd32e23x_timer.c:1353:69
	lsls	r2, r2, #8
.Ltmp312:
	.loc	4 0 69 is_stmt 0        @ ../Basic/Source/gd32e23x_timer.c:0:69
	b	.LBB51_6
.Ltmp313:
.LBB51_5:
	@DEBUG_VALUE: timer_channel_complementary_output_state_config:ocnstate <- $r2
	@DEBUG_VALUE: timer_channel_complementary_output_state_config:channel <- $r1
	@DEBUG_VALUE: timer_channel_complementary_output_state_config:timer_periph <- $r0
	.loc	4 1347 36 is_stmt 1     @ ../Basic/Source/gd32e23x_timer.c:1347:36
	ldr	r1, [r0, #32]
.Ltmp314:
	.loc	4 0 36 is_stmt 0        @ ../Basic/Source/gd32e23x_timer.c:0:36
	movs	r3, #64
	.loc	4 1347 36               @ ../Basic/Source/gd32e23x_timer.c:1347:36
	bics	r1, r3
	str	r1, [r0, #32]
	.loc	4 1348 69 is_stmt 1     @ ../Basic/Source/gd32e23x_timer.c:1348:69
	lsls	r2, r2, #4
.Ltmp315:
.LBB51_6:
	@DEBUG_VALUE: timer_channel_complementary_output_state_config:timer_periph <- $r0
	.loc	4 0 0 is_stmt 0         @ ../Basic/Source/gd32e23x_timer.c:0:0
	adds	r0, #32
.Ltmp316:
	ldr	r1, [r0]
	orrs	r1, r2
	str	r1, [r0]
.Ltmp317:
.LBB51_7:
	.loc	4 1358 1 is_stmt 1      @ ../Basic/Source/gd32e23x_timer.c:1358:1
	bx	lr
.Ltmp318:
.Lfunc_end51:
	.size	timer_channel_complementary_output_state_config, .Lfunc_end51-timer_channel_complementary_output_state_config
	.cfi_endproc
	.cantunwind
	.fnend
                                        @ -- End function
	.section	.text.timer_channel_input_struct_para_init,"ax",%progbits
	.hidden	timer_channel_input_struct_para_init @ -- Begin function timer_channel_input_struct_para_init
	.globl	timer_channel_input_struct_para_init
	.p2align	1
	.type	timer_channel_input_struct_para_init,%function
	.code	16                      @ @timer_channel_input_struct_para_init
	.thumb_func
timer_channel_input_struct_para_init:
.Lfunc_begin52:
	.loc	4 1367 0                @ ../Basic/Source/gd32e23x_timer.c:1367:0
	.fnstart
	.cfi_startproc
@ %bb.0:
	@DEBUG_VALUE: timer_channel_input_struct_para_init:icpara <- $r0
	@DEBUG_VALUE: timer_channel_input_struct_para_init:icpara <- $r0
	movs	r1, #0
.Ltmp319:
	.loc	4 1372 25 prologue_end  @ ../Basic/Source/gd32e23x_timer.c:1372:25
	strh	r1, [r0, #6]
	.loc	4 1371 25               @ ../Basic/Source/gd32e23x_timer.c:1371:25
	strh	r1, [r0, #4]
	movs	r2, #1
	.loc	4 1370 25               @ ../Basic/Source/gd32e23x_timer.c:1370:25
	strh	r2, [r0, #2]
	.loc	4 1369 25               @ ../Basic/Source/gd32e23x_timer.c:1369:25
	strh	r1, [r0]
	.loc	4 1373 1                @ ../Basic/Source/gd32e23x_timer.c:1373:1
	bx	lr
.Ltmp320:
.Lfunc_end52:
	.size	timer_channel_input_struct_para_init, .Lfunc_end52-timer_channel_input_struct_para_init
	.cfi_endproc
	.cantunwind
	.fnend
                                        @ -- End function
	.section	.text.timer_input_capture_config,"ax",%progbits
	.hidden	timer_input_capture_config @ -- Begin function timer_input_capture_config
	.globl	timer_input_capture_config
	.p2align	2
	.type	timer_input_capture_config,%function
	.code	16                      @ @timer_input_capture_config
	.thumb_func
timer_input_capture_config:
.Lfunc_begin53:
	.loc	4 1393 0                @ ../Basic/Source/gd32e23x_timer.c:1393:0
	.fnstart
	.cfi_startproc
@ %bb.0:
	@DEBUG_VALUE: timer_input_capture_config:timer_periph <- $r0
	@DEBUG_VALUE: timer_input_capture_config:channel <- $r1
	@DEBUG_VALUE: timer_input_capture_config:icpara <- $r2
	.save	{r4, r5, r6, r7}
	.pad	#8
	push	{r2, r3, r4, r5, r6, r7}
	.cfi_def_cfa_offset 24
	.cfi_offset r7, -4
	.cfi_offset r6, -8
	.cfi_offset r5, -12
	.cfi_offset r4, -16
	mov	r4, r2
.Ltmp321:
	@DEBUG_VALUE: timer_input_capture_config:icpara <- $r4
	@DEBUG_VALUE: timer_input_capture_config:channel <- $r1
	@DEBUG_VALUE: timer_input_capture_config:timer_periph <- $r0
	.loc	4 1394 5 prologue_end   @ ../Basic/Source/gd32e23x_timer.c:1394:5
	cmp	r1, #3
	bls	.LBB53_1
	b	.LBB53_10
.Ltmp322:
.LBB53_1:
	@DEBUG_VALUE: timer_input_capture_config:icpara <- $r4
	@DEBUG_VALUE: timer_input_capture_config:channel <- $r1
	@DEBUG_VALUE: timer_input_capture_config:timer_periph <- $r0
	.loc	4 0 5 is_stmt 0         @ ../Basic/Source/gd32e23x_timer.c:0:5
	lsls	r2, r1, #2
	adr	r3, .LJTI53_0
	adds	r2, r3, r2
	str	r1, [sp, #4]            @ 4-byte Spill
.Ltmp323:
	@DEBUG_VALUE: timer_input_capture_config:channel <- [DW_OP_plus_uconst 4] [$sp+0]
	mov	pc, r2
.Ltmp324:
@ %bb.2:
	.p2align	2
.LJTI53_0:
	b.w	.LBB53_3
	b.w	.LBB53_4
	b.w	.LBB53_5
	b.w	.LBB53_7
.LBB53_3:
.Ltmp325:
	@DEBUG_VALUE: timer_input_capture_config:channel <- [DW_OP_plus_uconst 4] [$sp+0]
	@DEBUG_VALUE: timer_input_capture_config:icpara <- $r4
	@DEBUG_VALUE: timer_input_capture_config:timer_periph <- $r0
	.loc	4 1398 36 is_stmt 1     @ ../Basic/Source/gd32e23x_timer.c:1398:36
	ldr	r2, [r0, #32]
	movs	r1, #1
	str	r1, [sp]                @ 4-byte Spill
	bics	r2, r1
	str	r2, [r0, #32]
	.loc	4 1401 36               @ ../Basic/Source/gd32e23x_timer.c:1401:36
	ldr	r2, [r0, #32]
	movs	r3, #10
	bics	r2, r3
	str	r2, [r0, #32]
	.loc	4 1402 58               @ ../Basic/Source/gd32e23x_timer.c:1402:58
	ldrh	r2, [r4]
	.loc	4 1402 36 is_stmt 0     @ ../Basic/Source/gd32e23x_timer.c:1402:36
	ldr	r3, [r0, #32]
	orrs	r3, r2
	str	r3, [r0, #32]
	.loc	4 1404 36 is_stmt 1     @ ../Basic/Source/gd32e23x_timer.c:1404:36
	ldr	r2, [r0, #24]
	movs	r3, #3
	bics	r2, r3
	str	r2, [r0, #24]
	ldr	r1, __arm_cp.53_1
	adds	r1, #16
	.loc	4 1405 58               @ ../Basic/Source/gd32e23x_timer.c:1405:58
	ldrh	r7, [r4, #2]
	.loc	4 1404 9                @ ../Basic/Source/gd32e23x_timer.c:1404:9
	mov	r5, r0
	adds	r5, #24
	.loc	4 1398 9                @ ../Basic/Source/gd32e23x_timer.c:1398:9
	mov	r6, r0
	adds	r6, #32
	.loc	4 1405 36               @ ../Basic/Source/gd32e23x_timer.c:1405:36
	ldr	r3, [r0, #24]
	b	.LBB53_6
.Ltmp326:
.LBB53_4:
	@DEBUG_VALUE: timer_input_capture_config:channel <- [DW_OP_plus_uconst 4] [$sp+0]
	@DEBUG_VALUE: timer_input_capture_config:icpara <- $r4
	@DEBUG_VALUE: timer_input_capture_config:timer_periph <- $r0
	.loc	4 1417 36               @ ../Basic/Source/gd32e23x_timer.c:1417:36
	ldr	r2, [r0, #32]
	movs	r1, #16
	str	r1, [sp]                @ 4-byte Spill
	bics	r2, r1
	str	r2, [r0, #32]
	.loc	4 1420 36               @ ../Basic/Source/gd32e23x_timer.c:1420:36
	ldr	r2, [r0, #32]
	movs	r3, #160
	bics	r2, r3
	str	r2, [r0, #32]
	.loc	4 1421 69               @ ../Basic/Source/gd32e23x_timer.c:1421:69
	ldrh	r2, [r4]
	.loc	4 1421 81 is_stmt 0     @ ../Basic/Source/gd32e23x_timer.c:1421:81
	lsls	r2, r2, #4
	.loc	4 1421 36               @ ../Basic/Source/gd32e23x_timer.c:1421:36
	ldr	r3, [r0, #32]
	orrs	r3, r2
	str	r3, [r0, #32]
	.loc	4 1423 36 is_stmt 1     @ ../Basic/Source/gd32e23x_timer.c:1423:36
	ldr	r2, [r0, #24]
	movw	r3, #768
	bics	r2, r3
	str	r2, [r0, #24]
	.loc	4 1423 9 is_stmt 0      @ ../Basic/Source/gd32e23x_timer.c:1423:9
	mov	r5, r0
	adds	r5, #24
	.loc	4 1417 9 is_stmt 1      @ ../Basic/Source/gd32e23x_timer.c:1417:9
	mov	r6, r0
	adds	r6, #32
	.loc	4 1424 69               @ ../Basic/Source/gd32e23x_timer.c:1424:69
	ldrh	r2, [r4, #2]
	.loc	4 1424 82 is_stmt 0     @ ../Basic/Source/gd32e23x_timer.c:1424:82
	lsls	r3, r2, #8
	.loc	4 1424 36               @ ../Basic/Source/gd32e23x_timer.c:1424:36
	ldr	r7, [r0, #24]
	b	.LBB53_8
.Ltmp327:
.LBB53_5:
	@DEBUG_VALUE: timer_input_capture_config:channel <- [DW_OP_plus_uconst 4] [$sp+0]
	@DEBUG_VALUE: timer_input_capture_config:icpara <- $r4
	@DEBUG_VALUE: timer_input_capture_config:timer_periph <- $r0
	.loc	4 1435 36 is_stmt 1     @ ../Basic/Source/gd32e23x_timer.c:1435:36
	ldr	r2, [r0, #32]
	ldr	r1, __arm_cp.53_1
	ands	r2, r1
	str	r2, [r0, #32]
	.loc	4 1438 36               @ ../Basic/Source/gd32e23x_timer.c:1438:36
	ldr	r2, [r0, #32]
	movw	r3, #2560
	bics	r2, r3
	str	r2, [r0, #32]
	.loc	4 1439 69               @ ../Basic/Source/gd32e23x_timer.c:1439:69
	ldrh	r2, [r4]
	.loc	4 1439 81 is_stmt 0     @ ../Basic/Source/gd32e23x_timer.c:1439:81
	lsls	r2, r2, #8
	.loc	4 1439 36               @ ../Basic/Source/gd32e23x_timer.c:1439:36
	ldr	r3, [r0, #32]
	orrs	r3, r2
	str	r3, [r0, #32]
	.loc	4 1442 36 is_stmt 1     @ ../Basic/Source/gd32e23x_timer.c:1442:36
	ldr	r2, [r0, #28]
	movs	r3, #3
	bics	r2, r3
	str	r2, [r0, #28]
	adds	r1, #16
	.loc	4 1443 69               @ ../Basic/Source/gd32e23x_timer.c:1443:69
	ldrh	r7, [r4, #2]
	.loc	4 1442 9                @ ../Basic/Source/gd32e23x_timer.c:1442:9
	mov	r5, r0
	adds	r5, #28
	.loc	4 1435 9                @ ../Basic/Source/gd32e23x_timer.c:1435:9
	mov	r6, r0
	adds	r6, #32
	.loc	4 1443 36               @ ../Basic/Source/gd32e23x_timer.c:1443:36
	ldr	r3, [r0, #28]
	movw	r2, #256
	str	r2, [sp]                @ 4-byte Spill
.Ltmp328:
.LBB53_6:
	@DEBUG_VALUE: timer_input_capture_config:channel <- [DW_OP_plus_uconst 4] [$sp+0]
	@DEBUG_VALUE: timer_input_capture_config:icpara <- $r4
	@DEBUG_VALUE: timer_input_capture_config:timer_periph <- $r0
	.loc	4 0 36 is_stmt 0        @ ../Basic/Source/gd32e23x_timer.c:0:36
	movs	r2, #4
	b	.LBB53_9
.Ltmp329:
.LBB53_7:
	@DEBUG_VALUE: timer_input_capture_config:channel <- [DW_OP_plus_uconst 4] [$sp+0]
	@DEBUG_VALUE: timer_input_capture_config:icpara <- $r4
	@DEBUG_VALUE: timer_input_capture_config:timer_periph <- $r0
	.loc	4 1455 36 is_stmt 1     @ ../Basic/Source/gd32e23x_timer.c:1455:36
	ldr	r2, [r0, #32]
	movw	r3, #4096
	movw	r1, #4096
	str	r1, [sp]                @ 4-byte Spill
	bics	r2, r3
	str	r2, [r0, #32]
	.loc	4 1458 36               @ ../Basic/Source/gd32e23x_timer.c:1458:36
	ldr	r2, [r0, #32]
	movw	r3, #40960
	bics	r2, r3
	str	r2, [r0, #32]
	.loc	4 1459 69               @ ../Basic/Source/gd32e23x_timer.c:1459:69
	ldrh	r2, [r4]
	.loc	4 1459 81 is_stmt 0     @ ../Basic/Source/gd32e23x_timer.c:1459:81
	lsls	r2, r2, #12
	.loc	4 1459 36               @ ../Basic/Source/gd32e23x_timer.c:1459:36
	ldr	r3, [r0, #32]
	orrs	r3, r2
	str	r3, [r0, #32]
	.loc	4 1462 36 is_stmt 1     @ ../Basic/Source/gd32e23x_timer.c:1462:36
	ldr	r2, [r0, #28]
	movw	r3, #768
	bics	r2, r3
	str	r2, [r0, #28]
	.loc	4 1462 9 is_stmt 0      @ ../Basic/Source/gd32e23x_timer.c:1462:9
	mov	r5, r0
	adds	r5, #28
	.loc	4 1455 9 is_stmt 1      @ ../Basic/Source/gd32e23x_timer.c:1455:9
	mov	r6, r0
	adds	r6, #32
	.loc	4 1463 69               @ ../Basic/Source/gd32e23x_timer.c:1463:69
	ldrh	r2, [r4, #2]
	.loc	4 1463 82 is_stmt 0     @ ../Basic/Source/gd32e23x_timer.c:1463:82
	lsls	r3, r2, #8
	.loc	4 1463 36               @ ../Basic/Source/gd32e23x_timer.c:1463:36
	ldr	r7, [r0, #28]
.Ltmp330:
.LBB53_8:
	@DEBUG_VALUE: timer_input_capture_config:channel <- [DW_OP_plus_uconst 4] [$sp+0]
	@DEBUG_VALUE: timer_input_capture_config:icpara <- $r4
	@DEBUG_VALUE: timer_input_capture_config:timer_periph <- $r0
	.loc	4 0 36                  @ ../Basic/Source/gd32e23x_timer.c:0:36
	movs	r2, #12
	ldr	r1, __arm_cp.53_0
.Ltmp331:
.LBB53_9:
	@DEBUG_VALUE: timer_input_capture_config:channel <- [DW_OP_plus_uconst 4] [$sp+0]
	@DEBUG_VALUE: timer_input_capture_config:icpara <- $r4
	@DEBUG_VALUE: timer_input_capture_config:timer_periph <- $r0
	orrs	r7, r3
	str	r7, [r5]
	ldr	r3, [r5]
	ands	r3, r1
	str	r3, [r5]
	ldrh	r3, [r4, #6]
	lsls	r3, r2
	ldr	r2, [r5]
	orrs	r2, r3
	str	r2, [r5]
	ldr	r2, [r6]
	ldr	r1, [sp]                @ 4-byte Reload
	orrs	r2, r1
	str	r2, [r6]
	ldr	r1, [sp, #4]            @ 4-byte Reload
.Ltmp332:
	@DEBUG_VALUE: timer_input_capture_config:channel <- $r1
.LBB53_10:
	@DEBUG_VALUE: timer_input_capture_config:icpara <- $r4
	@DEBUG_VALUE: timer_input_capture_config:channel <- $r1
	@DEBUG_VALUE: timer_input_capture_config:timer_periph <- $r0
	.loc	4 1476 92 is_stmt 1     @ ../Basic/Source/gd32e23x_timer.c:1476:92
	ldrh	r2, [r4, #4]
	.loc	4 1476 5 is_stmt 0      @ ../Basic/Source/gd32e23x_timer.c:1476:5
	add	sp, #8
	pop	{r4, r5, r6, r7}
.Ltmp333:
	b	timer_channel_input_capture_prescaler_config
.Ltmp334:
	.p2align	2
@ %bb.11:
	.loc	4 0 5                   @ ../Basic/Source/gd32e23x_timer.c:0:5
__arm_cp.53_0:
	.long	4294905855              @ 0xffff0fff
.Lcpi_end22:
	.size	__arm_cp.53_0, .Lcpi_end22-__arm_cp.53_0
__arm_cp.53_1:
	.long	4294967039              @ 0xfffffeff
.Lcpi_end23:
	.size	__arm_cp.53_1, .Lcpi_end23-__arm_cp.53_1
.Lfunc_end53:
	.size	timer_input_capture_config, .Lfunc_end53-timer_input_capture_config
	.cfi_endproc
	.cantunwind
	.fnend
                                        @ -- End function
	.section	.text.timer_channel_input_capture_prescaler_config,"ax",%progbits
	.hidden	timer_channel_input_capture_prescaler_config @ -- Begin function timer_channel_input_capture_prescaler_config
	.globl	timer_channel_input_capture_prescaler_config
	.p2align	2
	.type	timer_channel_input_capture_prescaler_config,%function
	.code	16                      @ @timer_channel_input_capture_prescaler_config
	.thumb_func
timer_channel_input_capture_prescaler_config:
.Lfunc_begin54:
	.loc	4 1498 0 is_stmt 1      @ ../Basic/Source/gd32e23x_timer.c:1498:0
	.fnstart
	.cfi_startproc
@ %bb.0:
	@DEBUG_VALUE: timer_channel_input_capture_prescaler_config:timer_periph <- $r0
	@DEBUG_VALUE: timer_channel_input_capture_prescaler_config:timer_periph <- $r0
	@DEBUG_VALUE: timer_channel_input_capture_prescaler_config:channel <- $r1
	@DEBUG_VALUE: timer_channel_input_capture_prescaler_config:channel <- $r1
	@DEBUG_VALUE: timer_channel_input_capture_prescaler_config:prescaler <- $r2
	@DEBUG_VALUE: timer_channel_input_capture_prescaler_config:prescaler <- $r2
	.save	{r4, lr}
	push	{r4, lr}
	.cfi_def_cfa_offset 8
	.cfi_offset lr, -4
	.cfi_offset r4, -8
.Ltmp335:
	.loc	4 1499 5 prologue_end   @ ../Basic/Source/gd32e23x_timer.c:1499:5
	cmp	r1, #3
	bhi	.LBB54_10
.Ltmp336:
@ %bb.1:
	@DEBUG_VALUE: timer_channel_input_capture_prescaler_config:prescaler <- $r2
	@DEBUG_VALUE: timer_channel_input_capture_prescaler_config:channel <- $r1
	@DEBUG_VALUE: timer_channel_input_capture_prescaler_config:timer_periph <- $r0
	@DEBUG_VALUE: timer_channel_input_capture_prescaler_config:prescaler <- $r2
	.loc	4 0 5 is_stmt 0         @ ../Basic/Source/gd32e23x_timer.c:0:5
	lsls	r3, r1, #2
	adr	r4, .LJTI54_0
	adds	r3, r4, r3
	mov	pc, r3
.Ltmp337:
@ %bb.2:
	.p2align	2
.LJTI54_0:
	b.w	.LBB54_3
	b.w	.LBB54_4
	b.w	.LBB54_6
	b.w	.LBB54_7
.LBB54_3:
.Ltmp338:
	@DEBUG_VALUE: timer_channel_input_capture_prescaler_config:prescaler <- $r2
	@DEBUG_VALUE: timer_channel_input_capture_prescaler_config:channel <- $r1
	@DEBUG_VALUE: timer_channel_input_capture_prescaler_config:timer_periph <- $r0
	.loc	4 1502 36 is_stmt 1     @ ../Basic/Source/gd32e23x_timer.c:1502:36
	ldr	r1, [r0, #24]
.Ltmp339:
	.loc	4 0 36 is_stmt 0        @ ../Basic/Source/gd32e23x_timer.c:0:36
	movs	r3, #12
	.loc	4 1502 36               @ ../Basic/Source/gd32e23x_timer.c:1502:36
	bics	r1, r3
	str	r1, [r0, #24]
	b	.LBB54_5
.Ltmp340:
.LBB54_4:
	@DEBUG_VALUE: timer_channel_input_capture_prescaler_config:prescaler <- $r2
	@DEBUG_VALUE: timer_channel_input_capture_prescaler_config:channel <- $r1
	@DEBUG_VALUE: timer_channel_input_capture_prescaler_config:timer_periph <- $r0
	.loc	4 1507 36 is_stmt 1     @ ../Basic/Source/gd32e23x_timer.c:1507:36
	ldr	r1, [r0, #24]
.Ltmp341:
	.loc	4 0 36 is_stmt 0        @ ../Basic/Source/gd32e23x_timer.c:0:36
	movw	r3, #3072
	.loc	4 1507 36               @ ../Basic/Source/gd32e23x_timer.c:1507:36
	bics	r1, r3
	str	r1, [r0, #24]
	.loc	4 1508 60 is_stmt 1     @ ../Basic/Source/gd32e23x_timer.c:1508:60
	lsls	r2, r2, #8
.Ltmp342:
.LBB54_5:
	@DEBUG_VALUE: timer_channel_input_capture_prescaler_config:timer_periph <- $r0
	.loc	4 0 0 is_stmt 0         @ ../Basic/Source/gd32e23x_timer.c:0:0
	adds	r0, #24
.Ltmp343:
	b	.LBB54_9
.LBB54_6:
.Ltmp344:
	@DEBUG_VALUE: timer_channel_input_capture_prescaler_config:prescaler <- $r2
	@DEBUG_VALUE: timer_channel_input_capture_prescaler_config:channel <- $r1
	@DEBUG_VALUE: timer_channel_input_capture_prescaler_config:timer_periph <- $r0
	.loc	4 1512 36 is_stmt 1     @ ../Basic/Source/gd32e23x_timer.c:1512:36
	ldr	r1, [r0, #28]
.Ltmp345:
	.loc	4 0 36 is_stmt 0        @ ../Basic/Source/gd32e23x_timer.c:0:36
	movs	r3, #12
	.loc	4 1512 36               @ ../Basic/Source/gd32e23x_timer.c:1512:36
	bics	r1, r3
	str	r1, [r0, #28]
	b	.LBB54_8
.Ltmp346:
.LBB54_7:
	@DEBUG_VALUE: timer_channel_input_capture_prescaler_config:prescaler <- $r2
	@DEBUG_VALUE: timer_channel_input_capture_prescaler_config:channel <- $r1
	@DEBUG_VALUE: timer_channel_input_capture_prescaler_config:timer_periph <- $r0
	.loc	4 1517 36 is_stmt 1     @ ../Basic/Source/gd32e23x_timer.c:1517:36
	ldr	r1, [r0, #28]
.Ltmp347:
	.loc	4 0 36 is_stmt 0        @ ../Basic/Source/gd32e23x_timer.c:0:36
	movw	r3, #3072
	.loc	4 1517 36               @ ../Basic/Source/gd32e23x_timer.c:1517:36
	bics	r1, r3
	str	r1, [r0, #28]
	.loc	4 1518 60 is_stmt 1     @ ../Basic/Source/gd32e23x_timer.c:1518:60
	lsls	r2, r2, #8
.Ltmp348:
.LBB54_8:
	@DEBUG_VALUE: timer_channel_input_capture_prescaler_config:timer_periph <- $r0
	.loc	4 0 0 is_stmt 0         @ ../Basic/Source/gd32e23x_timer.c:0:0
	adds	r0, #28
.Ltmp349:
.LBB54_9:
	ldr	r1, [r0]
	orrs	r1, r2
	str	r1, [r0]
.Ltmp350:
.LBB54_10:
	.loc	4 1523 1 is_stmt 1      @ ../Basic/Source/gd32e23x_timer.c:1523:1
	pop	{r4, pc}
.Ltmp351:
.Lfunc_end54:
	.size	timer_channel_input_capture_prescaler_config, .Lfunc_end54-timer_channel_input_capture_prescaler_config
	.cfi_endproc
	.cantunwind
	.fnend
                                        @ -- End function
	.section	.text.timer_channel_capture_value_register_read,"ax",%progbits
	.hidden	timer_channel_capture_value_register_read @ -- Begin function timer_channel_capture_value_register_read
	.globl	timer_channel_capture_value_register_read
	.p2align	1
	.type	timer_channel_capture_value_register_read,%function
	.code	16                      @ @timer_channel_capture_value_register_read
	.thumb_func
timer_channel_capture_value_register_read:
.Lfunc_begin55:
	.loc	4 1538 0                @ ../Basic/Source/gd32e23x_timer.c:1538:0
	.fnstart
	.cfi_startproc
@ %bb.0:
	@DEBUG_VALUE: timer_channel_capture_value_register_read:timer_periph <- $r0
	@DEBUG_VALUE: timer_channel_capture_value_register_read:timer_periph <- $r0
	@DEBUG_VALUE: timer_channel_capture_value_register_read:channel <- $r1
	@DEBUG_VALUE: timer_channel_capture_value_register_read:channel <- $r1
	@DEBUG_VALUE: timer_channel_capture_value_register_read:count_value <- 0
	.loc	4 1541 5 prologue_end   @ ../Basic/Source/gd32e23x_timer.c:1541:5
	cmp	r1, #3
	bhi	.LBB55_2
.Ltmp352:
@ %bb.1:
	@DEBUG_VALUE: timer_channel_capture_value_register_read:count_value <- 0
	@DEBUG_VALUE: timer_channel_capture_value_register_read:channel <- $r1
	@DEBUG_VALUE: timer_channel_capture_value_register_read:timer_periph <- $r0
	lsls	r1, r1, #2
.Ltmp353:
	adds	r0, r1, r0
.Ltmp354:
	.loc	4 0 0 is_stmt 0         @ ../Basic/Source/gd32e23x_timer.c:0:0
	ldr	r0, [r0, #52]
.Ltmp355:
	@DEBUG_VALUE: timer_channel_capture_value_register_read:count_value <- $r0
	.loc	4 1561 5 is_stmt 1      @ ../Basic/Source/gd32e23x_timer.c:1561:5
	bx	lr
.Ltmp356:
.LBB55_2:
	@DEBUG_VALUE: timer_channel_capture_value_register_read:count_value <- 0
	@DEBUG_VALUE: timer_channel_capture_value_register_read:channel <- $r1
	@DEBUG_VALUE: timer_channel_capture_value_register_read:timer_periph <- $r0
	.loc	4 0 5 is_stmt 0         @ ../Basic/Source/gd32e23x_timer.c:0:5
	movs	r0, #0
.Ltmp357:
	@DEBUG_VALUE: timer_channel_capture_value_register_read:count_value <- $r0
	.loc	4 1561 5                @ ../Basic/Source/gd32e23x_timer.c:1561:5
	bx	lr
.Ltmp358:
.Lfunc_end55:
	.size	timer_channel_capture_value_register_read, .Lfunc_end55-timer_channel_capture_value_register_read
	.cfi_endproc
	.cantunwind
	.fnend
                                        @ -- End function
	.section	.text.timer_input_pwm_capture_config,"ax",%progbits
	.hidden	timer_input_pwm_capture_config @ -- Begin function timer_input_pwm_capture_config
	.globl	timer_input_pwm_capture_config
	.p2align	2
	.type	timer_input_pwm_capture_config,%function
	.code	16                      @ @timer_input_pwm_capture_config
	.thumb_func
timer_input_pwm_capture_config:
.Lfunc_begin56:
	.loc	4 1580 0 is_stmt 1      @ ../Basic/Source/gd32e23x_timer.c:1580:0
	.fnstart
	.cfi_startproc
@ %bb.0:
	@DEBUG_VALUE: timer_input_pwm_capture_config:timer_periph <- $r0
	@DEBUG_VALUE: timer_input_pwm_capture_config:timer_periph <- $r0
	@DEBUG_VALUE: timer_input_pwm_capture_config:channel <- $r1
	@DEBUG_VALUE: timer_input_pwm_capture_config:channel <- $r1
	@DEBUG_VALUE: timer_input_pwm_capture_config:icpwm <- $r2
	@DEBUG_VALUE: timer_input_pwm_capture_config:icpwm <- $r2
	.save	{r4, r5, r6, r7, lr}
	.pad	#4
	push	{r3, r4, r5, r6, r7, lr}
	.cfi_def_cfa_offset 24
	.cfi_offset lr, -4
	.cfi_offset r7, -8
	.cfi_offset r6, -12
	.cfi_offset r5, -16
	.cfi_offset r4, -20
.Ltmp359:
	@DEBUG_VALUE: timer_input_pwm_capture_config:icpolarity <- undef
	@DEBUG_VALUE: timer_input_pwm_capture_config:icselection <- 0
	.loc	4 1592 46 prologue_end  @ ../Basic/Source/gd32e23x_timer.c:1592:46
	ldrh	r4, [r2, #2]
.Ltmp360:
	.loc	4 1592 8 is_stmt 0      @ ../Basic/Source/gd32e23x_timer.c:1592:8
	cmp	r4, #1
	beq	.LBB56_2
.Ltmp361:
@ %bb.1:
	@DEBUG_VALUE: timer_input_pwm_capture_config:icselection <- 0
	@DEBUG_VALUE: timer_input_pwm_capture_config:icpwm <- $r2
	@DEBUG_VALUE: timer_input_pwm_capture_config:channel <- $r1
	@DEBUG_VALUE: timer_input_pwm_capture_config:timer_periph <- $r0
	.loc	4 0 8                   @ ../Basic/Source/gd32e23x_timer.c:0:8
	movs	r3, #1
	b	.LBB56_3
.Ltmp362:
.LBB56_2:
	@DEBUG_VALUE: timer_input_pwm_capture_config:icselection <- 0
	@DEBUG_VALUE: timer_input_pwm_capture_config:icpwm <- $r2
	@DEBUG_VALUE: timer_input_pwm_capture_config:channel <- $r1
	@DEBUG_VALUE: timer_input_pwm_capture_config:timer_periph <- $r0
	movs	r3, #2
.Ltmp363:
.LBB56_3:
	@DEBUG_VALUE: timer_input_pwm_capture_config:icselection <- 0
	@DEBUG_VALUE: timer_input_pwm_capture_config:icpwm <- $r2
	@DEBUG_VALUE: timer_input_pwm_capture_config:channel <- $r1
	@DEBUG_VALUE: timer_input_pwm_capture_config:timer_periph <- $r0
	str	r3, [sp]                @ 4-byte Spill
.Ltmp364:
	.loc	4 1585 43 is_stmt 1     @ ../Basic/Source/gd32e23x_timer.c:1585:43
	ldrh	r7, [r2]
	rsbs	r3, r7, #0
	adcs	r3, r7
	lsls	r5, r3, #1
.Ltmp365:
	@DEBUG_VALUE: timer_input_pwm_capture_config:icselection <- undef
	.loc	4 0 0 is_stmt 0         @ ../Basic/Source/gd32e23x_timer.c:0:0
	ldr	r3, [r0, #32]
.Ltmp366:
	.loc	4 1598 8 is_stmt 1      @ ../Basic/Source/gd32e23x_timer.c:1598:8
	cmp	r1, #0
	beq	.LBB56_5
.Ltmp367:
@ %bb.4:
	@DEBUG_VALUE: timer_input_pwm_capture_config:icselection <- 0
	@DEBUG_VALUE: timer_input_pwm_capture_config:icpwm <- $r2
	@DEBUG_VALUE: timer_input_pwm_capture_config:channel <- $r1
	@DEBUG_VALUE: timer_input_pwm_capture_config:timer_periph <- $r0
	.loc	4 0 8 is_stmt 0         @ ../Basic/Source/gd32e23x_timer.c:0:8
	movs	r1, #16
.Ltmp368:
	.loc	4 1638 36 is_stmt 1     @ ../Basic/Source/gd32e23x_timer.c:1638:36
	bics	r3, r1
	str	r3, [r0, #32]
	.loc	4 1640 36               @ ../Basic/Source/gd32e23x_timer.c:1640:36
	ldr	r3, [r0, #32]
	movs	r6, #160
	bics	r3, r6
	str	r3, [r0, #32]
	.loc	4 1642 80               @ ../Basic/Source/gd32e23x_timer.c:1642:80
	lsls	r3, r7, #4
	.loc	4 1642 36 is_stmt 0     @ ../Basic/Source/gd32e23x_timer.c:1642:36
	ldr	r6, [r0, #32]
	orrs	r6, r3
	str	r6, [r0, #32]
	.loc	4 1644 36 is_stmt 1     @ ../Basic/Source/gd32e23x_timer.c:1644:36
	ldr	r3, [r0, #24]
	ldr	r6, __arm_cp.56_2
	ands	r3, r6
	str	r3, [r0, #24]
	.loc	4 1646 81               @ ../Basic/Source/gd32e23x_timer.c:1646:81
	lsls	r3, r4, #8
	.loc	4 1646 36 is_stmt 0     @ ../Basic/Source/gd32e23x_timer.c:1646:36
	ldr	r4, [r0, #24]
	orrs	r4, r3
	str	r4, [r0, #24]
	.loc	4 1648 36 is_stmt 1     @ ../Basic/Source/gd32e23x_timer.c:1648:36
	ldr	r3, [r0, #24]
	ldr	r4, __arm_cp.56_0
	ands	r3, r4
	str	r3, [r0, #24]
	.loc	4 1650 68               @ ../Basic/Source/gd32e23x_timer.c:1650:68
	ldrh	r4, [r2, #6]
	.loc	4 1650 78 is_stmt 0     @ ../Basic/Source/gd32e23x_timer.c:1650:78
	lsls	r3, r4, #12
	.loc	4 1650 36               @ ../Basic/Source/gd32e23x_timer.c:1650:36
	ldr	r6, [r0, #24]
	orrs	r6, r3
	str	r6, [r0, #24]
	.loc	4 1652 36 is_stmt 1     @ ../Basic/Source/gd32e23x_timer.c:1652:36
	ldr	r3, [r0, #32]
	orrs	r3, r1
	str	r3, [r0, #32]
.Ltmp369:
	@DEBUG_VALUE: timer_channel_input_capture_prescaler_config:prescaler <- undef
	@DEBUG_VALUE: timer_channel_input_capture_prescaler_config:channel <- 1
	@DEBUG_VALUE: timer_channel_input_capture_prescaler_config:timer_periph <- $r0
	.loc	4 1507 36               @ ../Basic/Source/gd32e23x_timer.c:1507:36
	ldr	r1, [r0, #24]
	ldr	r3, __arm_cp.56_1
	ands	r1, r3
	str	r1, [r0, #24]
.Ltmp370:
	.loc	4 1654 98               @ ../Basic/Source/gd32e23x_timer.c:1654:98
	ldrh	r1, [r2, #4]
.Ltmp371:
	.loc	4 1508 60               @ ../Basic/Source/gd32e23x_timer.c:1508:60
	lsls	r2, r1, #8
.Ltmp372:
	@DEBUG_VALUE: timer_channel_input_capture_prescaler_config:channel <- 1
	@DEBUG_VALUE: timer_channel_input_capture_prescaler_config:timer_periph <- $r0
	.loc	4 1508 36 is_stmt 0     @ ../Basic/Source/gd32e23x_timer.c:1508:36
	ldr	r3, [r0, #24]
	orrs	r3, r2
	str	r3, [r0, #24]
.Ltmp373:
	.loc	4 1657 36 is_stmt 1     @ ../Basic/Source/gd32e23x_timer.c:1657:36
	ldr	r3, [r0, #32]
	movs	r2, #1
	bics	r3, r2
	str	r3, [r0, #32]
	.loc	4 1659 36               @ ../Basic/Source/gd32e23x_timer.c:1659:36
	ldr	r3, [r0, #32]
	movs	r6, #10
	bics	r3, r6
	str	r3, [r0, #32]
	.loc	4 1661 36               @ ../Basic/Source/gd32e23x_timer.c:1661:36
	ldr	r3, [r0, #32]
	orrs	r3, r5
	str	r3, [r0, #32]
	.loc	4 1663 36               @ ../Basic/Source/gd32e23x_timer.c:1663:36
	ldr	r3, [r0, #24]
	movs	r5, #3
	bics	r3, r5
	str	r3, [r0, #24]
	.loc	4 1665 36               @ ../Basic/Source/gd32e23x_timer.c:1665:36
	ldr	r3, [r0, #24]
	ldr	r5, [sp]                @ 4-byte Reload
	orrs	r3, r5
	str	r3, [r0, #24]
	.loc	4 1667 36               @ ../Basic/Source/gd32e23x_timer.c:1667:36
	ldr	r3, [r0, #24]
	movs	r5, #240
	bics	r3, r5
	str	r3, [r0, #24]
	.loc	4 1669 68               @ ../Basic/Source/gd32e23x_timer.c:1669:68
	lsls	r3, r4, #4
	.loc	4 1669 36 is_stmt 0     @ ../Basic/Source/gd32e23x_timer.c:1669:36
	ldr	r4, [r0, #24]
	orrs	r4, r3
	str	r4, [r0, #24]
	.loc	4 1671 36 is_stmt 1     @ ../Basic/Source/gd32e23x_timer.c:1671:36
	ldr	r3, [r0, #32]
	orrs	r3, r2
	str	r3, [r0, #32]
.Ltmp374:
	@DEBUG_VALUE: timer_channel_input_capture_prescaler_config:prescaler <- undef
	@DEBUG_VALUE: timer_channel_input_capture_prescaler_config:channel <- 0
	@DEBUG_VALUE: timer_channel_input_capture_prescaler_config:timer_periph <- $r0
	.loc	4 1502 36               @ ../Basic/Source/gd32e23x_timer.c:1502:36
	ldr	r2, [r0, #24]
	movs	r3, #12
	bics	r2, r3
	str	r2, [r0, #24]
.Ltmp375:
	.loc	4 1644 9                @ ../Basic/Source/gd32e23x_timer.c:1644:9
	adds	r0, #24
.Ltmp376:
	.loc	4 0 9 is_stmt 0         @ ../Basic/Source/gd32e23x_timer.c:0:9
	b	.LBB56_6
.Ltmp377:
.LBB56_5:
	@DEBUG_VALUE: timer_input_pwm_capture_config:icselection <- 0
	@DEBUG_VALUE: timer_input_pwm_capture_config:icpwm <- $r2
	@DEBUG_VALUE: timer_input_pwm_capture_config:channel <- $r1
	@DEBUG_VALUE: timer_input_pwm_capture_config:timer_periph <- $r0
	movs	r6, #1
.Ltmp378:
	.loc	4 1600 36 is_stmt 1     @ ../Basic/Source/gd32e23x_timer.c:1600:36
	bics	r3, r6
	str	r3, [r0, #32]
	.loc	4 1602 36               @ ../Basic/Source/gd32e23x_timer.c:1602:36
	ldr	r1, [r0, #32]
.Ltmp379:
	.loc	4 0 36 is_stmt 0        @ ../Basic/Source/gd32e23x_timer.c:0:36
	movs	r3, #10
	.loc	4 1602 36               @ ../Basic/Source/gd32e23x_timer.c:1602:36
	bics	r1, r3
	str	r1, [r0, #32]
	.loc	4 1604 36 is_stmt 1     @ ../Basic/Source/gd32e23x_timer.c:1604:36
	ldr	r1, [r0, #32]
	orrs	r1, r7
	str	r1, [r0, #32]
	.loc	4 1606 36               @ ../Basic/Source/gd32e23x_timer.c:1606:36
	ldr	r1, [r0, #24]
	movs	r3, #3
	bics	r1, r3
	str	r1, [r0, #24]
	.loc	4 1608 36               @ ../Basic/Source/gd32e23x_timer.c:1608:36
	ldr	r1, [r0, #24]
	orrs	r1, r4
	str	r1, [r0, #24]
	.loc	4 1610 36               @ ../Basic/Source/gd32e23x_timer.c:1610:36
	ldr	r1, [r0, #24]
	movs	r3, #240
	bics	r1, r3
	str	r1, [r0, #24]
	.loc	4 1612 58               @ ../Basic/Source/gd32e23x_timer.c:1612:58
	ldrh	r1, [r2, #6]
	.loc	4 1612 68 is_stmt 0     @ ../Basic/Source/gd32e23x_timer.c:1612:68
	lsls	r3, r1, #4
	.loc	4 1612 36               @ ../Basic/Source/gd32e23x_timer.c:1612:36
	ldr	r4, [r0, #24]
	orrs	r4, r3
	str	r4, [r0, #24]
	.loc	4 1614 36 is_stmt 1     @ ../Basic/Source/gd32e23x_timer.c:1614:36
	ldr	r3, [r0, #32]
	orrs	r3, r6
	str	r3, [r0, #32]
.Ltmp380:
	@DEBUG_VALUE: timer_channel_input_capture_prescaler_config:prescaler <- undef
	@DEBUG_VALUE: timer_channel_input_capture_prescaler_config:channel <- 0
	@DEBUG_VALUE: timer_channel_input_capture_prescaler_config:timer_periph <- $r0
	.loc	4 1502 36               @ ../Basic/Source/gd32e23x_timer.c:1502:36
	ldr	r3, [r0, #24]
	movs	r4, #12
	bics	r3, r4
	str	r3, [r0, #24]
.Ltmp381:
	.loc	4 1616 96               @ ../Basic/Source/gd32e23x_timer.c:1616:96
	ldrh	r2, [r2, #4]
.Ltmp382:
	.loc	4 1503 36               @ ../Basic/Source/gd32e23x_timer.c:1503:36
	ldr	r3, [r0, #24]
	@DEBUG_VALUE: timer_channel_input_capture_prescaler_config:channel <- 0
	@DEBUG_VALUE: timer_channel_input_capture_prescaler_config:timer_periph <- $r0
	orrs	r3, r2
	str	r3, [r0, #24]
.Ltmp383:
	.loc	4 1619 36               @ ../Basic/Source/gd32e23x_timer.c:1619:36
	ldr	r3, [r0, #32]
	movs	r4, #16
	bics	r3, r4
	str	r3, [r0, #32]
	.loc	4 1621 36               @ ../Basic/Source/gd32e23x_timer.c:1621:36
	ldr	r3, [r0, #32]
	movs	r6, #160
	bics	r3, r6
	str	r3, [r0, #32]
	.loc	4 1623 71               @ ../Basic/Source/gd32e23x_timer.c:1623:71
	lsls	r3, r5, #4
	.loc	4 1623 36 is_stmt 0     @ ../Basic/Source/gd32e23x_timer.c:1623:36
	ldr	r5, [r0, #32]
	orrs	r5, r3
	str	r5, [r0, #32]
	.loc	4 1625 36 is_stmt 1     @ ../Basic/Source/gd32e23x_timer.c:1625:36
	ldr	r3, [r0, #24]
	ldr	r5, __arm_cp.56_2
	ands	r3, r5
	str	r3, [r0, #24]
	.loc	4 1627 72               @ ../Basic/Source/gd32e23x_timer.c:1627:72
	ldr	r3, [sp]                @ 4-byte Reload
	lsls	r3, r3, #8
	.loc	4 1627 36 is_stmt 0     @ ../Basic/Source/gd32e23x_timer.c:1627:36
	ldr	r5, [r0, #24]
	orrs	r5, r3
	str	r5, [r0, #24]
	.loc	4 1629 36 is_stmt 1     @ ../Basic/Source/gd32e23x_timer.c:1629:36
	ldr	r3, [r0, #24]
	ldr	r5, __arm_cp.56_0
	ands	r3, r5
	str	r3, [r0, #24]
	.loc	4 1631 78               @ ../Basic/Source/gd32e23x_timer.c:1631:78
	lsls	r1, r1, #12
	.loc	4 1631 36 is_stmt 0     @ ../Basic/Source/gd32e23x_timer.c:1631:36
	ldr	r3, [r0, #24]
	orrs	r3, r1
	str	r3, [r0, #24]
	.loc	4 1633 36 is_stmt 1     @ ../Basic/Source/gd32e23x_timer.c:1633:36
	ldr	r1, [r0, #32]
	orrs	r1, r4
	str	r1, [r0, #32]
.Ltmp384:
	@DEBUG_VALUE: timer_channel_input_capture_prescaler_config:prescaler <- undef
	@DEBUG_VALUE: timer_channel_input_capture_prescaler_config:channel <- 1
	@DEBUG_VALUE: timer_channel_input_capture_prescaler_config:timer_periph <- $r0
	.loc	4 1507 36               @ ../Basic/Source/gd32e23x_timer.c:1507:36
	ldr	r1, [r0, #24]
	ldr	r3, __arm_cp.56_1
	ands	r1, r3
	str	r1, [r0, #24]
.Ltmp385:
	.loc	4 1606 9                @ ../Basic/Source/gd32e23x_timer.c:1606:9
	adds	r0, #24
.Ltmp386:
	.loc	4 1508 60               @ ../Basic/Source/gd32e23x_timer.c:1508:60
	lsls	r1, r2, #8
.Ltmp387:
	@DEBUG_VALUE: timer_channel_input_capture_prescaler_config:channel <- 1
.LBB56_6:
	@DEBUG_VALUE: timer_input_pwm_capture_config:icselection <- 0
	.loc	4 0 0 is_stmt 0         @ ../Basic/Source/gd32e23x_timer.c:0:0
	ldr	r2, [r0]
	orrs	r2, r1
	str	r2, [r0]
.Ltmp388:
	.loc	4 1675 1 is_stmt 1      @ ../Basic/Source/gd32e23x_timer.c:1675:1
	pop	{r3, r4, r5, r6, r7, pc}
.Ltmp389:
	.p2align	2
@ %bb.7:
	.loc	4 0 1 is_stmt 0         @ ../Basic/Source/gd32e23x_timer.c:0:1
__arm_cp.56_0:
	.long	4294905855              @ 0xffff0fff
.Lcpi_end24:
	.size	__arm_cp.56_0, .Lcpi_end24-__arm_cp.56_0
__arm_cp.56_1:
	.long	4294964223              @ 0xfffff3ff
.Lcpi_end25:
	.size	__arm_cp.56_1, .Lcpi_end25-__arm_cp.56_1
__arm_cp.56_2:
	.long	4294966527              @ 0xfffffcff
.Lcpi_end26:
	.size	__arm_cp.56_2, .Lcpi_end26-__arm_cp.56_2
.Lfunc_end56:
	.size	timer_input_pwm_capture_config, .Lfunc_end56-timer_input_pwm_capture_config
	.cfi_endproc
	.cantunwind
	.fnend
                                        @ -- End function
	.section	.text.timer_hall_mode_config,"ax",%progbits
	.hidden	timer_hall_mode_config  @ -- Begin function timer_hall_mode_config
	.globl	timer_hall_mode_config
	.p2align	1
	.type	timer_hall_mode_config,%function
	.code	16                      @ @timer_hall_mode_config
	.thumb_func
timer_hall_mode_config:
.Lfunc_begin57:
	.loc	4 1688 0 is_stmt 1      @ ../Basic/Source/gd32e23x_timer.c:1688:0
	.fnstart
	.cfi_startproc
@ %bb.0:
	@DEBUG_VALUE: timer_hall_mode_config:timer_periph <- $r0
	@DEBUG_VALUE: timer_hall_mode_config:timer_periph <- $r0
	@DEBUG_VALUE: timer_hall_mode_config:hallmode <- $r1
	@DEBUG_VALUE: timer_hall_mode_config:hallmode <- $r1
	.loc	4 1689 8 prologue_end   @ ../Basic/Source/gd32e23x_timer.c:1689:8
	cbz	r1, .LBB57_3
.Ltmp390:
@ %bb.1:
	@DEBUG_VALUE: timer_hall_mode_config:hallmode <- $r1
	@DEBUG_VALUE: timer_hall_mode_config:timer_periph <- $r0
	cmp	r1, #128
	bne	.LBB57_4
.Ltmp391:
@ %bb.2:
	@DEBUG_VALUE: timer_hall_mode_config:hallmode <- $r1
	@DEBUG_VALUE: timer_hall_mode_config:timer_periph <- $r0
	.loc	4 1690 34               @ ../Basic/Source/gd32e23x_timer.c:1690:34
	ldr	r1, [r0, #4]
.Ltmp392:
	.loc	4 0 34 is_stmt 0        @ ../Basic/Source/gd32e23x_timer.c:0:34
	movs	r2, #128
	.loc	4 1690 34               @ ../Basic/Source/gd32e23x_timer.c:1690:34
	orrs	r2, r1
	str	r2, [r0, #4]
.Ltmp393:
	.loc	4 1696 1 is_stmt 1      @ ../Basic/Source/gd32e23x_timer.c:1696:1
	bx	lr
.Ltmp394:
.LBB57_3:
	@DEBUG_VALUE: timer_hall_mode_config:hallmode <- $r1
	@DEBUG_VALUE: timer_hall_mode_config:timer_periph <- $r0
	.loc	4 1692 34               @ ../Basic/Source/gd32e23x_timer.c:1692:34
	ldr	r1, [r0, #4]
.Ltmp395:
	.loc	4 0 34 is_stmt 0        @ ../Basic/Source/gd32e23x_timer.c:0:34
	movs	r2, #128
	.loc	4 1692 34               @ ../Basic/Source/gd32e23x_timer.c:1692:34
	bics	r1, r2
	str	r1, [r0, #4]
.Ltmp396:
.LBB57_4:
	@DEBUG_VALUE: timer_hall_mode_config:timer_periph <- $r0
	.loc	4 1696 1 is_stmt 1      @ ../Basic/Source/gd32e23x_timer.c:1696:1
	bx	lr
.Ltmp397:
.Lfunc_end57:
	.size	timer_hall_mode_config, .Lfunc_end57-timer_hall_mode_config
	.cfi_endproc
	.cantunwind
	.fnend
                                        @ -- End function
	.section	.text.timer_input_trigger_source_select,"ax",%progbits
	.hidden	timer_input_trigger_source_select @ -- Begin function timer_input_trigger_source_select
	.globl	timer_input_trigger_source_select
	.p2align	1
	.type	timer_input_trigger_source_select,%function
	.code	16                      @ @timer_input_trigger_source_select
	.thumb_func
timer_input_trigger_source_select:
.Lfunc_begin58:
	.loc	4 1714 0                @ ../Basic/Source/gd32e23x_timer.c:1714:0
	.fnstart
	.cfi_startproc
@ %bb.0:
	@DEBUG_VALUE: timer_input_trigger_source_select:timer_periph <- $r0
	@DEBUG_VALUE: timer_input_trigger_source_select:timer_periph <- $r0
	@DEBUG_VALUE: timer_input_trigger_source_select:intrigger <- $r1
	@DEBUG_VALUE: timer_input_trigger_source_select:intrigger <- $r1
	.loc	4 1715 31 prologue_end  @ ../Basic/Source/gd32e23x_timer.c:1715:31
	ldr	r2, [r0, #8]
	movs	r3, #112
	bics	r2, r3
	str	r2, [r0, #8]
	.loc	4 1716 31               @ ../Basic/Source/gd32e23x_timer.c:1716:31
	ldr	r2, [r0, #8]
	orrs	r2, r1
	str	r2, [r0, #8]
	.loc	4 1717 1                @ ../Basic/Source/gd32e23x_timer.c:1717:1
	bx	lr
.Ltmp398:
.Lfunc_end58:
	.size	timer_input_trigger_source_select, .Lfunc_end58-timer_input_trigger_source_select
	.cfi_endproc
	.cantunwind
	.fnend
                                        @ -- End function
	.section	.text.timer_master_output_trigger_source_select,"ax",%progbits
	.hidden	timer_master_output_trigger_source_select @ -- Begin function timer_master_output_trigger_source_select
	.globl	timer_master_output_trigger_source_select
	.p2align	1
	.type	timer_master_output_trigger_source_select,%function
	.code	16                      @ @timer_master_output_trigger_source_select
	.thumb_func
timer_master_output_trigger_source_select:
.Lfunc_begin59:
	.loc	4 1736 0                @ ../Basic/Source/gd32e23x_timer.c:1736:0
	.fnstart
	.cfi_startproc
@ %bb.0:
	@DEBUG_VALUE: timer_master_output_trigger_source_select:timer_periph <- $r0
	@DEBUG_VALUE: timer_master_output_trigger_source_select:timer_periph <- $r0
	@DEBUG_VALUE: timer_master_output_trigger_source_select:outrigger <- $r1
	@DEBUG_VALUE: timer_master_output_trigger_source_select:outrigger <- $r1
	.loc	4 1737 30 prologue_end  @ ../Basic/Source/gd32e23x_timer.c:1737:30
	ldr	r2, [r0, #4]
	movs	r3, #112
	bics	r2, r3
	str	r2, [r0, #4]
	.loc	4 1738 30               @ ../Basic/Source/gd32e23x_timer.c:1738:30
	ldr	r2, [r0, #4]
	orrs	r2, r1
	str	r2, [r0, #4]
	.loc	4 1739 1                @ ../Basic/Source/gd32e23x_timer.c:1739:1
	bx	lr
.Ltmp399:
.Lfunc_end59:
	.size	timer_master_output_trigger_source_select, .Lfunc_end59-timer_master_output_trigger_source_select
	.cfi_endproc
	.cantunwind
	.fnend
                                        @ -- End function
	.section	.text.timer_slave_mode_select,"ax",%progbits
	.hidden	timer_slave_mode_select @ -- Begin function timer_slave_mode_select
	.globl	timer_slave_mode_select
	.p2align	1
	.type	timer_slave_mode_select,%function
	.code	16                      @ @timer_slave_mode_select
	.thumb_func
timer_slave_mode_select:
.Lfunc_begin60:
	.loc	4 1759 0                @ ../Basic/Source/gd32e23x_timer.c:1759:0
	.fnstart
	.cfi_startproc
@ %bb.0:
	@DEBUG_VALUE: timer_slave_mode_select:timer_periph <- $r0
	@DEBUG_VALUE: timer_slave_mode_select:timer_periph <- $r0
	@DEBUG_VALUE: timer_slave_mode_select:slavemode <- $r1
	@DEBUG_VALUE: timer_slave_mode_select:slavemode <- $r1
	.loc	4 1760 31 prologue_end  @ ../Basic/Source/gd32e23x_timer.c:1760:31
	ldr	r2, [r0, #8]
	movs	r3, #7
	bics	r2, r3
	str	r2, [r0, #8]
	.loc	4 1762 31               @ ../Basic/Source/gd32e23x_timer.c:1762:31
	ldr	r2, [r0, #8]
	orrs	r2, r1
	str	r2, [r0, #8]
	.loc	4 1763 1                @ ../Basic/Source/gd32e23x_timer.c:1763:1
	bx	lr
.Ltmp400:
.Lfunc_end60:
	.size	timer_slave_mode_select, .Lfunc_end60-timer_slave_mode_select
	.cfi_endproc
	.cantunwind
	.fnend
                                        @ -- End function
	.section	.text.timer_master_slave_mode_config,"ax",%progbits
	.hidden	timer_master_slave_mode_config @ -- Begin function timer_master_slave_mode_config
	.globl	timer_master_slave_mode_config
	.p2align	1
	.type	timer_master_slave_mode_config,%function
	.code	16                      @ @timer_master_slave_mode_config
	.thumb_func
timer_master_slave_mode_config:
.Lfunc_begin61:
	.loc	4 1776 0                @ ../Basic/Source/gd32e23x_timer.c:1776:0
	.fnstart
	.cfi_startproc
@ %bb.0:
	@DEBUG_VALUE: timer_master_slave_mode_config:timer_periph <- $r0
	@DEBUG_VALUE: timer_master_slave_mode_config:timer_periph <- $r0
	@DEBUG_VALUE: timer_master_slave_mode_config:masterslave <- $r1
	@DEBUG_VALUE: timer_master_slave_mode_config:masterslave <- $r1
	.loc	4 1777 8 prologue_end   @ ../Basic/Source/gd32e23x_timer.c:1777:8
	cbz	r1, .LBB61_3
.Ltmp401:
@ %bb.1:
	@DEBUG_VALUE: timer_master_slave_mode_config:masterslave <- $r1
	@DEBUG_VALUE: timer_master_slave_mode_config:timer_periph <- $r0
	cmp	r1, #128
	bne	.LBB61_4
.Ltmp402:
@ %bb.2:
	@DEBUG_VALUE: timer_master_slave_mode_config:masterslave <- $r1
	@DEBUG_VALUE: timer_master_slave_mode_config:timer_periph <- $r0
	.loc	4 1778 35               @ ../Basic/Source/gd32e23x_timer.c:1778:35
	ldr	r1, [r0, #8]
.Ltmp403:
	.loc	4 0 35 is_stmt 0        @ ../Basic/Source/gd32e23x_timer.c:0:35
	movs	r2, #128
	.loc	4 1778 35               @ ../Basic/Source/gd32e23x_timer.c:1778:35
	orrs	r2, r1
	str	r2, [r0, #8]
.Ltmp404:
	.loc	4 1784 1 is_stmt 1      @ ../Basic/Source/gd32e23x_timer.c:1784:1
	bx	lr
.Ltmp405:
.LBB61_3:
	@DEBUG_VALUE: timer_master_slave_mode_config:masterslave <- $r1
	@DEBUG_VALUE: timer_master_slave_mode_config:timer_periph <- $r0
	.loc	4 1780 35               @ ../Basic/Source/gd32e23x_timer.c:1780:35
	ldr	r1, [r0, #8]
.Ltmp406:
	.loc	4 0 35 is_stmt 0        @ ../Basic/Source/gd32e23x_timer.c:0:35
	movs	r2, #128
	.loc	4 1780 35               @ ../Basic/Source/gd32e23x_timer.c:1780:35
	bics	r1, r2
	str	r1, [r0, #8]
.Ltmp407:
.LBB61_4:
	@DEBUG_VALUE: timer_master_slave_mode_config:timer_periph <- $r0
	.loc	4 1784 1 is_stmt 1      @ ../Basic/Source/gd32e23x_timer.c:1784:1
	bx	lr
.Ltmp408:
.Lfunc_end61:
	.size	timer_master_slave_mode_config, .Lfunc_end61-timer_master_slave_mode_config
	.cfi_endproc
	.cantunwind
	.fnend
                                        @ -- End function
	.section	.text.timer_external_trigger_config,"ax",%progbits
	.hidden	timer_external_trigger_config @ -- Begin function timer_external_trigger_config
	.globl	timer_external_trigger_config
	.p2align	1
	.type	timer_external_trigger_config,%function
	.code	16                      @ @timer_external_trigger_config
	.thumb_func
timer_external_trigger_config:
.Lfunc_begin62:
	.loc	4 1805 0                @ ../Basic/Source/gd32e23x_timer.c:1805:0
	.fnstart
	.cfi_startproc
@ %bb.0:
	@DEBUG_VALUE: timer_external_trigger_config:timer_periph <- $r0
	@DEBUG_VALUE: timer_external_trigger_config:timer_periph <- $r0
	@DEBUG_VALUE: timer_external_trigger_config:extprescaler <- $r1
	@DEBUG_VALUE: timer_external_trigger_config:extprescaler <- $r1
	@DEBUG_VALUE: timer_external_trigger_config:extpolarity <- $r2
	@DEBUG_VALUE: timer_external_trigger_config:extpolarity <- $r2
	@DEBUG_VALUE: timer_external_trigger_config:extfilter <- $r3
	@DEBUG_VALUE: timer_external_trigger_config:extfilter <- $r3
	.save	{r4, r5, r7, lr}
	push	{r4, r5, r7, lr}
	.cfi_def_cfa_offset 16
	.cfi_offset lr, -4
	.cfi_offset r7, -8
	.cfi_offset r5, -12
	.cfi_offset r4, -16
.Ltmp409:
	.loc	4 1806 31 prologue_end  @ ../Basic/Source/gd32e23x_timer.c:1806:31
	ldr	r4, [r0, #8]
	movw	r5, #48896
	bics	r4, r5
	str	r4, [r0, #8]
	.loc	4 1807 58               @ ../Basic/Source/gd32e23x_timer.c:1807:58
	orrs	r1, r2
.Ltmp410:
	.loc	4 1807 31 is_stmt 0     @ ../Basic/Source/gd32e23x_timer.c:1807:31
	ldr	r2, [r0, #8]
.Ltmp411:
	orrs	r2, r1
	str	r2, [r0, #8]
	.loc	4 1808 55 is_stmt 1     @ ../Basic/Source/gd32e23x_timer.c:1808:55
	lsls	r1, r3, #8
	.loc	4 1808 31 is_stmt 0     @ ../Basic/Source/gd32e23x_timer.c:1808:31
	ldr	r2, [r0, #8]
	orrs	r2, r1
	str	r2, [r0, #8]
	.loc	4 1809 1 is_stmt 1      @ ../Basic/Source/gd32e23x_timer.c:1809:1
	pop	{r4, r5, r7, pc}
.Ltmp412:
.Lfunc_end62:
	.size	timer_external_trigger_config, .Lfunc_end62-timer_external_trigger_config
	.cfi_endproc
	.cantunwind
	.fnend
                                        @ -- End function
	.section	.text.timer_quadrature_decoder_mode_config,"ax",%progbits
	.hidden	timer_quadrature_decoder_mode_config @ -- Begin function timer_quadrature_decoder_mode_config
	.globl	timer_quadrature_decoder_mode_config
	.p2align	2
	.type	timer_quadrature_decoder_mode_config,%function
	.code	16                      @ @timer_quadrature_decoder_mode_config
	.thumb_func
timer_quadrature_decoder_mode_config:
.Lfunc_begin63:
	.loc	4 1832 0                @ ../Basic/Source/gd32e23x_timer.c:1832:0
	.fnstart
	.cfi_startproc
@ %bb.0:
	@DEBUG_VALUE: timer_quadrature_decoder_mode_config:timer_periph <- $r0
	@DEBUG_VALUE: timer_quadrature_decoder_mode_config:timer_periph <- $r0
	@DEBUG_VALUE: timer_quadrature_decoder_mode_config:decomode <- $r1
	@DEBUG_VALUE: timer_quadrature_decoder_mode_config:decomode <- $r1
	@DEBUG_VALUE: timer_quadrature_decoder_mode_config:ic0polarity <- $r2
	@DEBUG_VALUE: timer_quadrature_decoder_mode_config:ic0polarity <- $r2
	@DEBUG_VALUE: timer_quadrature_decoder_mode_config:ic1polarity <- $r3
	@DEBUG_VALUE: timer_quadrature_decoder_mode_config:ic1polarity <- $r3
	.save	{r4, r5, r7, lr}
	push	{r4, r5, r7, lr}
	.cfi_def_cfa_offset 16
	.cfi_offset lr, -4
	.cfi_offset r7, -8
	.cfi_offset r5, -12
	.cfi_offset r4, -16
.Ltmp413:
	.loc	4 1833 31 prologue_end  @ ../Basic/Source/gd32e23x_timer.c:1833:31
	ldr	r4, [r0, #8]
	movs	r5, #7
	bics	r4, r5
	str	r4, [r0, #8]
	.loc	4 1834 31               @ ../Basic/Source/gd32e23x_timer.c:1834:31
	ldr	r4, [r0, #8]
	orrs	r4, r1
	str	r4, [r0, #8]
	.loc	4 1836 32               @ ../Basic/Source/gd32e23x_timer.c:1836:32
	ldr	r1, [r0, #24]
.Ltmp414:
	.loc	4 0 32 is_stmt 0        @ ../Basic/Source/gd32e23x_timer.c:0:32
	ldr	r4, __arm_cp.63_0
	.loc	4 1836 32               @ ../Basic/Source/gd32e23x_timer.c:1836:32
	ands	r4, r1
	str	r4, [r0, #24]
	.loc	4 1837 32 is_stmt 1     @ ../Basic/Source/gd32e23x_timer.c:1837:32
	ldr	r1, [r0, #24]
	movw	r4, #257
	orrs	r4, r1
	str	r4, [r0, #24]
	.loc	4 1839 32               @ ../Basic/Source/gd32e23x_timer.c:1839:32
	ldr	r1, [r0, #32]
	movs	r4, #10
	bics	r1, r4
	str	r1, [r0, #32]
	.loc	4 1840 32               @ ../Basic/Source/gd32e23x_timer.c:1840:32
	ldr	r1, [r0, #32]
	movs	r4, #160
	bics	r1, r4
	str	r1, [r0, #32]
	.loc	4 1841 81               @ ../Basic/Source/gd32e23x_timer.c:1841:81
	lsls	r1, r3, #4
	.loc	4 1841 57 is_stmt 0     @ ../Basic/Source/gd32e23x_timer.c:1841:57
	orrs	r1, r2
	.loc	4 1841 32               @ ../Basic/Source/gd32e23x_timer.c:1841:32
	ldr	r2, [r0, #32]
.Ltmp415:
	orrs	r2, r1
	str	r2, [r0, #32]
	.loc	4 1842 1 is_stmt 1      @ ../Basic/Source/gd32e23x_timer.c:1842:1
	pop	{r4, r5, r7, pc}
.Ltmp416:
	.p2align	2
@ %bb.1:
	.loc	4 0 1 is_stmt 0         @ ../Basic/Source/gd32e23x_timer.c:0:1
__arm_cp.63_0:
	.long	4294966524              @ 0xfffffcfc
.Lcpi_end27:
	.size	__arm_cp.63_0, .Lcpi_end27-__arm_cp.63_0
.Lfunc_end63:
	.size	timer_quadrature_decoder_mode_config, .Lfunc_end63-timer_quadrature_decoder_mode_config
	.cfi_endproc
	.cantunwind
	.fnend
                                        @ -- End function
	.section	.text.timer_internal_clock_config,"ax",%progbits
	.hidden	timer_internal_clock_config @ -- Begin function timer_internal_clock_config
	.globl	timer_internal_clock_config
	.p2align	1
	.type	timer_internal_clock_config,%function
	.code	16                      @ @timer_internal_clock_config
	.thumb_func
timer_internal_clock_config:
.Lfunc_begin64:
	.loc	4 1851 0 is_stmt 1      @ ../Basic/Source/gd32e23x_timer.c:1851:0
	.fnstart
	.cfi_startproc
@ %bb.0:
	@DEBUG_VALUE: timer_internal_clock_config:timer_periph <- $r0
	@DEBUG_VALUE: timer_internal_clock_config:timer_periph <- $r0
	.loc	4 1852 31 prologue_end  @ ../Basic/Source/gd32e23x_timer.c:1852:31
	ldr	r1, [r0, #8]
	movs	r2, #7
	bics	r1, r2
	str	r1, [r0, #8]
	.loc	4 1853 1                @ ../Basic/Source/gd32e23x_timer.c:1853:1
	bx	lr
.Ltmp417:
.Lfunc_end64:
	.size	timer_internal_clock_config, .Lfunc_end64-timer_internal_clock_config
	.cfi_endproc
	.cantunwind
	.fnend
                                        @ -- End function
	.section	.text.timer_internal_trigger_as_external_clock_config,"ax",%progbits
	.hidden	timer_internal_trigger_as_external_clock_config @ -- Begin function timer_internal_trigger_as_external_clock_config
	.globl	timer_internal_trigger_as_external_clock_config
	.p2align	1
	.type	timer_internal_trigger_as_external_clock_config,%function
	.code	16                      @ @timer_internal_trigger_as_external_clock_config
	.thumb_func
timer_internal_trigger_as_external_clock_config:
.Lfunc_begin65:
	.loc	4 1867 0                @ ../Basic/Source/gd32e23x_timer.c:1867:0
	.fnstart
	.cfi_startproc
@ %bb.0:
	@DEBUG_VALUE: timer_internal_trigger_as_external_clock_config:timer_periph <- $r0
	@DEBUG_VALUE: timer_internal_trigger_as_external_clock_config:timer_periph <- $r0
	@DEBUG_VALUE: timer_internal_trigger_as_external_clock_config:intrigger <- $r1
	@DEBUG_VALUE: timer_internal_trigger_as_external_clock_config:intrigger <- $r1
	@DEBUG_VALUE: timer_input_trigger_source_select:timer_periph <- $r0
	@DEBUG_VALUE: timer_input_trigger_source_select:timer_periph <- $r0
	@DEBUG_VALUE: timer_input_trigger_source_select:intrigger <- $r1
	@DEBUG_VALUE: timer_input_trigger_source_select:intrigger <- $r1
	.loc	4 1715 31 prologue_end  @ ../Basic/Source/gd32e23x_timer.c:1715:31
	ldr	r2, [r0, #8]
	movs	r3, #112
	bics	r2, r3
	str	r2, [r0, #8]
	.loc	4 1716 31               @ ../Basic/Source/gd32e23x_timer.c:1716:31
	ldr	r2, [r0, #8]
	orrs	r2, r1
	str	r2, [r0, #8]
.Ltmp418:
	.loc	4 1869 31               @ ../Basic/Source/gd32e23x_timer.c:1869:31
	ldr	r1, [r0, #8]
.Ltmp419:
	.loc	4 0 31 is_stmt 0        @ ../Basic/Source/gd32e23x_timer.c:0:31
	movs	r2, #7
	.loc	4 1869 31               @ ../Basic/Source/gd32e23x_timer.c:1869:31
	bics	r1, r2
	str	r1, [r0, #8]
	.loc	4 1870 31 is_stmt 1     @ ../Basic/Source/gd32e23x_timer.c:1870:31
	ldr	r1, [r0, #8]
	orrs	r1, r2
	str	r1, [r0, #8]
	.loc	4 1871 1                @ ../Basic/Source/gd32e23x_timer.c:1871:1
	bx	lr
.Ltmp420:
.Lfunc_end65:
	.size	timer_internal_trigger_as_external_clock_config, .Lfunc_end65-timer_internal_trigger_as_external_clock_config
	.cfi_endproc
	.cantunwind
	.fnend
                                        @ -- End function
	.section	.text.timer_external_trigger_as_external_clock_config,"ax",%progbits
	.hidden	timer_external_trigger_as_external_clock_config @ -- Begin function timer_external_trigger_as_external_clock_config
	.globl	timer_external_trigger_as_external_clock_config
	.p2align	2
	.type	timer_external_trigger_as_external_clock_config,%function
	.code	16                      @ @timer_external_trigger_as_external_clock_config
	.thumb_func
timer_external_trigger_as_external_clock_config:
.Lfunc_begin66:
	.loc	4 1892 0                @ ../Basic/Source/gd32e23x_timer.c:1892:0
	.fnstart
	.cfi_startproc
@ %bb.0:
	@DEBUG_VALUE: timer_external_trigger_as_external_clock_config:timer_periph <- $r0
	@DEBUG_VALUE: timer_external_trigger_as_external_clock_config:timer_periph <- $r0
	@DEBUG_VALUE: timer_external_trigger_as_external_clock_config:extrigger <- $r1
	@DEBUG_VALUE: timer_external_trigger_as_external_clock_config:extrigger <- $r1
	@DEBUG_VALUE: timer_external_trigger_as_external_clock_config:extpolarity <- $r2
	@DEBUG_VALUE: timer_external_trigger_as_external_clock_config:extpolarity <- $r2
	@DEBUG_VALUE: timer_external_trigger_as_external_clock_config:extfilter <- $r3
	@DEBUG_VALUE: timer_external_trigger_as_external_clock_config:extfilter <- $r3
	.save	{r4, r5, r6, r7, lr}
	.pad	#8
	push	{r2, r3, r4, r5, r6, r7, lr}
	.cfi_def_cfa_offset 28
	.cfi_offset lr, -4
	.cfi_offset r7, -8
	.cfi_offset r6, -12
	.cfi_offset r5, -16
	.cfi_offset r4, -20
.Ltmp421:
	.loc	4 0 0 prologue_end      @ ../Basic/Source/gd32e23x_timer.c:0:0
	ldr	r6, [r0, #32]
	str	r1, [sp, #4]            @ 4-byte Spill
.Ltmp422:
	@DEBUG_VALUE: timer_external_trigger_as_external_clock_config:extrigger <- [DW_OP_plus_uconst 4] [$sp+0]
	.loc	4 1893 8                @ ../Basic/Source/gd32e23x_timer.c:1893:8
	cmp	r1, #96
	bne	.LBB66_2
.Ltmp423:
@ %bb.1:
	@DEBUG_VALUE: timer_external_trigger_as_external_clock_config:extrigger <- [DW_OP_plus_uconst 4] [$sp+0]
	@DEBUG_VALUE: timer_external_trigger_as_external_clock_config:extfilter <- $r3
	@DEBUG_VALUE: timer_external_trigger_as_external_clock_config:extpolarity <- $r2
	@DEBUG_VALUE: timer_external_trigger_as_external_clock_config:timer_periph <- $r0
	.loc	4 0 8 is_stmt 0         @ ../Basic/Source/gd32e23x_timer.c:0:8
	movs	r4, #16
.Ltmp424:
	.loc	4 1895 36 is_stmt 1     @ ../Basic/Source/gd32e23x_timer.c:1895:36
	bics	r6, r4
	str	r6, [r0, #32]
	.loc	4 1897 36               @ ../Basic/Source/gd32e23x_timer.c:1897:36
	ldr	r1, [r0, #32]
	movs	r5, #160
	bics	r1, r5
	str	r1, [r0, #32]
	.loc	4 1899 72               @ ../Basic/Source/gd32e23x_timer.c:1899:72
	lsls	r2, r2, #4
.Ltmp425:
	.loc	4 0 72 is_stmt 0        @ ../Basic/Source/gd32e23x_timer.c:0:72
	movs	r1, #12
	str	r1, [sp]                @ 4-byte Spill
	ldr	r6, __arm_cp.66_0
	movw	r5, #256
	ldr	r7, __arm_cp.66_1
	b	.LBB66_3
.Ltmp426:
.LBB66_2:
	@DEBUG_VALUE: timer_external_trigger_as_external_clock_config:extrigger <- [DW_OP_plus_uconst 4] [$sp+0]
	@DEBUG_VALUE: timer_external_trigger_as_external_clock_config:extfilter <- $r3
	@DEBUG_VALUE: timer_external_trigger_as_external_clock_config:extpolarity <- $r2
	@DEBUG_VALUE: timer_external_trigger_as_external_clock_config:timer_periph <- $r0
	@DEBUG_VALUE: timer_external_trigger_as_external_clock_config:extpolarity <- $r2
	movs	r5, #1
.Ltmp427:
	.loc	4 1912 36 is_stmt 1     @ ../Basic/Source/gd32e23x_timer.c:1912:36
	bics	r6, r5
	str	r6, [r0, #32]
	.loc	4 1914 36               @ ../Basic/Source/gd32e23x_timer.c:1914:36
	ldr	r1, [r0, #32]
	movs	r4, #10
	bics	r1, r4
	str	r1, [r0, #32]
	movs	r1, #240
	mvns	r6, r1
	mov	r7, r6
	adds	r7, #237
	movs	r1, #4
	str	r1, [sp]                @ 4-byte Spill
	mov	r4, r5
.Ltmp428:
.LBB66_3:
	@DEBUG_VALUE: timer_external_trigger_as_external_clock_config:extrigger <- [DW_OP_plus_uconst 4] [$sp+0]
	@DEBUG_VALUE: timer_external_trigger_as_external_clock_config:extfilter <- $r3
	@DEBUG_VALUE: timer_external_trigger_as_external_clock_config:timer_periph <- $r0
	.loc	4 0 0 is_stmt 0         @ ../Basic/Source/gd32e23x_timer.c:0:0
	ldr	r1, [r0, #32]
	orrs	r1, r2
	str	r1, [r0, #32]
	ldr	r1, [r0, #24]
	ands	r1, r7
	str	r1, [r0, #24]
	ldr	r1, [r0, #24]
	orrs	r1, r5
	str	r1, [r0, #24]
	ldr	r1, [r0, #24]
	ands	r1, r6
	str	r1, [r0, #24]
	ldr	r1, [sp]                @ 4-byte Reload
	lsls	r3, r1
.Ltmp429:
	ldr	r1, [r0, #24]
	orrs	r1, r3
	str	r1, [r0, #24]
	ldr	r1, [r0, #32]
	orrs	r1, r4
	str	r1, [r0, #32]
.Ltmp430:
	@DEBUG_VALUE: timer_input_trigger_source_select:intrigger <- [DW_OP_plus_uconst 4] [$sp+0]
	@DEBUG_VALUE: timer_input_trigger_source_select:timer_periph <- $r0
	.loc	4 1715 31 is_stmt 1     @ ../Basic/Source/gd32e23x_timer.c:1715:31
	ldr	r1, [r0, #8]
	movs	r2, #112
	bics	r1, r2
	str	r1, [r0, #8]
	.loc	4 1716 31               @ ../Basic/Source/gd32e23x_timer.c:1716:31
	ldr	r1, [r0, #8]
	ldr	r2, [sp, #4]            @ 4-byte Reload
.Ltmp431:
	@DEBUG_VALUE: timer_input_trigger_source_select:intrigger <- $r2
	orrs	r1, r2
	str	r1, [r0, #8]
.Ltmp432:
	.loc	4 1931 31               @ ../Basic/Source/gd32e23x_timer.c:1931:31
	ldr	r1, [r0, #8]
	movs	r2, #7
.Ltmp433:
	bics	r1, r2
	str	r1, [r0, #8]
	.loc	4 1933 31               @ ../Basic/Source/gd32e23x_timer.c:1933:31
	ldr	r1, [r0, #8]
	orrs	r1, r2
	str	r1, [r0, #8]
	.loc	4 1934 1                @ ../Basic/Source/gd32e23x_timer.c:1934:1
	pop	{r2, r3, r4, r5, r6, r7, pc}
.Ltmp434:
	.p2align	2
@ %bb.4:
	.loc	4 0 1 is_stmt 0         @ ../Basic/Source/gd32e23x_timer.c:0:1
__arm_cp.66_0:
	.long	4294905855              @ 0xffff0fff
.Lcpi_end28:
	.size	__arm_cp.66_0, .Lcpi_end28-__arm_cp.66_0
__arm_cp.66_1:
	.long	4294966527              @ 0xfffffcff
.Lcpi_end29:
	.size	__arm_cp.66_1, .Lcpi_end29-__arm_cp.66_1
.Lfunc_end66:
	.size	timer_external_trigger_as_external_clock_config, .Lfunc_end66-timer_external_trigger_as_external_clock_config
	.cfi_endproc
	.cantunwind
	.fnend
                                        @ -- End function
	.section	.text.timer_external_clock_mode0_config,"ax",%progbits
	.hidden	timer_external_clock_mode0_config @ -- Begin function timer_external_clock_mode0_config
	.globl	timer_external_clock_mode0_config
	.p2align	1
	.type	timer_external_clock_mode0_config,%function
	.code	16                      @ @timer_external_clock_mode0_config
	.thumb_func
timer_external_clock_mode0_config:
.Lfunc_begin67:
	.loc	4 1955 0 is_stmt 1      @ ../Basic/Source/gd32e23x_timer.c:1955:0
	.fnstart
	.cfi_startproc
@ %bb.0:
	@DEBUG_VALUE: timer_external_clock_mode0_config:timer_periph <- $r0
	@DEBUG_VALUE: timer_external_clock_mode0_config:extprescaler <- $r1
	@DEBUG_VALUE: timer_external_clock_mode0_config:extprescaler <- $r1
	@DEBUG_VALUE: timer_external_clock_mode0_config:extpolarity <- $r2
	@DEBUG_VALUE: timer_external_clock_mode0_config:extpolarity <- $r2
	@DEBUG_VALUE: timer_external_clock_mode0_config:extfilter <- $r3
	@DEBUG_VALUE: timer_external_clock_mode0_config:extfilter <- $r3
	.save	{r4, lr}
	push	{r4, lr}
	.cfi_def_cfa_offset 8
	.cfi_offset lr, -4
	.cfi_offset r4, -8
	mov	r4, r0
.Ltmp435:
	@DEBUG_VALUE: timer_external_clock_mode0_config:timer_periph <- $r4
	@DEBUG_VALUE: timer_external_clock_mode0_config:extfilter <- $r3
	@DEBUG_VALUE: timer_external_clock_mode0_config:extpolarity <- $r2
	@DEBUG_VALUE: timer_external_clock_mode0_config:extprescaler <- $r1
	.loc	4 1957 5 prologue_end   @ ../Basic/Source/gd32e23x_timer.c:1957:5
	bl	timer_external_trigger_config
.Ltmp436:
	.loc	4 1960 31               @ ../Basic/Source/gd32e23x_timer.c:1960:31
	ldr	r0, [r4, #8]
	movs	r1, #119
	bics	r0, r1
	str	r0, [r4, #8]
	.loc	4 1962 31               @ ../Basic/Source/gd32e23x_timer.c:1962:31
	ldr	r0, [r4, #8]
	orrs	r0, r1
	str	r0, [r4, #8]
	.loc	4 1963 1                @ ../Basic/Source/gd32e23x_timer.c:1963:1
	pop	{r4, pc}
.Ltmp437:
.Lfunc_end67:
	.size	timer_external_clock_mode0_config, .Lfunc_end67-timer_external_clock_mode0_config
	.cfi_endproc
	.cantunwind
	.fnend
                                        @ -- End function
	.section	.text.timer_external_clock_mode1_config,"ax",%progbits
	.hidden	timer_external_clock_mode1_config @ -- Begin function timer_external_clock_mode1_config
	.globl	timer_external_clock_mode1_config
	.p2align	1
	.type	timer_external_clock_mode1_config,%function
	.code	16                      @ @timer_external_clock_mode1_config
	.thumb_func
timer_external_clock_mode1_config:
.Lfunc_begin68:
	.loc	4 1984 0                @ ../Basic/Source/gd32e23x_timer.c:1984:0
	.fnstart
	.cfi_startproc
@ %bb.0:
	@DEBUG_VALUE: timer_external_clock_mode1_config:timer_periph <- $r0
	@DEBUG_VALUE: timer_external_clock_mode1_config:extprescaler <- $r1
	@DEBUG_VALUE: timer_external_clock_mode1_config:extprescaler <- $r1
	@DEBUG_VALUE: timer_external_clock_mode1_config:extpolarity <- $r2
	@DEBUG_VALUE: timer_external_clock_mode1_config:extpolarity <- $r2
	@DEBUG_VALUE: timer_external_clock_mode1_config:extfilter <- $r3
	@DEBUG_VALUE: timer_external_clock_mode1_config:extfilter <- $r3
	.save	{r4, lr}
	push	{r4, lr}
	.cfi_def_cfa_offset 8
	.cfi_offset lr, -4
	.cfi_offset r4, -8
	mov	r4, r0
.Ltmp438:
	@DEBUG_VALUE: timer_external_clock_mode1_config:timer_periph <- $r4
	@DEBUG_VALUE: timer_external_clock_mode1_config:extfilter <- $r3
	@DEBUG_VALUE: timer_external_clock_mode1_config:extpolarity <- $r2
	@DEBUG_VALUE: timer_external_clock_mode1_config:extprescaler <- $r1
	.loc	4 1986 5 prologue_end   @ ../Basic/Source/gd32e23x_timer.c:1986:5
	bl	timer_external_trigger_config
.Ltmp439:
	.loc	4 1988 31               @ ../Basic/Source/gd32e23x_timer.c:1988:31
	ldr	r0, [r4, #8]
	movw	r1, #16384
	orrs	r1, r0
	str	r1, [r4, #8]
	.loc	4 1989 1                @ ../Basic/Source/gd32e23x_timer.c:1989:1
	pop	{r4, pc}
.Ltmp440:
.Lfunc_end68:
	.size	timer_external_clock_mode1_config, .Lfunc_end68-timer_external_clock_mode1_config
	.cfi_endproc
	.cantunwind
	.fnend
                                        @ -- End function
	.section	.text.timer_external_clock_mode1_disable,"ax",%progbits
	.hidden	timer_external_clock_mode1_disable @ -- Begin function timer_external_clock_mode1_disable
	.globl	timer_external_clock_mode1_disable
	.p2align	1
	.type	timer_external_clock_mode1_disable,%function
	.code	16                      @ @timer_external_clock_mode1_disable
	.thumb_func
timer_external_clock_mode1_disable:
.Lfunc_begin69:
	.loc	4 1998 0                @ ../Basic/Source/gd32e23x_timer.c:1998:0
	.fnstart
	.cfi_startproc
@ %bb.0:
	@DEBUG_VALUE: timer_external_clock_mode1_disable:timer_periph <- $r0
	@DEBUG_VALUE: timer_external_clock_mode1_disable:timer_periph <- $r0
	.loc	4 1999 31 prologue_end  @ ../Basic/Source/gd32e23x_timer.c:1999:31
	ldr	r1, [r0, #8]
	movw	r2, #16384
	bics	r1, r2
	str	r1, [r0, #8]
	.loc	4 2000 1                @ ../Basic/Source/gd32e23x_timer.c:2000:1
	bx	lr
.Ltmp441:
.Lfunc_end69:
	.size	timer_external_clock_mode1_disable, .Lfunc_end69-timer_external_clock_mode1_disable
	.cfi_endproc
	.cantunwind
	.fnend
                                        @ -- End function
	.section	.text.timer_channel_remap_config,"ax",%progbits
	.hidden	timer_channel_remap_config @ -- Begin function timer_channel_remap_config
	.globl	timer_channel_remap_config
	.p2align	1
	.type	timer_channel_remap_config,%function
	.code	16                      @ @timer_channel_remap_config
	.thumb_func
timer_channel_remap_config:
.Lfunc_begin70:
	.loc	4 2015 0                @ ../Basic/Source/gd32e23x_timer.c:2015:0
	.fnstart
	.cfi_startproc
@ %bb.0:
	@DEBUG_VALUE: timer_channel_remap_config:timer_periph <- $r0
	@DEBUG_VALUE: timer_channel_remap_config:timer_periph <- $r0
	@DEBUG_VALUE: timer_channel_remap_config:remap <- $r1
	@DEBUG_VALUE: timer_channel_remap_config:remap <- $r1
	.loc	4 2016 30 prologue_end  @ ../Basic/Source/gd32e23x_timer.c:2016:30
	str	r1, [r0, #80]
	.loc	4 2017 1                @ ../Basic/Source/gd32e23x_timer.c:2017:1
	bx	lr
.Ltmp442:
.Lfunc_end70:
	.size	timer_channel_remap_config, .Lfunc_end70-timer_channel_remap_config
	.cfi_endproc
	.cantunwind
	.fnend
                                        @ -- End function
	.section	.text.timer_write_chxval_register_config,"ax",%progbits
	.hidden	timer_write_chxval_register_config @ -- Begin function timer_write_chxval_register_config
	.globl	timer_write_chxval_register_config
	.p2align	1
	.type	timer_write_chxval_register_config,%function
	.code	16                      @ @timer_write_chxval_register_config
	.thumb_func
timer_write_chxval_register_config:
.Lfunc_begin71:
	.loc	4 2030 0                @ ../Basic/Source/gd32e23x_timer.c:2030:0
	.fnstart
	.cfi_startproc
@ %bb.0:
	@DEBUG_VALUE: timer_write_chxval_register_config:timer_periph <- $r0
	@DEBUG_VALUE: timer_write_chxval_register_config:timer_periph <- $r0
	@DEBUG_VALUE: timer_write_chxval_register_config:ccsel <- $r1
	@DEBUG_VALUE: timer_write_chxval_register_config:ccsel <- $r1
	.loc	4 2031 8 prologue_end   @ ../Basic/Source/gd32e23x_timer.c:2031:8
	cbz	r1, .LBB71_3
.Ltmp443:
@ %bb.1:
	@DEBUG_VALUE: timer_write_chxval_register_config:ccsel <- $r1
	@DEBUG_VALUE: timer_write_chxval_register_config:timer_periph <- $r0
	cmp	r1, #1
	bne	.LBB71_4
.Ltmp444:
@ %bb.2:
	@DEBUG_VALUE: timer_write_chxval_register_config:ccsel <- $r1
	@DEBUG_VALUE: timer_write_chxval_register_config:timer_periph <- $r0
	.loc	4 0 8 is_stmt 0         @ ../Basic/Source/gd32e23x_timer.c:0:8
	movs	r1, #252
.Ltmp445:
	.loc	4 2032 33 is_stmt 1     @ ../Basic/Source/gd32e23x_timer.c:2032:33
	ldr	r2, [r0, r1]
	movs	r3, #2
	orrs	r3, r2
	str	r3, [r0, r1]
.Ltmp446:
	.loc	4 2038 1                @ ../Basic/Source/gd32e23x_timer.c:2038:1
	bx	lr
.Ltmp447:
.LBB71_3:
	@DEBUG_VALUE: timer_write_chxval_register_config:ccsel <- $r1
	@DEBUG_VALUE: timer_write_chxval_register_config:timer_periph <- $r0
	.loc	4 0 1 is_stmt 0         @ ../Basic/Source/gd32e23x_timer.c:0:1
	movs	r1, #252
.Ltmp448:
	.loc	4 2034 33 is_stmt 1     @ ../Basic/Source/gd32e23x_timer.c:2034:33
	ldr	r2, [r0, r1]
	movs	r3, #2
	bics	r2, r3
	str	r2, [r0, r1]
.Ltmp449:
.LBB71_4:
	@DEBUG_VALUE: timer_write_chxval_register_config:timer_periph <- $r0
	.loc	4 2038 1                @ ../Basic/Source/gd32e23x_timer.c:2038:1
	bx	lr
.Ltmp450:
.Lfunc_end71:
	.size	timer_write_chxval_register_config, .Lfunc_end71-timer_write_chxval_register_config
	.cfi_endproc
	.cantunwind
	.fnend
                                        @ -- End function
	.section	.text.timer_output_value_selection_config,"ax",%progbits
	.hidden	timer_output_value_selection_config @ -- Begin function timer_output_value_selection_config
	.globl	timer_output_value_selection_config
	.p2align	1
	.type	timer_output_value_selection_config,%function
	.code	16                      @ @timer_output_value_selection_config
	.thumb_func
timer_output_value_selection_config:
.Lfunc_begin72:
	.loc	4 2051 0                @ ../Basic/Source/gd32e23x_timer.c:2051:0
	.fnstart
	.cfi_startproc
@ %bb.0:
	@DEBUG_VALUE: timer_output_value_selection_config:timer_periph <- $r0
	@DEBUG_VALUE: timer_output_value_selection_config:timer_periph <- $r0
	@DEBUG_VALUE: timer_output_value_selection_config:outsel <- $r1
	@DEBUG_VALUE: timer_output_value_selection_config:outsel <- $r1
	.loc	4 2052 8 prologue_end   @ ../Basic/Source/gd32e23x_timer.c:2052:8
	cbz	r1, .LBB72_3
.Ltmp451:
@ %bb.1:
	@DEBUG_VALUE: timer_output_value_selection_config:outsel <- $r1
	@DEBUG_VALUE: timer_output_value_selection_config:timer_periph <- $r0
	cmp	r1, #1
	bne	.LBB72_4
.Ltmp452:
@ %bb.2:
	@DEBUG_VALUE: timer_output_value_selection_config:outsel <- $r1
	@DEBUG_VALUE: timer_output_value_selection_config:timer_periph <- $r0
	.loc	4 0 8 is_stmt 0         @ ../Basic/Source/gd32e23x_timer.c:0:8
	movs	r1, #252
.Ltmp453:
	.loc	4 2053 33 is_stmt 1     @ ../Basic/Source/gd32e23x_timer.c:2053:33
	ldr	r2, [r0, r1]
	movs	r3, #1
	orrs	r3, r2
	str	r3, [r0, r1]
.Ltmp454:
	.loc	4 2059 1                @ ../Basic/Source/gd32e23x_timer.c:2059:1
	bx	lr
.Ltmp455:
.LBB72_3:
	@DEBUG_VALUE: timer_output_value_selection_config:outsel <- $r1
	@DEBUG_VALUE: timer_output_value_selection_config:timer_periph <- $r0
	.loc	4 0 1 is_stmt 0         @ ../Basic/Source/gd32e23x_timer.c:0:1
	movs	r1, #252
.Ltmp456:
	.loc	4 2055 33 is_stmt 1     @ ../Basic/Source/gd32e23x_timer.c:2055:33
	ldr	r2, [r0, r1]
	movs	r3, #1
	bics	r2, r3
	str	r2, [r0, r1]
.Ltmp457:
.LBB72_4:
	@DEBUG_VALUE: timer_output_value_selection_config:timer_periph <- $r0
	.loc	4 2059 1                @ ../Basic/Source/gd32e23x_timer.c:2059:1
	bx	lr
.Ltmp458:
.Lfunc_end72:
	.size	timer_output_value_selection_config, .Lfunc_end72-timer_output_value_selection_config
	.cfi_endproc
	.cantunwind
	.fnend
                                        @ -- End function
	.file	5 "C:\\Users\\13728\\Desktop\\general igniter\\Project" "../Basic/Include\\gd32e23x_timer.h"
	.section	".note.GNU-stack","",%progbits
	.eabi_attribute	30, 4	@ Tag_ABI_optimization_goals
	.ARM_attribute	16, 1	@ Tag_AV_eba