	.text
	.syntax unified
	.eabi_attribute	67, "2.09"	@ Tag_conformance
	.cpu	cortex-m23
	.eabi_attribute	6, 16	@ Tag_CPU_arch
	.eabi_attribute	7, 77	@ Tag_CPU_arch_profile
	.eabi_attribute	8, 0	@ Tag_ARM_ISA_use
	.eabi_attribute	9, 3	@ Tag_THUMB_ISA_use
	.eabi_attribute	34, 0	@ Tag_CPU_unaligned_access
	.eabi_attribute	17, 1	@ Tag_ABI_PCS_GOT_use
	.eabi_attribute	20, 2	@ Tag_ABI_FP_denormal
	.eabi_attribute	21, 0	@ Tag_ABI_FP_exceptions
	.eabi_attribute	23, 1	@ Tag_ABI_FP_number_model
	.eabi_attribute	24, 1	@ Tag_ABI_align_needed
	.eabi_attribute	25, 1	@ Tag_ABI_align_preserved
	.eabi_attribute	38, 1	@ Tag_ABI_FP_16bit_format
	.eabi_attribute	18, 2	@ Tag_ABI_PCS_wchar_t
	.eabi_attribute	26, 1	@ Tag_ABI_enum_size
	.eabi_attribute	14, 0	@ Tag_ABI_PCS_R9_use
	.file	"gd32e23x_misc.c"
	.file	1 "C:\\Users\\13728\\Desktop\\general igniter\\Project" "../CMSIS/Include\\gd32e23x.h"
	.file	2 "D:\\ProgramFile\\Keil5\\ARM\\ARMCLANG\\Bin\\..\\include" "stdint.h"
	.file	3 "D:/ProgramFile\\Keil5\\ARM\\CMSIS\\5.7.0\\CMSIS\\Core\\Include" "core_cm23.h"
	.section	.text.nvic_irq_enable,"ax",%progbits
	.hidden	nvic_irq_enable         @ -- Begin function nvic_irq_enable
	.globl	nvic_irq_enable
	.p2align	2
	.type	nvic_irq_enable,%function
	.code	16                      @ @nvic_irq_enable
	.thumb_func
nvic_irq_enable:
.Lfunc_begin0:
	.file	4 "C:\\Users\\13728\\Desktop\\general igniter\\Project" "../Basic/Source/gd32e23x_misc.c"
	.loc	4 48 0                  @ ../Basic/Source/gd32e23x_misc.c:48:0
	.fnstart
	.cfi_sections .debug_frame
	.cfi_startproc
@ %bb.0:
	@DEBUG_VALUE: nvic_irq_enable:nvic_irq <- $r0
	@DEBUG_VALUE: nvic_irq_enable:nvic_irq <- $r0
	@DEBUG_VALUE: nvic_irq_enable:nvic_irq_priority <- $r1
	@DEBUG_VALUE: nvic_irq_enable:nvic_irq_priority <- $r1
	@DEBUG_VALUE: __NVIC_SetPriority:priority <- $r1
	@DEBUG_VALUE: __NVIC_SetPriority:IRQn <- $r0
	.save	{r4, r5, r6, lr}
	push	{r4, r5, r6, lr}
	.cfi_def_cfa_offset 16
	.cfi_offset lr, -4
	.cfi_offset r6, -8
	.cfi_offset r5, -12
	.cfi_offset r4, -16
	sxtb	r0, r0
.Ltmp0:
	.loc	3 1723 7 prologue_end   @ D:/ProgramFile\Keil5\ARM\CMSIS\5.7.0\CMSIS\Core\Include\core_cm23.h:1723:7
	cmp	r0, #0
	bmi	.LBB0_2
.Ltmp1:
@ %bb.1:
	@DEBUG_VALUE: __NVIC_SetPriority:priority <- $r1
	@DEBUG_VALUE: nvic_irq_enable:nvic_irq_priority <- $r1
	.loc	3 0 7 is_stmt 0         @ D:/ProgramFile\Keil5\ARM\CMSIS\5.7.0\CMSIS\Core\Include\core_cm23.h:0:7
	movs	r3, #3
.Ltmp2:
	.loc	3 1725 55 is_stmt 1     @ D:/ProgramFile\Keil5\ARM\CMSIS\5.7.0\CMSIS\Core\Include\core_cm23.h:1725:55
	mov	r2, r0
	bics	r2, r3
	ldr	r3, __arm_cp.0_1
	.loc	3 1725 45 is_stmt 0     @ D:/ProgramFile\Keil5\ARM\CMSIS\5.7.0\CMSIS\Core\Include\core_cm23.h:1725:45
	ldr	r4, [r2, r3]
	.loc	3 1725 85               @ D:/ProgramFile\Keil5\ARM\CMSIS\5.7.0\CMSIS\Core\Include\core_cm23.h:1725:85
	lsls	r5, r0, #30
	lsrs	r5, r5, #27
	movs	r6, #255
	.loc	3 1725 82               @ D:/ProgramFile\Keil5\ARM\CMSIS\5.7.0\CMSIS\Core\Include\core_cm23.h:1725:82
	lsls	r6, r5
	.loc	3 1725 71               @ D:/ProgramFile\Keil5\ARM\CMSIS\5.7.0\CMSIS\Core\Include\core_cm23.h:1725:71
	bics	r4, r6
	.loc	3 1726 20 is_stmt 1     @ D:/ProgramFile\Keil5\ARM\CMSIS\5.7.0\CMSIS\Core\Include\core_cm23.h:1726:20
	lsls	r1, r1, #6
.Ltmp3:
	.loc	3 1726 48 is_stmt 0     @ D:/ProgramFile\Keil5\ARM\CMSIS\5.7.0\CMSIS\Core\Include\core_cm23.h:1726:48
	uxtb	r1, r1
	.loc	3 1726 68               @ D:/ProgramFile\Keil5\ARM\CMSIS\5.7.0\CMSIS\Core\Include\core_cm23.h:1726:68
	lsls	r1, r5
	.loc	3 1725 104 is_stmt 1    @ D:/ProgramFile\Keil5\ARM\CMSIS\5.7.0\CMSIS\Core\Include\core_cm23.h:1725:104
	orrs	r1, r4
	.loc	3 1725 31 is_stmt 0     @ D:/ProgramFile\Keil5\ARM\CMSIS\5.7.0\CMSIS\Core\Include\core_cm23.h:1725:31
	str	r1, [r2, r3]
	movs	r1, #31
.Ltmp4:
	.loc	3 1529 81 is_stmt 1     @ D:/ProgramFile\Keil5\ARM\CMSIS\5.7.0\CMSIS\Core\Include\core_cm23.h:1529:81
	ands	r1, r0
	movs	r2, #1
	.loc	3 1529 60 is_stmt 0     @ D:/ProgramFile\Keil5\ARM\CMSIS\5.7.0\CMSIS\Core\Include\core_cm23.h:1529:60
	lsls	r2, r1
	.loc	3 1528 5 is_stmt 1      @ D:/ProgramFile\Keil5\ARM\CMSIS\5.7.0\CMSIS\Core\Include\core_cm23.h:1528:5
	@APP
	@NO_APP
	.loc	3 1529 34               @ D:/ProgramFile\Keil5\ARM\CMSIS\5.7.0\CMSIS\Core\Include\core_cm23.h:1529:34
	lsrs	r0, r0, #5
	lsls	r0, r0, #2
	ldr	r1, __arm_cp.0_2
	.loc	3 1529 43 is_stmt 0     @ D:/ProgramFile\Keil5\ARM\CMSIS\5.7.0\CMSIS\Core\Include\core_cm23.h:1529:43
	str	r2, [r0, r1]
	.loc	3 1530 5 is_stmt 1      @ D:/ProgramFile\Keil5\ARM\CMSIS\5.7.0\CMSIS\Core\Include\core_cm23.h:1530:5
	@APP
	@NO_APP
.Ltmp5:
	@DEBUG_VALUE: __NVIC_EnableIRQ:IRQn <- undef
	.loc	4 52 1                  @ ../Basic/Source/gd32e23x_misc.c:52:1
	pop	{r4, r5, r6, pc}
.Ltmp6:
.LBB0_2:
	@DEBUG_VALUE: __NVIC_SetPriority:priority <- $r1
	@DEBUG_VALUE: nvic_irq_enable:nvic_irq_priority <- $r1
	.loc	3 1730 85               @ D:/ProgramFile\Keil5\ARM\CMSIS\5.7.0\CMSIS\Core\Include\core_cm23.h:1730:85
	lsls	r2, r0, #30
	lsrs	r2, r2, #27
	movs	r4, #255
	.loc	3 1730 82 is_stmt 0     @ D:/ProgramFile\Keil5\ARM\CMSIS\5.7.0\CMSIS\Core\Include\core_cm23.h:1730:82
	lsls	r4, r2
	movs	r3, #15
	.loc	3 1730 55               @ D:/ProgramFile\Keil5\ARM\CMSIS\5.7.0\CMSIS\Core\Include\core_cm23.h:1730:55
	ands	r3, r0
	subs	r3, #8
	movs	r0, #3
	bics	r3, r0
	ldr	r0, __arm_cp.0_0
	.loc	3 1730 45               @ D:/ProgramFile\Keil5\ARM\CMSIS\5.7.0\CMSIS\Core\Include\core_cm23.h:1730:45
	ldr	r5, [r3, r0]
	.loc	3 1730 71               @ D:/ProgramFile\Keil5\ARM\CMSIS\5.7.0\CMSIS\Core\Include\core_cm23.h:1730:71
	bics	r5, r4
	.loc	3 1731 20 is_stmt 1     @ D:/ProgramFile\Keil5\ARM\CMSIS\5.7.0\CMSIS\Core\Include\core_cm23.h:1731:20
	lsls	r1, r1, #6
.Ltmp7:
	.loc	3 1731 48 is_stmt 0     @ D:/ProgramFile\Keil5\ARM\CMSIS\5.7.0\CMSIS\Core\Include\core_cm23.h:1731:48
	uxtb	r1, r1
	.loc	3 1731 68               @ D:/ProgramFile\Keil5\ARM\CMSIS\5.7.0\CMSIS\Core\Include\core_cm23.h:1731:68
	lsls	r1, r2
	.loc	3 1730 104 is_stmt 1    @ D:/ProgramFile\Keil5\ARM\CMSIS\5.7.0\CMSIS\Core\Include\core_cm23.h:1730:104
	orrs	r1, r5
	.loc	3 1730 31 is_stmt 0     @ D:/ProgramFile\Keil5\ARM\CMSIS\5.7.0\CMSIS\Core\Include\core_cm23.h:1730:31
	str	r1, [r3, r0]
.Ltmp8:
	@DEBUG_VALUE: __NVIC_EnableIRQ:IRQn <- undef
	.loc	4 52 1 is_stmt 1        @ ../Basic/Source/gd32e23x_misc.c:52:1
	pop	{r4, r5, r6, pc}
.Ltmp9:
	.p2align	2
@ %bb.3:
	.loc	4 0 1 is_stmt 0         @ ../Basic/Source/gd32e23x_misc.c:0:1
__arm_cp.0_0:
	.long	3758157084              @ 0xe000ed1c
.Lcpi_end0:
	.size	__arm_cp.0_0, .Lcpi_end0-__arm_cp.0_0
__arm_cp.0_1:
	.long	3758154752              @ 0xe000e400
.Lcpi_end1:
	.size	__arm_cp.0_1, .Lcpi_end1-__arm_cp.0_1
__arm_cp.0_2:
	.long	3758153984              @ 0xe000e100
.Lcpi_end2:
	.size	__arm_cp.0_2, .Lcpi_end2-__arm_cp.0_2
.Lfunc_end0:
	.size	nvic_irq_enable, .Lfunc_end0-nvic_irq_enable
	.cfi_endproc
	.cantunwind
	.fnend
                                        @ -- End function
	.section	.text.nvic_irq_disable,"ax",%progbits
	.hidden	nvic_irq_disable        @ -- Begin function nvic_irq_disable
	.globl	nvic_irq_disable
	.p2align	2
	.type	nvic_irq_disable,%function
	.code	16                      @ @nvic_irq_disable
	.thumb_func
nvic_irq_disable:
.Lfunc_begin1:
	.loc	4 61 0 is_stmt 1        @ ../Basic/Source/gd32e23x_misc.c:61:0
	.fnstart
	.cfi_startproc
@ %bb.0:
	@DEBUG_VALUE: nvic_irq_disable:nvic_irq <- $r0
	@DEBUG_VALUE: nvic_irq_disable:nvic_irq <- $r0
	@DEBUG_VALUE: __NVIC_DisableIRQ:IRQn <- $r0
	@DEBUG_VALUE: __NVIC_DisableIRQ:IRQn <- $r0
	sxtb	r0, r0
.Ltmp10:
	.loc	3 1564 7 prologue_end   @ D:/ProgramFile\Keil5\ARM\CMSIS\5.7.0\CMSIS\Core\Include\core_cm23.h:1564:7
	cmp	r0, #0
	bmi	.LBB1_2
@ %bb.1:
	.loc	3 0 7 is_stmt 0         @ D:/ProgramFile\Keil5\ARM\CMSIS\5.7.0\CMSIS\Core\Include\core_cm23.h:0:7
	movs	r1, #31
.Ltmp11:
	.loc	3 1566 81 is_stmt 1     @ D:/ProgramFile\Keil5\ARM\CMSIS\5.7.0\CMSIS\Core\Include\core_cm23.h:1566:81
	ands	r1, r0
	movs	r2, #1
	.loc	3 1566 60 is_stmt 0     @ D:/ProgramFile\Keil5\ARM\CMSIS\5.7.0\CMSIS\Core\Include\core_cm23.h:1566:60
	lsls	r2, r1
	.loc	3 1566 34               @ D:/ProgramFile\Keil5\ARM\CMSIS\5.7.0\CMSIS\Core\Include\core_cm23.h:1566:34
	lsrs	r0, r0, #5
	lsls	r0, r0, #2
	ldr	r1, __arm_cp.1_0
	.loc	3 1566 43               @ D:/ProgramFile\Keil5\ARM\CMSIS\5.7.0\CMSIS\Core\Include\core_cm23.h:1566:43
	str	r2, [r0, r1]
	.loc	3 1567 5 is_stmt 1      @ D:/ProgramFile\Keil5\ARM\CMSIS\5.7.0\CMSIS\Core\Include\core_cm23.h:1567:5
	dsb	sy
	.loc	3 1568 5                @ D:/ProgramFile\Keil5\ARM\CMSIS\5.7.0\CMSIS\Core\Include\core_cm23.h:1568:5
	isb	sy
.Ltmp12:
.LBB1_2:
	.loc	4 64 1                  @ ../Basic/Source/gd32e23x_misc.c:64:1
	bx	lr
.Ltmp13:
	.p2align	2
@ %bb.3:
	.loc	4 0 1 is_stmt 0         @ ../Basic/Source/gd32e23x_misc.c:0:1
__arm_cp.1_0:
	.long	3758154112              @ 0xe000e180
.Lcpi_end3:
	.size	__arm_cp.1_0, .Lcpi_end3-__arm_cp.1_0
.Lfunc_end1:
	.size	nvic_irq_disable, .Lfunc_end1-nvic_irq_disable
	.cfi_endproc
	.cantunwind
	.fnend
                                        @ -- End function
	.section	.text.nvic_system_reset,"ax",%progbits
	.hidden	nvic_system_reset       @ -- Begin function nvic_system_reset
	.globl	nvic_system_reset
	.p2align	1
	.type	nvic_system_reset,%function
	.code	16                      @ @nvic_system_reset
	.thumb_func
nvic_system_reset:
.Lfunc_begin2:
	.loc	4 74 0 is_stmt 1        @ ../Basic/Source/gd32e23x_misc.c:74:0
	.fnstart
	.cfi_startproc
@ %bb.0:
	.loc	4 75 5 prologue_end     @ ../Basic/Source/gd32e23x_misc.c:75:5
	bl	__NVIC_SystemReset
.Ltmp14:
.Lfunc_end2:
	.size	nvic_system_reset, .Lfunc_end2-nvic_system_reset
	.cfi_endproc
	.cantunwind
	.fnend
                                        @ -- End function
	.section	.text.__NVIC_SystemReset,"ax",%progbits
	.p2align	2               @ -- Begin function __NVIC_SystemReset
	.type	__NVIC_SystemReset,%function
	.code	16                      @ @__NVIC_SystemReset
	.thumb_func
__NVIC_SystemReset:
.Lfunc_begin3:
	.loc	3 1857 0                @ D:/ProgramFile\Keil5\ARM\CMSIS\5.7.0\CMSIS\Core\Include\core_cm23.h:1857:0
	.fnstart
	.cfi_startproc
@ %bb.0:
	.loc	3 1858 3 prologue_end   @ D:/ProgramFile\Keil5\ARM\CMSIS\5.7.0\CMSIS\Core\Include\core_cm23.h:1858:3
	dsb	sy
	ldr	r0, __arm_cp.3_0
	ldr	r1, __arm_cp.3_1
	.loc	3 1860 15               @ D:/ProgramFile\Keil5\ARM\CMSIS\5.7.0\CMSIS\Core\Include\core_cm23.h:1860:15
	str	r1, [r0]
	.loc	3 1862 3                @ D:/ProgramFile\Keil5\ARM\CMSIS\5.7.0\CMSIS\Core\Include\core_cm23.h:1862:3
	dsb	sy
.LBB3_1:                                @ =>This Inner Loop Header: Depth=1
.Ltmp15:
	.loc	3 1866 5                @ D:/ProgramFile\Keil5\ARM\CMSIS\5.7.0\CMSIS\Core\Include\core_cm23.h:1866:5
	nop
.Ltmp16:
	.loc	3 1864 3                @ D:/ProgramFile\Keil5\ARM\CMSIS\5.7.0\CMSIS\Core\Include\core_cm23.h:1864:3
	b	.LBB3_1
.Ltmp17:
	.p2align	2
@ %bb.2:
	.loc	3 0 3 is_stmt 0         @ D:/ProgramFile\Keil5\ARM\CMSIS\5.7.0\CMSIS\Core\Include\core_cm23.h:0:3
__arm_cp.3_0:
	.long	3758157068              @ 0xe000ed0c
.Lcpi_end4:
	.size	__arm_cp.3_0, .Lcpi_end4-__arm_cp.3_0
__arm_cp.3_1:
	.long	100270084               @ 0x5fa0004
.Lcpi_end5:
	.size	__arm_cp.3_1, .Lcpi_end5-__arm_cp.3_1
.Lfunc_end3:
	.size	__NVIC_SystemReset, .Lfunc_end3-__NVIC_SystemReset
	.cfi_endproc
	.cantunwind
	.fnend
                                        @ -- End function
	.section	.text.nvic_vector_table_set,"ax",%progbits
	.hidden	nvic_vector_table_set   @ -- Begin function nvic_vector_table_set
	.globl	nvic_vector_table_set
	.p2align	2
	.type	nvic_vector_table_set,%function
	.code	16                      @ @nvic_vector_table_set
	.thumb_func
nvic_vector_table_set:
.Lfunc_begin4:
	.loc	4 88 0 is_stmt 1        @ ../Basic/Source/gd32e23x_misc.c:88:0
	.fnstart
	.cfi_startproc
@ %bb.0:
	@DEBUG_VALUE: nvic_vector_table_set:nvic_vict_tab <- $r0
	@DEBUG_VALUE: nvic_vector_table_set:nvic_vict_tab <- $r0
	@DEBUG_VALUE: nvic_vector_table_set:offset <- $r1
	@DEBUG_VALUE: nvic_vector_table_set:offset <- $r1
	ldr	r2, __arm_cp.4_0
.Ltmp18:
	.loc	4 89 41 prologue_end    @ ../Basic/Source/gd32e23x_misc.c:89:41
	ands	r2, r1
	.loc	4 89 31 is_stmt 0       @ ../Basic/Source/gd32e23x_misc.c:89:31
	orrs	r2, r0
	ldr	r0, __arm_cp.4_1
.Ltmp19:
	.loc	4 89 15                 @ ../Basic/Source/gd32e23x_misc.c:89:15
	str	r2, [r0]
	.loc	4 90 1 is_stmt 1        @ ../Basic/Source/gd32e23x_misc.c:90:1
	bx	lr
.Ltmp20:
	.p2align	2
@ %bb.1:
	.loc	4 0 1 is_stmt 0         @ ../Basic/Source/gd32e23x_misc.c:0:1
__arm_cp.4_0:
	.long	536870784               @ 0x1fffff80
.Lcpi_end6:
	.size	__arm_cp.4_0, .Lcpi_end6-__arm_cp.4_0
__arm_cp.4_1:
	.long	3758157064              @ 0xe000ed08
.Lcpi_end7:
	.size	__arm_cp.4_1, .Lcpi_end7-__arm_cp.4_1
.Lfunc_end4:
	.size	nvic_vector_table_set, .Lfunc_end4-nvic_vector_table_set
	.cfi_endproc
	.cantunwind
	.fnend
                                        @ -- End function
	.section	.text.system_lowpower_set,"ax",%progbits
	.hidden	system_lowpower_set     @ -- Begin function system_lowpower_set
	.globl	system_lowpower_set
	.p2align	2
	.type	system_lowpower_set,%function
	.code	16                      @ @system_lowpower_set
	.thumb_func
system_lowpower_set:
.Lfunc_begin5:
	.loc	4 104 0 is_stmt 1       @ ../Basic/Source/gd32e23x_misc.c:104:0
	.fnstart
	.cfi_startproc
@ %bb.0:
	@DEBUG_VALUE: system_lowpower_set:lowpower_mode <- $r0
	@DEBUG_VALUE: system_lowpower_set:lowpower_mode <- $r0
	ldr	r1, __arm_cp.5_0
.Ltmp21:
	.loc	4 105 14 prologue_end   @ ../Basic/Source/gd32e23x_misc.c:105:14
	ldr	r2, [r1]
	orrs	r2, r0
	str	r2, [r1]
	.loc	4 106 1                 @ ../Basic/Source/gd32e23x_misc.c:106:1
	bx	lr
.Ltmp22:
	.p2align	2
@ %bb.1:
	.loc	4 0 1 is_stmt 0         @ ../Basic/Source/gd32e23x_misc.c:0:1
__arm_cp.5_0:
	.long	3758157072              @ 0xe000ed10
.Lcpi_end8:
	.size	__arm_cp.5_0, .Lcpi_end8-__arm_cp.5_0
.Lfunc_end5:
	.size	system_lowpower_set, .Lfunc_end5-system_lowpower_set
	.cfi_endproc
	.cantunwind
	.fnend
                                        @ -- End function
	.section	.text.system_lowpower_reset,"ax",%progbits
	.hidden	system_lowpower_reset   @ -- Begin function system_lowpower_reset
	.globl	system_lowpower_reset
	.p2align	2
	.type	system_lowpower_reset,%function
	.code	16                      @ @system_lowpower_reset
	.thumb_func
system_lowpower_reset:
.Lfunc_begin6:
	.loc	4 120 0 is_stmt 1       @ ../Basic/Source/gd32e23x_misc.c:120:0
	.fnstart
	.cfi_startproc
@ %bb.0:
	@DEBUG_VALUE: system_lowpower_reset:lowpower_mode <- $r0
	@DEBUG_VALUE: system_lowpower_reset:lowpower_mode <- $r0
	ldr	r1, __arm_cp.6_0
.Ltmp23:
	.loc	4 121 14 prologue_end   @ ../Basic/Source/gd32e23x_misc.c:121:14
	ldr	r2, [r1]
	bics	r2, r0
	str	r2, [r1]
	.loc	4 122 1                 @ ../Basic/Source/gd32e23x_misc.c:122:1
	bx	lr
.Ltmp24:
	.p2align	2
@ %bb.1:
	.loc	4 0 1 is_stmt 0         @ ../Basic/Source/gd32e23x_misc.c:0:1
__arm_cp.6_0:
	.long	3758157072              @ 0xe000ed10
.Lcpi_end9:
	.size	__arm_cp.6_0, .Lcpi_end9-__arm_cp.6_0
.Lfunc_end6:
	.size	system_lowpower_reset, .Lfunc_end6-system_lowpower_reset
	.cfi_endproc
	.cantunwind
	.fnend
                                        @ -- End function
	.section	.text.systick_clksource_set,"ax",%progbits
	.hidden	systick_clksource_set   @ -- Begin function systick_clksource_set
	.globl	systick_clksource_set
	.p2align	2
	.type	systick_clksource_set,%function
	.code	16                      @ @systick_clksource_set
	.thumb_func
systick_clksource_set:
.Lfunc_begin7:
	.loc	4 134 0 is_stmt 1       @ ../Basic/Source/gd32e23x_misc.c:134:0
	.fnstart
	.cfi_startproc
@ %bb.0:
	@DEBUG_VALUE: systick_clksource_set:systick_clksource <- $r0
	@DEBUG_VALUE: systick_clksource_set:systick_clksource <- $r0
	ldr	r1, __arm_cp.7_0
.Ltmp25:
	.loc	4 0 0 prologue_end      @ ../Basic/Source/gd32e23x_misc.c:0:0
	ldr	r2, [r1]
	movs	r3, #4
.Ltmp26:
	.loc	4 135 8                 @ ../Basic/Source/gd32e23x_misc.c:135:8
	cmp	r0, #4
	beq	.LBB7_2
.Ltmp27:
@ %bb.1:
	@DEBUG_VALUE: systick_clksource_set:systick_clksource <- $r0
	.loc	4 0 8 is_stmt 0         @ ../Basic/Source/gd32e23x_misc.c:0:8
	bics	r2, r3
	b	.LBB7_3
.Ltmp28:
.LBB7_2:
	@DEBUG_VALUE: systick_clksource_set:systick_clksource <- $r0
	orrs	r2, r3
.Ltmp29:
.LBB7_3:
	@DEBUG_VALUE: systick_clksource_set:systick_clksource <- $r0
	str	r2, [r1]
.Ltmp30:
	.loc	4 142 1 is_stmt 1       @ ../Basic/Source/gd32e23x_misc.c:142:1
	bx	lr
.Ltmp31:
	.p2align	2
@ %bb.4:
	.loc	4 0 1 is_stmt 0         @ ../Basic/Source/gd32e23x_misc.c:0:1
__arm_cp.7_0:
	.long	3758153744              @ 0xe000e010
.Lcpi_end10:
	.size	__arm_cp.7_0, .Lcpi_end10-__arm_cp.7_0
.Lfunc_end7:
	.size	systick_clksource_set, .Lfunc_end7-systick_clksource_set
	.cfi_endproc
	.cantunwind
	.fnend
                                        @ -- End function
	.section	".note.GNU-stack","",%progbits
	.eabi_attribute	30, 4	@ Tag_ABI_optimization_goals
	.ARM_attribute	16, 1	@ Tag_AV_eba