	.text
	.syntax unified
	.eabi_attribute	67, "2.09"	@ Tag_conformance
	.cpu	cortex-m23
	.eabi_attribute	6, 16	@ Tag_CPU_arch
	.eabi_attribute	7, 77	@ Tag_CPU_arch_profile
	.eabi_attribute	8, 0	@ Tag_ARM_ISA_use
	.eabi_attribute	9, 3	@ Tag_THUMB_ISA_use
	.eabi_attribute	34, 0	@ Tag_CPU_unaligned_access
	.eabi_attribute	17, 1	@ Tag_ABI_PCS_GOT_use
	.eabi_attribute	20, 2	@ Tag_ABI_FP_denormal
	.eabi_attribute	21, 0	@ Tag_ABI_FP_exceptions
	.eabi_attribute	23, 1	@ Tag_ABI_FP_number_model
	.eabi_attribute	24, 1	@ Tag_ABI_align_needed
	.eabi_attribute	25, 1	@ Tag_ABI_align_preserved
	.eabi_attribute	38, 1	@ Tag_ABI_FP_16bit_format
	.eabi_attribute	18, 2	@ Tag_ABI_PCS_wchar_t
	.eabi_attribute	26, 1	@ Tag_ABI_enum_size
	.eabi_attribute	14, 0	@ Tag_ABI_PCS_R9_use
	.file	"gd32e23x_fmc.c"
	.file	1 "C:\\Users\\13728\\Desktop\\general igniter\\Project" "../CMSIS/Include\\gd32e23x.h"
	.file	2 "C:\\Users\\13728\\Desktop\\general igniter\\Project" "../Basic/Include\\gd32e23x_fmc.h"
	.file	3 "D:\\ProgramFile\\Keil5\\ARM\\ARMCLANG\\Bin\\..\\include" "stdint.h"
	.section	.text.fmc_unlock,"ax",%progbits
	.hidden	fmc_unlock              @ -- Begin function fmc_unlock
	.globl	fmc_unlock
	.p2align	2
	.type	fmc_unlock,%function
	.code	16                      @ @fmc_unlock
	.thumb_func
fmc_unlock:
.Lfunc_begin0:
	.file	4 "C:\\Users\\13728\\Desktop\\general igniter\\Project" "../Basic/Source/gd32e23x_fmc.c"
	.loc	4 52 0                  @ ../Basic/Source/gd32e23x_fmc.c:52:0
	.fnstart
	.cfi_sections .debug_frame
	.cfi_startproc
@ %bb.0:
	ldr	r0, __arm_cp.0_0
.Ltmp0:
	.loc	4 53 19 prologue_end    @ ../Basic/Source/gd32e23x_fmc.c:53:19
	ldr	r1, [r0, #12]
.Ltmp1:
	.loc	4 53 8 is_stmt 0        @ ../Basic/Source/gd32e23x_fmc.c:53:8
	lsls	r1, r1, #24
	bpl	.LBB0_2
@ %bb.1:
	.loc	4 0 8                   @ ../Basic/Source/gd32e23x_fmc.c:0:8
	ldr	r1, __arm_cp.0_1
.Ltmp2:
	.loc	4 55 17 is_stmt 1       @ ../Basic/Source/gd32e23x_fmc.c:55:17
	str	r1, [r0]
	ldr	r1, __arm_cp.0_2
	.loc	4 56 17                 @ ../Basic/Source/gd32e23x_fmc.c:56:17
	str	r1, [r0]
.Ltmp3:
.LBB0_2:
	.loc	4 58 1                  @ ../Basic/Source/gd32e23x_fmc.c:58:1
	bx	lr
.Ltmp4:
	.p2align	2
@ %bb.3:
	.loc	4 0 1 is_stmt 0         @ ../Basic/Source/gd32e23x_fmc.c:0:1
__arm_cp.0_0:
	.long	1073881092              @ 0x40022004
.Lcpi_end0:
	.size	__arm_cp.0_0, .Lcpi_end0-__arm_cp.0_0
__arm_cp.0_1:
	.long	1164378403              @ 0x45670123
.Lcpi_end1:
	.size	__arm_cp.0_1, .Lcpi_end1-__arm_cp.0_1
__arm_cp.0_2:
	.long	3455027627              @ 0xcdef89ab
.Lcpi_end2:
	.size	__arm_cp.0_2, .Lcpi_end2-__arm_cp.0_2
.Lfunc_end0:
	.size	fmc_unlock, .Lfunc_end0-fmc_unlock
	.cfi_endproc
	.cantunwind
	.fnend
                                        @ -- End function
	.section	.text.fmc_lock,"ax",%progbits
	.hidden	fmc_lock                @ -- Begin function fmc_lock
	.globl	fmc_lock
	.p2align	2
	.type	fmc_lock,%function
	.code	16                      @ @fmc_lock
	.thumb_func
fmc_lock:
.Lfunc_begin1:
	.loc	4 68 0 is_stmt 1        @ ../Basic/Source/gd32e23x_fmc.c:68:0
	.fnstart
	.cfi_startproc
@ %bb.0:
	ldr	r0, __arm_cp.1_0
.Ltmp5:
	.loc	4 70 13 prologue_end    @ ../Basic/Source/gd32e23x_fmc.c:70:13
	ldr	r1, [r0]
	movs	r2, #128
	orrs	r2, r1
	str	r2, [r0]
	.loc	4 71 1                  @ ../Basic/Source/gd32e23x_fmc.c:71:1
	bx	lr
.Ltmp6:
	.p2align	2
@ %bb.1:
	.loc	4 0 1 is_stmt 0         @ ../Basic/Source/gd32e23x_fmc.c:0:1
__arm_cp.1_0:
	.long	1073881104              @ 0x40022010
.Lcpi_end3:
	.size	__arm_cp.1_0, .Lcpi_end3-__arm_cp.1_0
.Lfunc_end1:
	.size	fmc_lock, .Lfunc_end1-fmc_lock
	.cfi_endproc
	.cantunwind
	.fnend
                                        @ -- End function
	.section	.text.fmc_wscnt_set,"ax",%progbits
	.hidden	fmc_wscnt_set           @ -- Begin function fmc_wscnt_set
	.globl	fmc_wscnt_set
	.p2align	2
	.type	fmc_wscnt_set,%function
	.code	16                      @ @fmc_wscnt_set
	.thumb_func
fmc_wscnt_set:
.Lfunc_begin2:
	.loc	4 83 0 is_stmt 1        @ ../Basic/Source/gd32e23x_fmc.c:83:0
	.fnstart
	.cfi_startproc
@ %bb.0:
	@DEBUG_VALUE: fmc_wscnt_set:wscnt <- $r0
	@DEBUG_VALUE: fmc_wscnt_set:wscnt <- $r0
	ldr	r1, __arm_cp.2_0
.Ltmp7:
	.loc	4 86 11 prologue_end    @ ../Basic/Source/gd32e23x_fmc.c:86:11
	ldr	r2, [r1]
.Ltmp8:
	@DEBUG_VALUE: fmc_wscnt_set:reg <- $r2
	.loc	4 0 11 is_stmt 0        @ ../Basic/Source/gd32e23x_fmc.c:0:11
	movs	r3, #7
	.loc	4 88 9 is_stmt 1        @ ../Basic/Source/gd32e23x_fmc.c:88:9
	bics	r2, r3
.Ltmp9:
	@DEBUG_VALUE: fmc_wscnt_set:reg <- $r2
	.loc	4 89 19                 @ ../Basic/Source/gd32e23x_fmc.c:89:19
	orrs	r2, r0
.Ltmp10:
	.loc	4 89 12 is_stmt 0       @ ../Basic/Source/gd32e23x_fmc.c:89:12
	str	r2, [r1]
	.loc	4 90 1 is_stmt 1        @ ../Basic/Source/gd32e23x_fmc.c:90:1
	bx	lr
.Ltmp11:
	.p2align	2
@ %bb.1:
	.loc	4 0 1 is_stmt 0         @ ../Basic/Source/gd32e23x_fmc.c:0:1
__arm_cp.2_0:
	.long	1073881088              @ 0x40022000
.Lcpi_end4:
	.size	__arm_cp.2_0, .Lcpi_end4-__arm_cp.2_0
.Lfunc_end2:
	.size	fmc_wscnt_set, .Lfunc_end2-fmc_wscnt_set
	.cfi_endproc
	.cantunwind
	.fnend
                                        @ -- End function
	.section	.text.fmc_prefetch_enable,"ax",%progbits
	.hidden	fmc_prefetch_enable     @ -- Begin function fmc_prefetch_enable
	.globl	fmc_prefetch_enable
	.p2align	2
	.type	fmc_prefetch_enable,%function
	.code	16                      @ @fmc_prefetch_enable
	.thumb_func
fmc_prefetch_enable:
.Lfunc_begin3:
	.loc	4 99 0 is_stmt 1        @ ../Basic/Source/gd32e23x_fmc.c:99:0
	.fnstart
	.cfi_startproc
@ %bb.0:
	ldr	r0, __arm_cp.3_0
.Ltmp12:
	.loc	4 100 12 prologue_end   @ ../Basic/Source/gd32e23x_fmc.c:100:12
	ldr	r1, [r0]
	movs	r2, #16
	orrs	r2, r1
	str	r2, [r0]
	.loc	4 101 1                 @ ../Basic/Source/gd32e23x_fmc.c:101:1
	bx	lr
.Ltmp13:
	.p2align	2
@ %bb.1:
	.loc	4 0 1 is_stmt 0         @ ../Basic/Source/gd32e23x_fmc.c:0:1
__arm_cp.3_0:
	.long	1073881088              @ 0x40022000
.Lcpi_end5:
	.size	__arm_cp.3_0, .Lcpi_end5-__arm_cp.3_0
.Lfunc_end3:
	.size	fmc_prefetch_enable, .Lfunc_end3-fmc_prefetch_enable
	.cfi_endproc
	.cantunwind
	.fnend
                                        @ -- End function
	.section	.text.fmc_prefetch_disable,"ax",%progbits
	.hidden	fmc_prefetch_disable    @ -- Begin function fmc_prefetch_disable
	.globl	fmc_prefetch_disable
	.p2align	2
	.type	fmc_prefetch_disable,%function
	.code	16                      @ @fmc_prefetch_disable
	.thumb_func
fmc_prefetch_disable:
.Lfunc_begin4:
	.loc	4 110 0 is_stmt 1       @ ../Basic/Source/gd32e23x_fmc.c:110:0
	.fnstart
	.cfi_startproc
@ %bb.0:
	ldr	r0, __arm_cp.4_0
.Ltmp14:
	.loc	4 111 12 prologue_end   @ ../Basic/Source/gd32e23x_fmc.c:111:12
	ldr	r1, [r0]
	movs	r2, #16
	bics	r1, r2
	str	r1, [r0]
	.loc	4 112 1                 @ ../Basic/Source/gd32e23x_fmc.c:112:1
	bx	lr
.Ltmp15:
	.p2align	2
@ %bb.1:
	.loc	4 0 1 is_stmt 0         @ ../Basic/Source/gd32e23x_fmc.c:0:1
__arm_cp.4_0:
	.long	1073881088              @ 0x40022000
.Lcpi_end6:
	.size	__arm_cp.4_0, .Lcpi_end6-__arm_cp.4_0
.Lfunc_end4:
	.size	fmc_prefetch_disable, .Lfunc_end4-fmc_prefetch_disable
	.cfi_endproc
	.cantunwind
	.fnend
                                        @ -- End function
	.section	.text.fmc_page_erase,"ax",%progbits
	.hidden	fmc_page_erase          @ -- Begin function fmc_page_erase
	.globl	fmc_page_erase
	.p2align	2
	.type	fmc_page_erase,%function
	.code	16                      @ @fmc_page_erase
	.thumb_func
fmc_page_erase:
.Lfunc_begin5:
	.loc	4 128 0 is_stmt 1       @ ../Basic/Source/gd32e23x_fmc.c:128:0
	.fnstart
	.cfi_startproc
@ %bb.0:
	@DEBUG_VALUE: fmc_page_erase:page_address <- $r0
	.save	{r4, r5, r6, r7, lr}
	.pad	#4
	push	{r3, r4, r5, r6, r7, lr}
	.cfi_def_cfa_offset 24
	.cfi_offset lr, -4
	.cfi_offset r7, -8
	.cfi_offset r6, -12
	.cfi_offset r5, -16
	.cfi_offset r4, -20
	mov	r5, r0
.Ltmp16:
	@DEBUG_VALUE: fmc_page_erase:page_address <- $r5
	movs	r0, #15
	lsls	r4, r0, #16
.Ltmp17:
	.loc	4 129 32 prologue_end   @ ../Basic/Source/gd32e23x_fmc.c:129:32
	mov	r0, r4
	bl	fmc_ready_wait
.Ltmp18:
	@DEBUG_VALUE: fmc_page_erase:fmc_state <- $r0
	.loc	4 131 8                 @ ../Basic/Source/gd32e23x_fmc.c:131:8
	cbz	r0, .LBB5_2
.Ltmp19:
@ %bb.1:
	@DEBUG_VALUE: fmc_page_erase:fmc_state <- $r0
	@DEBUG_VALUE: fmc_page_erase:page_address <- $r5
	@DEBUG_VALUE: fmc_page_erase:fmc_state <- $r0
	.loc	4 145 5                 @ ../Basic/Source/gd32e23x_fmc.c:145:5
	pop	{r3, r4, r5, r6, r7, pc}
.Ltmp20:
.LBB5_2:
	@DEBUG_VALUE: fmc_page_erase:fmc_state <- $r0
	@DEBUG_VALUE: fmc_page_erase:page_address <- $r5
	.loc	4 0 5 is_stmt 0         @ ../Basic/Source/gd32e23x_fmc.c:0:5
	ldr	r6, __arm_cp.5_0
.Ltmp21:
	.loc	4 133 17 is_stmt 1      @ ../Basic/Source/gd32e23x_fmc.c:133:17
	ldr	r0, [r6]
.Ltmp22:
	.loc	4 0 17 is_stmt 0        @ ../Basic/Source/gd32e23x_fmc.c:0:17
	movs	r7, #2
	.loc	4 133 17                @ ../Basic/Source/gd32e23x_fmc.c:133:17
	orrs	r0, r7
	str	r0, [r6]
	.loc	4 134 18 is_stmt 1      @ ../Basic/Source/gd32e23x_fmc.c:134:18
	str	r5, [r6, #4]
	.loc	4 135 17                @ ../Basic/Source/gd32e23x_fmc.c:135:17
	ldr	r0, [r6]
	movs	r1, #64
	orrs	r1, r0
	str	r1, [r6]
	.loc	4 138 21                @ ../Basic/Source/gd32e23x_fmc.c:138:21
	mov	r0, r4
	bl	fmc_ready_wait
.Ltmp23:
	@DEBUG_VALUE: fmc_page_erase:fmc_state <- undef
	.loc	4 141 17                @ ../Basic/Source/gd32e23x_fmc.c:141:17
	ldr	r1, [r6]
	bics	r1, r7
	str	r1, [r6]
.Ltmp24:
	@DEBUG_VALUE: fmc_page_erase:fmc_state <- $r0
	.loc	4 145 5                 @ ../Basic/Source/gd32e23x_fmc.c:145:5
	pop	{r3, r4, r5, r6, r7, pc}
.Ltmp25:
	.p2align	2
@ %bb.3:
	.loc	4 0 5 is_stmt 0         @ ../Basic/Source/gd32e23x_fmc.c:0:5
__arm_cp.5_0:
	.long	1073881104              @ 0x40022010
.Lcpi_end7:
	.size	__arm_cp.5_0, .Lcpi_end7-__arm_cp.5_0
.Lfunc_end5:
	.size	fmc_page_erase, .Lfunc_end5-fmc_page_erase
	.cfi_endproc
	.cantunwind
	.fnend
                                        @ -- End function
	.section	.text.fmc_ready_wait,"ax",%progbits
	.hidden	fmc_ready_wait          @ -- Begin function fmc_ready_wait
	.globl	fmc_ready_wait
	.p2align	1
	.type	fmc_ready_wait,%function
	.code	16                      @ @fmc_ready_wait
	.thumb_func
fmc_ready_wait:
.Lfunc_begin6:
	.loc	4 799 0 is_stmt 1       @ ../Basic/Source/gd32e23x_fmc.c:799:0
	.fnstart
	.cfi_startproc
@ %bb.0:
	@DEBUG_VALUE: fmc_ready_wait:timeout <- $r0
	@DEBUG_VALUE: fmc_ready_wait:timeout <- $r0
	.save	{r4, r5, r6, lr}
	push	{r4, r5, r6, lr}
	.cfi_def_cfa_offset 16
	.cfi_offset lr, -4
	.cfi_offset r6, -8
	.cfi_offset r5, -12
	.cfi_offset r4, -16
.Ltmp26:
	@DEBUG_VALUE: fmc_ready_wait:fmc_state <- 1
	.loc	4 803 5 prologue_end    @ ../Basic/Source/gd32e23x_fmc.c:803:5
	subs	r4, r0, #1
	movs	r5, #0
.Ltmp27:
.LBB6_1:                                @ =>This Inner Loop Header: Depth=1
	@DEBUG_VALUE: fmc_ready_wait:timeout <- undef
	@DEBUG_VALUE: fmc_ready_wait:timeout <- [DW_OP_constu 1, DW_OP_minus, DW_OP_stack_value] undef
	.loc	4 807 36                @ ../Basic/Source/gd32e23x_fmc.c:807:36
	subs	r4, r4, #1
	mov	r6, r5
	adcs	r6, r5
.Ltmp28:
	.loc	4 805 21                @ ../Basic/Source/gd32e23x_fmc.c:805:21
	bl	fmc_state_get
.Ltmp29:
	@DEBUG_VALUE: fmc_ready_wait:fmc_state <- $r0
	.loc	4 807 5                 @ ../Basic/Source/gd32e23x_fmc.c:807:5
	cmp	r0, #1
	bne	.LBB6_3
.Ltmp30:
@ %bb.2:                                @   in Loop: Header=BB6_1 Depth=1
	@DEBUG_VALUE: fmc_ready_wait:fmc_state <- $r0
	cmp	r6, #0
	bne	.LBB6_1
.Ltmp31:
.LBB6_3:
	@DEBUG_VALUE: fmc_ready_wait:fmc_state <- $r0
	.loc	4 809 8                 @ ../Basic/Source/gd32e23x_fmc.c:809:8
	cmp	r0, #1
	bne	.LBB6_5
.Ltmp32:
@ %bb.4:
	@DEBUG_VALUE: fmc_ready_wait:fmc_state <- $r0
	.loc	4 0 8 is_stmt 0         @ ../Basic/Source/gd32e23x_fmc.c:0:8
	movs	r0, #5
.Ltmp33:
.LBB6_5:
	@DEBUG_VALUE: fmc_ready_wait:fmc_state <- $r0
	.loc	4 813 5 is_stmt 1       @ ../Basic/Source/gd32e23x_fmc.c:813:5
	pop	{r4, r5, r6, pc}
.Ltmp34:
.Lfunc_end6:
	.size	fmc_ready_wait, .Lfunc_end6-fmc_ready_wait
	.cfi_endproc
	.cantunwind
	.fnend
                                        @ -- End function
	.section	.text.fmc_mass_erase,"ax",%progbits
	.hidden	fmc_mass_erase          @ -- Begin function fmc_mass_erase
	.globl	fmc_mass_erase
	.p2align	2
	.type	fmc_mass_erase,%function
	.code	16                      @ @fmc_mass_erase
	.thumb_func
fmc_mass_erase:
.Lfunc_begin7:
	.loc	4 162 0                 @ ../Basic/Source/gd32e23x_fmc.c:162:0
	.fnstart
	.cfi_startproc
@ %bb.0:
	.save	{r4, r5, r6, lr}
	push	{r4, r5, r6, lr}
	.cfi_def_cfa_offset 16
	.cfi_offset lr, -4
	.cfi_offset r6, -8
	.cfi_offset r5, -12
	.cfi_offset r4, -16
	movs	r0, #15
	lsls	r4, r0, #16
.Ltmp35:
	.loc	4 163 32 prologue_end   @ ../Basic/Source/gd32e23x_fmc.c:163:32
	mov	r0, r4
	bl	fmc_ready_wait
.Ltmp36:
	@DEBUG_VALUE: fmc_mass_erase:fmc_state <- $r0
	.loc	4 165 8                 @ ../Basic/Source/gd32e23x_fmc.c:165:8
	cbz	r0, .LBB7_2
.Ltmp37:
@ %bb.1:
	@DEBUG_VALUE: fmc_mass_erase:fmc_state <- $r0
	@DEBUG_VALUE: fmc_mass_erase:fmc_state <- $r0
	.loc	4 178 5                 @ ../Basic/Source/gd32e23x_fmc.c:178:5
	pop	{r4, r5, r6, pc}
.Ltmp38:
.LBB7_2:
	@DEBUG_VALUE: fmc_mass_erase:fmc_state <- $r0
	.loc	4 0 5 is_stmt 0         @ ../Basic/Source/gd32e23x_fmc.c:0:5
	ldr	r5, __arm_cp.7_0
.Ltmp39:
	.loc	4 167 17 is_stmt 1      @ ../Basic/Source/gd32e23x_fmc.c:167:17
	ldr	r0, [r5]
.Ltmp40:
	.loc	4 0 17 is_stmt 0        @ ../Basic/Source/gd32e23x_fmc.c:0:17
	movs	r6, #4
	.loc	4 167 17                @ ../Basic/Source/gd32e23x_fmc.c:167:17
	orrs	r0, r6
	str	r0, [r5]
	.loc	4 168 17 is_stmt 1      @ ../Basic/Source/gd32e23x_fmc.c:168:17
	ldr	r0, [r5]
	movs	r1, #64
	orrs	r1, r0
	str	r1, [r5]
	.loc	4 171 21                @ ../Basic/Source/gd32e23x_fmc.c:171:21
	mov	r0, r4
	bl	fmc_ready_wait
.Ltmp41:
	@DEBUG_VALUE: fmc_mass_erase:fmc_state <- undef
	.loc	4 174 17                @ ../Basic/Source/gd32e23x_fmc.c:174:17
	ldr	r1, [r5]
	bics	r1, r6
	str	r1, [r5]
.Ltmp42:
	@DEBUG_VALUE: fmc_mass_erase:fmc_state <- $r0
	.loc	4 178 5                 @ ../Basic/Source/gd32e23x_fmc.c:178:5
	pop	{r4, r5, r6, pc}
.Ltmp43:
	.p2align	2
@ %bb.3:
	.loc	4 0 5 is_stmt 0         @ ../Basic/Source/gd32e23x_fmc.c:0:5
__arm_cp.7_0:
	.long	1073881104              @ 0x40022010
.Lcpi_end8:
	.size	__arm_cp.7_0, .Lcpi_end8-__arm_cp.7_0
.Lfunc_end7:
	.size	fmc_mass_erase, .Lfunc_end7-fmc_mass_erase
	.cfi_endproc
	.cantunwind
	.fnend
                                        @ -- End function
	.section	.text.fmc_doubleword_program,"ax",%progbits
	.hidden	fmc_doubleword_program  @ -- Begin function fmc_doubleword_program
	.globl	fmc_doubleword_program
	.p2align	2
	.type	fmc_doubleword_program,%function
	.code	16                      @ @fmc_doubleword_program
	.thumb_func
fmc_doubleword_program:
.Lfunc_begin8:
	.loc	4 197 0 is_stmt 1       @ ../Basic/Source/gd32e23x_fmc.c:197:0
	.fnstart
	.cfi_startproc
@ %bb.0:
	@DEBUG_VALUE: fmc_doubleword_program:address <- $r0
	.save	{r4, r5, r6, r7, lr}
	.pad	#4
	push	{r3, r4, r5, r6, r7, lr}
	.cfi_def_cfa_offset 24
	.cfi_offset lr, -4
	.cfi_offset r7, -8
	.cfi_offset r6, -12
	.cfi_offset r5, -16
	.cfi_offset r4, -20
	mov	r6, r3
	str	r2, [sp]                @ 4-byte Spill
	mov	r5, r0
.Ltmp44:
	@DEBUG_VALUE: fmc_doubleword_program:address <- $r5
	movs	r0, #15
	lsls	r7, r0, #16
.Ltmp45:
	.loc	4 200 32 prologue_end   @ ../Basic/Source/gd32e23x_fmc.c:200:32
	mov	r0, r7
	bl	fmc_ready_wait
.Ltmp46:
	@DEBUG_VALUE: fmc_doubleword_program:fmc_state <- $r0
	.loc	4 0 32 is_stmt 0        @ ../Basic/Source/gd32e23x_fmc.c:0:32
	ldr	r4, __arm_cp.8_0
.Ltmp47:
	@DEBUG_VALUE: fmc_doubleword_program:data1 <- [DW_OP_constu 32, DW_OP_shr, DW_OP_LLVM_convert 64 7, DW_OP_LLVM_convert 32 7, DW_OP_stack_value] undef
	@DEBUG_VALUE: fmc_doubleword_program:data0 <- [DW_OP_constu 4294967295, DW_OP_and, DW_OP_LLVM_convert 64 7, DW_OP_LLVM_convert 32 7, DW_OP_stack_value] undef
	.loc	4 206 12 is_stmt 1      @ ../Basic/Source/gd32e23x_fmc.c:206:12
	ldr	r1, [r4]
	movw	r2, #32768
	orrs	r1, r2
	str	r1, [r4]
.Ltmp48:
	@DEBUG_VALUE: fmc_doubleword_program:data <- [DW_OP_LLVM_fragment 0 32] [$sp+0]
	@DEBUG_VALUE: fmc_doubleword_program:data <- [DW_OP_LLVM_fragment 32 32] $r6
	.loc	4 207 8                 @ ../Basic/Source/gd32e23x_fmc.c:207:8
	cbnz	r0, .LBB8_2
.Ltmp49:
@ %bb.1:
	@DEBUG_VALUE: fmc_doubleword_program:data <- [DW_OP_LLVM_fragment 32 32] $r6
	@DEBUG_VALUE: fmc_doubleword_program:data <- [DW_OP_LLVM_fragment 0 32] [$sp+0]
	@DEBUG_VALUE: fmc_doubleword_program:fmc_state <- $r0
	@DEBUG_VALUE: fmc_doubleword_program:address <- $r5
	@DEBUG_VALUE: fmc_doubleword_program:data <- [DW_OP_LLVM_fragment 32 32] $r6
	@DEBUG_VALUE: fmc_doubleword_program:data <- [DW_OP_LLVM_fragment 0 32] [$sp+0]
	@DEBUG_VALUE: fmc_doubleword_program:data1 <- [DW_OP_LLVM_convert 64 7, DW_OP_LLVM_convert 32 7, DW_OP_stack_value, DW_OP_LLVM_fragment 32 32] undef
	@DEBUG_VALUE: fmc_doubleword_program:data1 <- $r6
	@DEBUG_VALUE: fmc_doubleword_program:data0 <- [$sp+0]
	.loc	4 209 17                @ ../Basic/Source/gd32e23x_fmc.c:209:17
	ldr	r0, [r4, #16]
.Ltmp50:
	.loc	4 0 17 is_stmt 0        @ ../Basic/Source/gd32e23x_fmc.c:0:17
	mov	r1, r6
.Ltmp51:
	@DEBUG_VALUE: fmc_doubleword_program:data1 <- $r1
	@DEBUG_VALUE: fmc_doubleword_program:data <- [DW_OP_LLVM_fragment 32 32] $r1
	movs	r6, #1
	.loc	4 209 17                @ ../Basic/Source/gd32e23x_fmc.c:209:17
	orrs	r0, r6
	str	r0, [r4, #16]
	.loc	4 210 24 is_stmt 1      @ ../Basic/Source/gd32e23x_fmc.c:210:24
	ldr	r0, [sp]                @ 4-byte Reload
.Ltmp52:
	@DEBUG_VALUE: fmc_doubleword_program:data0 <- $r0
	@DEBUG_VALUE: fmc_doubleword_program:data <- [DW_OP_LLVM_fragment 0 32] $r0
	str	r0, [r5]
.Ltmp53:
	@DEBUG_VALUE: fmc_doubleword_program:data1 <- [DW_OP_LLVM_convert 64 7, DW_OP_LLVM_convert 32 7, DW_OP_stack_value, DW_OP_LLVM_fragment 0 32] $r1
	.loc	4 211 27                @ ../Basic/Source/gd32e23x_fmc.c:211:27
	str	r1, [r5, #4]
	.loc	4 213 21                @ ../Basic/Source/gd32e23x_fmc.c:213:21
	mov	r0, r7
.Ltmp54:
	bl	fmc_ready_wait
.Ltmp55:
	.loc	4 0 21 is_stmt 0        @ ../Basic/Source/gd32e23x_fmc.c:0:21
	movw	r2, #32768
.Ltmp56:
	@DEBUG_VALUE: fmc_doubleword_program:fmc_state <- undef
	.loc	4 216 17 is_stmt 1      @ ../Basic/Source/gd32e23x_fmc.c:216:17
	ldr	r1, [r4, #16]
	bics	r1, r6
	str	r1, [r4, #16]
.Ltmp57:
.LBB8_2:
	@DEBUG_VALUE: fmc_doubleword_program:address <- $r5
	@DEBUG_VALUE: fmc_doubleword_program:fmc_state <- $r0
	.loc	4 218 12                @ ../Basic/Source/gd32e23x_fmc.c:218:12
	ldr	r1, [r4]
	bics	r1, r2
	str	r1, [r4]
	.loc	4 221 5                 @ ../Basic/Source/gd32e23x_fmc.c:221:5
	pop	{r3, r4, r5, r6, r7, pc}
.Ltmp58:
	.p2align	2
@ %bb.3:
	.loc	4 0 5 is_stmt 0         @ ../Basic/Source/gd32e23x_fmc.c:0:5
__arm_cp.8_0:
	.long	1073881088              @ 0x40022000
.Lcpi_end9:
	.size	__arm_cp.8_0, .Lcpi_end9-__arm_cp.8_0
.Lfunc_end8:
	.size	fmc_doubleword_program, .Lfunc_end8-fmc_doubleword_program
	.cfi_endproc
	.cantunwind
	.fnend
                                        @ -- End function
	.section	.text.fmc_word_program,"ax",%progbits
	.hidden	fmc_word_program        @ -- Begin function fmc_word_program
	.globl	fmc_word_program
	.p2align	2
	.type	fmc_word_program,%function
	.code	16                      @ @fmc_word_program
	.thumb_func
fmc_word_program:
.Lfunc_begin9:
	.loc	4 240 0 is_stmt 1       @ ../Basic/Source/gd32e23x_fmc.c:240:0
	.fnstart
	.cfi_startproc
@ %bb.0:
	@DEBUG_VALUE: fmc_word_program:address <- $r0
	@DEBUG_VALUE: fmc_word_program:data <- $r1
	.save	{r4, r5, r6, r7, lr}
	.pad	#4
	push	{r3, r4, r5, r6, r7, lr}
	.cfi_def_cfa_offset 24
	.cfi_offset lr, -4
	.cfi_offset r7, -8
	.cfi_offset r6, -12
	.cfi_offset r5, -16
	.cfi_offset r4, -20
	mov	r4, r1
.Ltmp59:
	@DEBUG_VALUE: fmc_word_program:data <- $r4
	mov	r5, r0
.Ltmp60:
	@DEBUG_VALUE: fmc_word_program:address <- $r5
	movs	r0, #15
	lsls	r6, r0, #16
.Ltmp61:
	.loc	4 241 32 prologue_end   @ ../Basic/Source/gd32e23x_fmc.c:241:32
	mov	r0, r6
	bl	fmc_ready_wait
.Ltmp62:
	@DEBUG_VALUE: fmc_word_program:fmc_state <- $r0
	.loc	4 243 8                 @ ../Basic/Source/gd32e23x_fmc.c:243:8
	cbz	r0, .LBB9_2
.Ltmp63:
@ %bb.1:
	@DEBUG_VALUE: fmc_word_program:fmc_state <- $r0
	@DEBUG_VALUE: fmc_word_program:address <- $r5
	@DEBUG_VALUE: fmc_word_program:data <- $r4
	@DEBUG_VALUE: fmc_word_program:fmc_state <- $r0
	.loc	4 256 5                 @ ../Basic/Source/gd32e23x_fmc.c:256:5
	pop	{r3, r4, r5, r6, r7, pc}
.Ltmp64:
.LBB9_2:
	@DEBUG_VALUE: fmc_word_program:fmc_state <- $r0
	@DEBUG_VALUE: fmc_word_program:address <- $r5
	@DEBUG_VALUE: fmc_word_program:data <- $r4
	.loc	4 0 5 is_stmt 0         @ ../Basic/Source/gd32e23x_fmc.c:0:5
	ldr	r1, __arm_cp.9_0
.Ltmp65:
	.loc	4 245 17 is_stmt 1      @ ../Basic/Source/gd32e23x_fmc.c:245:17
	ldr	r0, [r1]
.Ltmp66:
	.loc	4 0 17 is_stmt 0        @ ../Basic/Source/gd32e23x_fmc.c:0:17
	movs	r7, #1
	.loc	4 245 17                @ ../Basic/Source/gd32e23x_fmc.c:245:17
	orrs	r0, r7
	str	r0, [r1]
	.loc	4 247 24 is_stmt 1      @ ../Basic/Source/gd32e23x_fmc.c:247:24
	str	r4, [r5]
	.loc	4 249 21                @ ../Basic/Source/gd32e23x_fmc.c:249:21
	mov	r0, r6
	bl	fmc_ready_wait
.Ltmp67:
	@DEBUG_VALUE: fmc_word_program:fmc_state <- undef
	.loc	4 0 21 is_stmt 0        @ ../Basic/Source/gd32e23x_fmc.c:0:21
	ldr	r2, __arm_cp.9_0
	.loc	4 252 17 is_stmt 1      @ ../Basic/Source/gd32e23x_fmc.c:252:17
	ldr	r1, [r2]
	bics	r1, r7
	str	r1, [r2]
.Ltmp68:
	@DEBUG_VALUE: fmc_word_program:fmc_state <- $r0
	.loc	4 256 5                 @ ../Basic/Source/gd32e23x_fmc.c:256:5
	pop	{r3, r4, r5, r6, r7, pc}
.Ltmp69:
	.p2align	2
@ %bb.3:
	.loc	4 0 5 is_stmt 0         @ ../Basic/Source/gd32e23x_fmc.c:0:5
__arm_cp.9_0:
	.long	1073881104              @ 0x40022010
.Lcpi_end10:
	.size	__arm_cp.9_0, .Lcpi_end10-__arm_cp.9_0
.Lfunc_end9:
	.size	fmc_word_program, .Lfunc_end9-fmc_word_program
	.cfi_endproc
	.cantunwind
	.fnend
                                        @ -- End function
	.section	.text.ob_unlock,"ax",%progbits
	.hidden	ob_unlock               @ -- Begin function ob_unlock
	.globl	ob_unlock
	.p2align	2
	.type	ob_unlock,%function
	.code	16                      @ @ob_unlock
	.thumb_func
ob_unlock:
.Lfunc_begin10:
	.loc	4 267 0 is_stmt 1       @ ../Basic/Source/gd32e23x_fmc.c:267:0
	.fnstart
	.cfi_startproc
@ %bb.0:
	ldr	r0, __arm_cp.10_0
.Ltmp70:
	.loc	4 268 18 prologue_end   @ ../Basic/Source/gd32e23x_fmc.c:268:18
	ldr	r1, [r0, #8]
.Ltmp71:
	.loc	4 268 8 is_stmt 0       @ ../Basic/Source/gd32e23x_fmc.c:268:8
	lsls	r1, r1, #22
	bmi	.LBB10_2
@ %bb.1:
	.loc	4 0 8                   @ ../Basic/Source/gd32e23x_fmc.c:0:8
	ldr	r1, __arm_cp.10_1
.Ltmp72:
	.loc	4 270 19 is_stmt 1      @ ../Basic/Source/gd32e23x_fmc.c:270:19
	str	r1, [r0]
	ldr	r1, __arm_cp.10_2
	.loc	4 271 19                @ ../Basic/Source/gd32e23x_fmc.c:271:19
	str	r1, [r0]
.Ltmp73:
.LBB10_2:
	.loc	4 0 19 is_stmt 0        @ ../Basic/Source/gd32e23x_fmc.c:0:19
	movw	r1, #512
.LBB10_3:                               @ =>This Inner Loop Header: Depth=1
	.loc	4 274 21 is_stmt 1      @ ../Basic/Source/gd32e23x_fmc.c:274:21
	ldr	r2, [r0, #8]
	.loc	4 274 5 is_stmt 0       @ ../Basic/Source/gd32e23x_fmc.c:274:5
	tst	r2, r1
	beq	.LBB10_3
@ %bb.4:
	.loc	4 276 1 is_stmt 1       @ ../Basic/Source/gd32e23x_fmc.c:276:1
	bx	lr
.Ltmp74:
	.p2align	2
@ %bb.5:
	.loc	4 0 1 is_stmt 0         @ ../Basic/Source/gd32e23x_fmc.c:0:1
__arm_cp.10_0:
	.long	1073881096              @ 0x40022008
.Lcpi_end11:
	.size	__arm_cp.10_0, .Lcpi_end11-__arm_cp.10_0
__arm_cp.10_1:
	.long	1164378403              @ 0x45670123
.Lcpi_end12:
	.size	__arm_cp.10_1, .Lcpi_end12-__arm_cp.10_1
__arm_cp.10_2:
	.long	3455027627              @ 0xcdef89ab
.Lcpi_end13:
	.size	__arm_cp.10_2, .Lcpi_end13-__arm_cp.10_2
.Lfunc_end10:
	.size	ob_unlock, .Lfunc_end10-ob_unlock
	.cfi_endproc
	.cantunwind
	.fnend
                                        @ -- End function
	.section	.text.ob_lock,"ax",%progbits
	.hidden	ob_lock                 @ -- Begin function ob_lock
	.globl	ob_lock
	.p2align	2
	.type	ob_lock,%function
	.code	16                      @ @ob_lock
	.thumb_func
ob_lock:
.Lfunc_begin11:
	.loc	4 286 0 is_stmt 1       @ ../Basic/Source/gd32e23x_fmc.c:286:0
	.fnstart
	.cfi_startproc
@ %bb.0:
	ldr	r0, __arm_cp.11_0
.Ltmp75:
	.loc	4 288 13 prologue_end   @ ../Basic/Source/gd32e23x_fmc.c:288:13
	ldr	r1, [r0]
	movw	r2, #512
	bics	r1, r2
	str	r1, [r0]
	.loc	4 289 1                 @ ../Basic/Source/gd32e23x_fmc.c:289:1
	bx	lr
.Ltmp76:
	.p2align	2
@ %bb.1:
	.loc	4 0 1 is_stmt 0         @ ../Basic/Source/gd32e23x_fmc.c:0:1
__arm_cp.11_0:
	.long	1073881104              @ 0x40022010
.Lcpi_end14:
	.size	__arm_cp.11_0, .Lcpi_end14-__arm_cp.11_0
.Lfunc_end11:
	.size	ob_lock, .Lfunc_end11-ob_lock
	.cfi_endproc
	.cantunwind
	.fnend
                                        @ -- End function
	.section	.text.ob_reset,"ax",%progbits
	.hidden	ob_reset                @ -- Begin function ob_reset
	.globl	ob_reset
	.p2align	2
	.type	ob_reset,%function
	.code	16                      @ @ob_reset
	.thumb_func
ob_reset:
.Lfunc_begin12:
	.loc	4 298 0 is_stmt 1       @ ../Basic/Source/gd32e23x_fmc.c:298:0
	.fnstart
	.cfi_startproc
@ %bb.0:
	ldr	r0, __arm_cp.12_0
.Ltmp77:
	.loc	4 300 13 prologue_end   @ ../Basic/Source/gd32e23x_fmc.c:300:13
	ldr	r1, [r0]
	movw	r2, #8192
	orrs	r2, r1
	str	r2, [r0]
	.loc	4 301 1                 @ ../Basic/Source/gd32e23x_fmc.c:301:1
	bx	lr
.Ltmp78:
	.p2align	2
@ %bb.1:
	.loc	4 0 1 is_stmt 0         @ ../Basic/Source/gd32e23x_fmc.c:0:1
__arm_cp.12_0:
	.long	1073881104              @ 0x40022010
.Lcpi_end15:
	.size	__arm_cp.12_0, .Lcpi_end15-__arm_cp.12_0
.Lfunc_end12:
	.size	ob_reset, .Lfunc_end12-ob_reset
	.cfi_endproc
	.cantunwind
	.fnend
                                        @ -- End function
	.section	.text.option_byte_value_get,"ax",%progbits
	.hidden	option_byte_value_get   @ -- Begin function option_byte_value_get
	.globl	option_byte_value_get
	.p2align	1
	.type	option_byte_value_get,%function
	.code	16                      @ @option_byte_value_get
	.thumb_func
option_byte_value_get:
.Lfunc_begin13:
	.loc	4 312 0 is_stmt 1       @ ../Basic/Source/gd32e23x_fmc.c:312:0
	.fnstart
	.cfi_startproc
@ %bb.0:
	@DEBUG_VALUE: option_byte_value_get:addr <- $r0
	@DEBUG_VALUE: option_byte_value_get:addr <- $r0
	.loc	4 313 12 prologue_end   @ ../Basic/Source/gd32e23x_fmc.c:313:12
	ldr	r0, [r0]
.Ltmp79:
	.loc	4 313 5 is_stmt 0       @ ../Basic/Source/gd32e23x_fmc.c:313:5
	bx	lr
.Ltmp80:
.Lfunc_end13:
	.size	option_byte_value_get, .Lfunc_end13-option_byte_value_get
	.cfi_endproc
	.cantunwind
	.fnend
                                        @ -- End function
	.section	.text.ob_erase,"ax",%progbits
	.hidden	ob_erase                @ -- Begin function ob_erase
	.globl	ob_erase
	.p2align	2
	.type	ob_erase,%function
	.code	16                      @ @ob_erase
	.thumb_func
ob_erase:
.Lfunc_begin14:
	.loc	4 331 0 is_stmt 1       @ ../Basic/Source/gd32e23x_fmc.c:331:0
	.fnstart
	.cfi_startproc
@ %bb.0:
	.save	{r4, r5, r6, lr}
	push	{r4, r5, r6, lr}
	.cfi_def_cfa_offset 16
	.cfi_offset lr, -4
	.cfi_offset r6, -8
	.cfi_offset r5, -12
	.cfi_offset r4, -16
	ldr	r5, __arm_cp.14_0
.Ltmp81:
	.loc	4 642 13 prologue_end   @ ../Basic/Source/gd32e23x_fmc.c:642:13
	ldr	r6, [r5, #12]
	movs	r0, #15
	lsls	r4, r0, #16
.Ltmp82:
	.loc	4 335 32                @ ../Basic/Source/gd32e23x_fmc.c:335:32
	mov	r0, r4
	bl	fmc_ready_wait
.Ltmp83:
	@DEBUG_VALUE: ob_erase:fmc_state <- undef
	.loc	4 338 8                 @ ../Basic/Source/gd32e23x_fmc.c:338:8
	lsls	r1, r6, #29
	lsrs	r1, r1, #30
.Ltmp84:
	@DEBUG_VALUE: ob_erase:fmc_plevel <- $r1
	beq	.LBB14_2
.Ltmp85:
@ %bb.1:
	@DEBUG_VALUE: ob_erase:fmc_plevel <- $r1
	.loc	4 0 8 is_stmt 0         @ ../Basic/Source/gd32e23x_fmc.c:0:8
	movs	r0, #6
.Ltmp86:
	@DEBUG_VALUE: ob_erase:fmc_state <- $r0
	.loc	4 381 5 is_stmt 1       @ ../Basic/Source/gd32e23x_fmc.c:381:5
	pop	{r4, r5, r6, pc}
.Ltmp87:
.LBB14_2:
	@DEBUG_VALUE: ob_erase:fmc_plevel <- $r1
	@DEBUG_VALUE: ob_erase:fmc_state <- $r0
	@DEBUG_VALUE: ob_erase:fmc_spc <- undef
	@DEBUG_VALUE: ob_erase:val <- -42331
	.loc	4 348 8                 @ ../Basic/Source/gd32e23x_fmc.c:348:8
	cbz	r0, .LBB14_4
.Ltmp88:
.LBB14_3:
	@DEBUG_VALUE: ob_erase:val <- -42331
	@DEBUG_VALUE: ob_erase:fmc_state <- $r0
	@DEBUG_VALUE: ob_erase:fmc_state <- $r0
	.loc	4 381 5                 @ ../Basic/Source/gd32e23x_fmc.c:381:5
	pop	{r4, r5, r6, pc}
.Ltmp89:
.LBB14_4:
	@DEBUG_VALUE: ob_erase:val <- -42331
	@DEBUG_VALUE: ob_erase:fmc_state <- $r0
	@DEBUG_VALUE: ob_erase:fmc_plevel <- $r1
	.loc	4 350 17                @ ../Basic/Source/gd32e23x_fmc.c:350:17
	ldr	r0, [r5]
.Ltmp90:
	.loc	4 0 17 is_stmt 0        @ ../Basic/Source/gd32e23x_fmc.c:0:17
	movs	r6, #32
	.loc	4 350 17                @ ../Basic/Source/gd32e23x_fmc.c:350:17
	orrs	r0, r6
	str	r0, [r5]
	.loc	4 351 17 is_stmt 1      @ ../Basic/Source/gd32e23x_fmc.c:351:17
	ldr	r0, [r5]
	movs	r1, #64
.Ltmp91:
	orrs	r1, r0
	str	r1, [r5]
	.loc	4 354 21                @ ../Basic/Source/gd32e23x_fmc.c:354:21
	mov	r0, r4
	bl	fmc_ready_wait
.Ltmp92:
	@DEBUG_VALUE: ob_erase:fmc_state <- $r0
	.loc	4 356 12                @ ../Basic/Source/gd32e23x_fmc.c:356:12
	cmp	r0, #5
	beq	.LBB14_3
.Ltmp93:
@ %bb.5:
	@DEBUG_VALUE: ob_erase:val <- -42331
	@DEBUG_VALUE: ob_erase:fmc_state <- $r0
	cbnz	r0, .LBB14_8
.Ltmp94:
@ %bb.6:
	@DEBUG_VALUE: ob_erase:val <- -42331
	@DEBUG_VALUE: ob_erase:fmc_state <- $r0
	.loc	4 358 21                @ ../Basic/Source/gd32e23x_fmc.c:358:21
	ldr	r0, [r5]
.Ltmp95:
	bics	r0, r6
	str	r0, [r5]
	.loc	4 361 21                @ ../Basic/Source/gd32e23x_fmc.c:361:21
	ldr	r0, [r5]
	movs	r6, #16
	orrs	r0, r6
	str	r0, [r5]
	ldr	r0, __arm_cp.14_1
	ldr	r1, __arm_cp.14_2
	.loc	4 364 25                @ ../Basic/Source/gd32e23x_fmc.c:364:25
	str	r1, [r0]
	.loc	4 367 25                @ ../Basic/Source/gd32e23x_fmc.c:367:25
	mov	r0, r4
	bl	fmc_ready_wait
.Ltmp96:
	@DEBUG_VALUE: ob_erase:fmc_state <- $r0
	.loc	4 369 16                @ ../Basic/Source/gd32e23x_fmc.c:369:16
	cmp	r0, #5
	bne	.LBB14_9
.Ltmp97:
@ %bb.7:
	@DEBUG_VALUE: ob_erase:val <- -42331
	@DEBUG_VALUE: ob_erase:fmc_state <- $r0
	.loc	4 0 16 is_stmt 0        @ ../Basic/Source/gd32e23x_fmc.c:0:16
	movs	r0, #5
.Ltmp98:
	@DEBUG_VALUE: ob_erase:fmc_state <- $r0
	.loc	4 381 5 is_stmt 1       @ ../Basic/Source/gd32e23x_fmc.c:381:5
	pop	{r4, r5, r6, pc}
.Ltmp99:
.LBB14_8:
	@DEBUG_VALUE: ob_erase:val <- -42331
	@DEBUG_VALUE: ob_erase:fmc_state <- $r0
	.loc	4 376 25                @ ../Basic/Source/gd32e23x_fmc.c:376:25
	ldr	r1, [r5]
	movs	r2, #16
	bics	r1, r2
	b	.LBB14_10
.Ltmp100:
.LBB14_9:
	@DEBUG_VALUE: ob_erase:val <- -42331
	@DEBUG_VALUE: ob_erase:fmc_state <- $r0
	.loc	4 371 25                @ ../Basic/Source/gd32e23x_fmc.c:371:25
	ldr	r1, [r5]
	bics	r1, r6
.Ltmp101:
.LBB14_10:
	@DEBUG_VALUE: ob_erase:val <- -42331
	@DEBUG_VALUE: ob_erase:fmc_state <- $r0
	.loc	4 0 0 is_stmt 0         @ ../Basic/Source/gd32e23x_fmc.c:0:0
	str	r1, [r5]
.Ltmp102:
	@DEBUG_VALUE: ob_erase:fmc_state <- $r0
	.loc	4 381 5 is_stmt 1       @ ../Basic/Source/gd32e23x_fmc.c:381:5
	pop	{r4, r5, r6, pc}
.Ltmp103:
	.p2align	2
@ %bb.11:
	.loc	4 0 5 is_stmt 0         @ ../Basic/Source/gd32e23x_fmc.c:0:5
__arm_cp.14_0:
	.long	1073881104              @ 0x40022010
.Lcpi_end16:
	.size	__arm_cp.14_0, .Lcpi_end16-__arm_cp.14_0
__arm_cp.14_1:
	.long	536868864               @ 0x1ffff800
.Lcpi_end17:
	.size	__arm_cp.14_1, .Lcpi_end17-__arm_cp.14_1
__arm_cp.14_2:
	.long	4294924965              @ 0xffff5aa5
.Lcpi_end18:
	.size	__arm_cp.14_2, .Lcpi_end18-__arm_cp.14_2
.Lfunc_end14:
	.size	ob_erase, .Lfunc_end14-ob_erase
	.cfi_endproc
	.cantunwind
	.fnend
                                        @ -- End function
	.section	.text.ob_obstat_plevel_get,"ax",%progbits
	.hidden	ob_obstat_plevel_get    @ -- Begin function ob_obstat_plevel_get
	.globl	ob_obstat_plevel_get
	.p2align	2
	.type	ob_obstat_plevel_get,%function
	.code	16                      @ @ob_obstat_plevel_get
	.thumb_func
ob_obstat_plevel_get:
.Lfunc_begin15:
	.loc	4 641 0 is_stmt 1       @ ../Basic/Source/gd32e23x_fmc.c:641:0
	.fnstart
	.cfi_startproc
@ %bb.0:
	ldr	r0, __arm_cp.15_0
.Ltmp104:
	.loc	4 642 13 prologue_end   @ ../Basic/Source/gd32e23x_fmc.c:642:13
	ldr	r1, [r0]
	movs	r0, #6
	.loc	4 642 24 is_stmt 0      @ ../Basic/Source/gd32e23x_fmc.c:642:24
	ands	r0, r1
	.loc	4 642 5                 @ ../Basic/Source/gd32e23x_fmc.c:642:5
	bx	lr
.Ltmp105:
	.p2align	2
@ %bb.1:
	.loc	4 0 5                   @ ../Basic/Source/gd32e23x_fmc.c:0:5
__arm_cp.15_0:
	.long	1073881116              @ 0x4002201c
.Lcpi_end19:
	.size	__arm_cp.15_0, .Lcpi_end19-__arm_cp.15_0
.Lfunc_end15:
	.size	ob_obstat_plevel_get, .Lfunc_end15-ob_obstat_plevel_get
	.cfi_endproc
	.cantunwind
	.fnend
                                        @ -- End function
	.section	.text.ob_write_protection_enable,"ax",%progbits
	.hidden	ob_write_protection_enable @ -- Begin function ob_write_protection_enable
	.globl	ob_write_protection_enable
	.p2align	2
	.type	ob_write_protection_enable,%function
	.code	16                      @ @ob_write_protection_enable
	.thumb_func
ob_write_protection_enable:
.Lfunc_begin16:
	.loc	4 399 0 is_stmt 1       @ ../Basic/Source/gd32e23x_fmc.c:399:0
	.fnstart
	.cfi_startproc
@ %bb.0:
	@DEBUG_VALUE: ob_write_protection_enable:ob_wp <- $r0
	.save	{r4, r5, r6, r7, lr}
	.pad	#4
	push	{r3, r4, r5, r6, r7, lr}
	.cfi_def_cfa_offset 24
	.cfi_offset lr, -4
	.cfi_offset r7, -8
	.cfi_offset r6, -12
	.cfi_offset r5, -16
	.cfi_offset r4, -20
	mov	r5, r0
.Ltmp106:
	@DEBUG_VALUE: ob_write_protection_enable:ob_wrp_val <- [DW_OP_constu 255, DW_OP_and, DW_OP_stack_value] undef
	@DEBUG_VALUE: ob_write_protection_enable:ob_wrp_val <- 0
	@DEBUG_VALUE: ob_write_protection_enable:ob_wp <- undef
	movs	r0, #15
	lsls	r4, r0, #16
.Ltmp107:
	.loc	4 402 32 prologue_end   @ ../Basic/Source/gd32e23x_fmc.c:402:32
	mov	r0, r4
	bl	fmc_ready_wait
.Ltmp108:
	@DEBUG_VALUE: ob_write_protection_enable:fmc_state <- $r0
	@DEBUG_VALUE: ob_write_protection_enable:ob_wrp_val <- undef
	.loc	4 408 8                 @ ../Basic/Source/gd32e23x_fmc.c:408:8
	cbz	r0, .LBB16_2
.Ltmp109:
@ %bb.1:
	@DEBUG_VALUE: ob_write_protection_enable:fmc_state <- $r0
	@DEBUG_VALUE: ob_write_protection_enable:ob_wrp_val <- 0
	@DEBUG_VALUE: ob_write_protection_enable:fmc_state <- $r0
	.loc	4 424 5                 @ ../Basic/Source/gd32e23x_fmc.c:424:5
	pop	{r3, r4, r5, r6, r7, pc}
.Ltmp110:
.LBB16_2:
	@DEBUG_VALUE: ob_write_protection_enable:fmc_state <- $r0
	@DEBUG_VALUE: ob_write_protection_enable:ob_wrp_val <- 0
	.loc	4 0 5 is_stmt 0         @ ../Basic/Source/gd32e23x_fmc.c:0:5
	ldr	r0, __arm_cp.16_0
.Ltmp111:
	eors	r5, r0
.Ltmp112:
	@DEBUG_VALUE: ob_write_protection_enable:ob_wrp_val <- undef
	ldr	r6, __arm_cp.16_1
.Ltmp113:
	.loc	4 410 17 is_stmt 1      @ ../Basic/Source/gd32e23x_fmc.c:410:17
	ldr	r0, [r6]
	movs	r7, #16
	orrs	r0, r7
	str	r0, [r6]
.Ltmp114:
	.loc	4 406 51                @ ../Basic/Source/gd32e23x_fmc.c:406:51
	lsls	r0, r5, #8
	.loc	4 406 45 is_stmt 0      @ ../Basic/Source/gd32e23x_fmc.c:406:45
	orrs	r0, r5
	ldr	r1, __arm_cp.16_2
	.loc	4 406 16                @ ../Basic/Source/gd32e23x_fmc.c:406:16
	ands	r1, r0
.Ltmp115:
	@DEBUG_VALUE: ob_write_protection_enable:ob_wrp_val <- $r1
	.loc	4 0 16                  @ ../Basic/Source/gd32e23x_fmc.c:0:16
	ldr	r0, __arm_cp.16_3
.Ltmp116:
	.loc	4 413 19 is_stmt 1      @ ../Basic/Source/gd32e23x_fmc.c:413:19
	str	r1, [r0]
	.loc	4 416 25                @ ../Basic/Source/gd32e23x_fmc.c:416:25
	mov	r0, r4
	bl	fmc_ready_wait
.Ltmp117:
	@DEBUG_VALUE: ob_write_protection_enable:fmc_state <- $r0
	.loc	4 418 12                @ ../Basic/Source/gd32e23x_fmc.c:418:12
	cmp	r0, #5
	bne	.LBB16_4
.Ltmp118:
@ %bb.3:
	@DEBUG_VALUE: ob_write_protection_enable:fmc_state <- $r0
	.loc	4 0 12 is_stmt 0        @ ../Basic/Source/gd32e23x_fmc.c:0:12
	movs	r0, #5
.Ltmp119:
	@DEBUG_VALUE: ob_write_protection_enable:fmc_state <- $r0
	.loc	4 424 5 is_stmt 1       @ ../Basic/Source/gd32e23x_fmc.c:424:5
	pop	{r3, r4, r5, r6, r7, pc}
.Ltmp120:
.LBB16_4:
	@DEBUG_VALUE: ob_write_protection_enable:fmc_state <- $r0
	.loc	4 420 21                @ ../Basic/Source/gd32e23x_fmc.c:420:21
	ldr	r1, [r6]
	bics	r1, r7
	str	r1, [r6]
.Ltmp121:
	@DEBUG_VALUE: ob_write_protection_enable:fmc_state <- $r0
	.loc	4 424 5                 @ ../Basic/Source/gd32e23x_fmc.c:424:5
	pop	{r3, r4, r5, r6, r7, pc}
.Ltmp122:
	.p2align	2
@ %bb.5:
	.loc	4 0 5 is_stmt 0         @ ../Basic/Source/gd32e23x_fmc.c:0:5
__arm_cp.16_0:
	.long	65535                   @ 0xffff
.Lcpi_end20:
	.size	__arm_cp.16_0, .Lcpi_end20-__arm_cp.16_0
__arm_cp.16_1:
	.long	1073881104              @ 0x40022010
.Lcpi_end21:
	.size	__arm_cp.16_1, .Lcpi_end21-__arm_cp.16_1
__arm_cp.16_2:
	.long	16711935                @ 0xff00ff
.Lcpi_end22:
	.size	__arm_cp.16_2, .Lcpi_end22-__arm_cp.16_2
__arm_cp.16_3:
	.long	536868872               @ 0x1ffff808
.Lcpi_end23:
	.size	__arm_cp.16_3, .Lcpi_end23-__arm_cp.16_3
.Lfunc_end16:
	.size	ob_write_protection_enable, .Lfunc_end16-ob_write_protection_enable
	.cfi_endproc
	.cantunwind
	.fnend
                                        @ -- End function
	.section	.text.ob_security_protection_config,"ax",%progbits
	.hidden	ob_security_protection_config @ -- Begin function ob_security_protection_config
	.globl	ob_security_protection_config
	.p2align	2
	.type	ob_security_protection_config,%function
	.code	16                      @ @ob_security_protection_config
	.thumb_func
ob_security_protection_config:
.Lfunc_begin17:
	.loc	4 444 0 is_stmt 1       @ ../Basic/Source/gd32e23x_fmc.c:444:0
	.fnstart
	.cfi_startproc
@ %bb.0:
	@DEBUG_VALUE: ob_security_protection_config:ob_spc <- $r0
	.save	{r4, r5, r6, r7, lr}
	.pad	#4
	push	{r3, r4, r5, r6, r7, lr}
	.cfi_def_cfa_offset 24
	.cfi_offset lr, -4
	.cfi_offset r7, -8
	.cfi_offset r6, -12
	.cfi_offset r5, -16
	.cfi_offset r4, -20
	mov	r5, r0
.Ltmp123:
	@DEBUG_VALUE: ob_security_protection_config:ob_spc <- $r5
	movs	r0, #15
	lsls	r4, r0, #16
.Ltmp124:
	.loc	4 446 32 prologue_end   @ ../Basic/Source/gd32e23x_fmc.c:446:32
	mov	r0, r4
	bl	fmc_ready_wait
.Ltmp125:
	@DEBUG_VALUE: ob_security_protection_config:fmc_state <- $r0
	.loc	4 0 32 is_stmt 0        @ ../Basic/Source/gd32e23x_fmc.c:0:32
	ldr	r1, __arm_cp.17_0
.Ltmp126:
	@DEBUG_VALUE: option_byte_value_get:addr <- 536868864
	.loc	4 313 12 is_stmt 1      @ ../Basic/Source/gd32e23x_fmc.c:313:12
	ldr	r7, [r1]
.Ltmp127:
	@DEBUG_VALUE: ob_security_protection_config:val <- $r7
	.loc	4 0 12 is_stmt 0        @ ../Basic/Source/gd32e23x_fmc.c:0:12
	ldr	r6, __arm_cp.17_1
.Ltmp128:
	.loc	4 642 13 is_stmt 1      @ ../Basic/Source/gd32e23x_fmc.c:642:13
	ldr	r1, [r6, #12]
.Ltmp129:
	@DEBUG_VALUE: ob_security_protection_config:val <- undef
	.loc	4 457 8                 @ ../Basic/Source/gd32e23x_fmc.c:457:8
	cbz	r0, .LBB17_2
.Ltmp130:
.LBB17_1:
	@DEBUG_VALUE: ob_security_protection_config:val <- $r7
	@DEBUG_VALUE: ob_security_protection_config:fmc_state <- $r0
	@DEBUG_VALUE: ob_security_protection_config:fmc_state <- $r0
	.loc	4 490 5                 @ ../Basic/Source/gd32e23x_fmc.c:490:5
	pop	{r3, r4, r5, r6, r7, pc}
.Ltmp131:
.LBB17_2:
	@DEBUG_VALUE: ob_security_protection_config:val <- $r7
	@DEBUG_VALUE: ob_security_protection_config:fmc_state <- $r0
	@DEBUG_VALUE: ob_security_protection_config:ob_spc <- $r5
	@DEBUG_VALUE: ob_security_protection_config:val <- undef
	.loc	4 0 5 is_stmt 0         @ ../Basic/Source/gd32e23x_fmc.c:0:5
	str	r5, [sp]                @ 4-byte Spill
.Ltmp132:
	@DEBUG_VALUE: ob_security_protection_config:ob_spc <- [$sp+0]
	.loc	4 459 17 is_stmt 1      @ ../Basic/Source/gd32e23x_fmc.c:459:17
	ldr	r0, [r6]
.Ltmp133:
	.loc	4 0 17 is_stmt 0        @ ../Basic/Source/gd32e23x_fmc.c:0:17
	movs	r5, #32
	.loc	4 459 17                @ ../Basic/Source/gd32e23x_fmc.c:459:17
	orrs	r0, r5
	str	r0, [r6]
	.loc	4 460 17 is_stmt 1      @ ../Basic/Source/gd32e23x_fmc.c:460:17
	ldr	r0, [r6]
	movs	r1, #64
	orrs	r1, r0
	str	r1, [r6]
	.loc	4 463 21                @ ../Basic/Source/gd32e23x_fmc.c:463:21
	mov	r0, r4
	bl	fmc_ready_wait
.Ltmp134:
	@DEBUG_VALUE: ob_security_protection_config:fmc_state <- $r0
	.loc	4 465 12                @ ../Basic/Source/gd32e23x_fmc.c:465:12
	cmp	r0, #5
	beq	.LBB17_1
.Ltmp135:
@ %bb.3:
	@DEBUG_VALUE: ob_security_protection_config:ob_spc <- [$sp+0]
	@DEBUG_VALUE: ob_security_protection_config:val <- $r7
	@DEBUG_VALUE: ob_security_protection_config:fmc_state <- $r0
	@DEBUG_VALUE: ob_security_protection_config:val <- undef
	cbnz	r0, .LBB17_6
.Ltmp136:
@ %bb.4:
	@DEBUG_VALUE: ob_security_protection_config:ob_spc <- [$sp+0]
	@DEBUG_VALUE: ob_security_protection_config:val <- $r7
	@DEBUG_VALUE: ob_security_protection_config:fmc_state <- $r0
	.loc	4 0 12 is_stmt 0        @ ../Basic/Source/gd32e23x_fmc.c:0:12
	ldr	r0, __arm_cp.17_2
.Ltmp137:
	ands	r7, r0
.Ltmp138:
	ldr	r0, [sp]                @ 4-byte Reload
.Ltmp139:
	@DEBUG_VALUE: ob_security_protection_config:ob_spc <- $r0
	adds	r0, r7, r0
.Ltmp140:
	@DEBUG_VALUE: ob_security_protection_config:val <- $r0
	.loc	4 468 21 is_stmt 1      @ ../Basic/Source/gd32e23x_fmc.c:468:21
	ldr	r1, [r6]
	bics	r1, r5
	str	r1, [r6]
	.loc	4 471 21                @ ../Basic/Source/gd32e23x_fmc.c:471:21
	ldr	r1, [r6]
	movs	r5, #16
	orrs	r1, r5
	str	r1, [r6]
	.loc	4 473 25                @ ../Basic/Source/gd32e23x_fmc.c:473:25
	ldr	r1, __arm_cp.17_0
	str	r0, [r1]
	.loc	4 476 25                @ ../Basic/Source/gd32e23x_fmc.c:476:25
	mov	r0, r4
.Ltmp141:
	bl	fmc_ready_wait
.Ltmp142:
	@DEBUG_VALUE: ob_security_protection_config:fmc_state <- $r0
	.loc	4 478 16                @ ../Basic/Source/gd32e23x_fmc.c:478:16
	cmp	r0, #5
	bne	.LBB17_6
.Ltmp143:
@ %bb.5:
	@DEBUG_VALUE: ob_security_protection_config:fmc_state <- $r0
	.loc	4 0 16 is_stmt 0        @ ../Basic/Source/gd32e23x_fmc.c:0:16
	movs	r0, #5
.Ltmp144:
	@DEBUG_VALUE: ob_security_protection_config:fmc_state <- $r0
	.loc	4 490 5 is_stmt 1       @ ../Basic/Source/gd32e23x_fmc.c:490:5
	pop	{r3, r4, r5, r6, r7, pc}
.Ltmp145:
.LBB17_6:
	@DEBUG_VALUE: ob_security_protection_config:fmc_state <- $r0
	.loc	4 0 0 is_stmt 0         @ ../Basic/Source/gd32e23x_fmc.c:0:0
	ldr	r1, [r6]
	bics	r1, r5
	str	r1, [r6]
.Ltmp146:
	@DEBUG_VALUE: ob_security_protection_config:fmc_state <- $r0
	.loc	4 490 5                 @ ../Basic/Source/gd32e23x_fmc.c:490:5
	pop	{r3, r4, r5, r6, r7, pc}
.Ltmp147:
	.p2align	2
@ %bb.7:
	.loc	4 0 5                   @ ../Basic/Source/gd32e23x_fmc.c:0:5
__arm_cp.17_0:
	.long	536868864               @ 0x1ffff800
.Lcpi_end24:
	.size	__arm_cp.17_0, .Lcpi_end24-__arm_cp.17_0
__arm_cp.17_1:
	.long	1073881104              @ 0x40022010
.Lcpi_end25:
	.size	__arm_cp.17_1, .Lcpi_end25-__arm_cp.17_1
__arm_cp.17_2:
	.long	4294901760              @ 0xffff0000
.Lcpi_end26:
	.size	__arm_cp.17_2, .Lcpi_end26-__arm_cp.17_2
.Lfunc_end17:
	.size	ob_security_protection_config, .Lfunc_end17-ob_security_protection_config
	.cfi_endproc
	.cantunwind
	.fnend
                                        @ -- End function
	.section	.text.ob_user_write,"ax",%progbits
	.hidden	ob_user_write           @ -- Begin function ob_user_write
	.globl	ob_user_write
	.p2align	2
	.type	ob_user_write,%function
	.code	16                      @ @ob_user_write
	.thumb_func
ob_user_write:
.Lfunc_begin18:
	.loc	4 516 0 is_stmt 1       @ ../Basic/Source/gd32e23x_fmc.c:516:0
	.fnstart
	.cfi_startproc
@ %bb.0:
	@DEBUG_VALUE: ob_user_write:ob_user <- $r0
	.save	{r4, r5, r6, r7, lr}
	.pad	#4
	push	{r3, r4, r5, r6, r7, lr}
	.cfi_def_cfa_offset 24
	.cfi_offset lr, -4
	.cfi_offset r7, -8
	.cfi_offset r6, -12
	.cfi_offset r5, -16
	.cfi_offset r4, -20
	mov	r5, r0
.Ltmp148:
	@DEBUG_VALUE: ob_user_write:ob_user <- $r5
	movs	r0, #15
	lsls	r4, r0, #16
.Ltmp149:
	.loc	4 519 32 prologue_end   @ ../Basic/Source/gd32e23x_fmc.c:519:32
	mov	r0, r4
	bl	fmc_ready_wait
.Ltmp150:
	@DEBUG_VALUE: ob_user_write:fmc_state <- $r0
	.loc	4 0 32 is_stmt 0        @ ../Basic/Source/gd32e23x_fmc.c:0:32
	ldr	r1, __arm_cp.18_0
.Ltmp151:
	@DEBUG_VALUE: option_byte_value_get:addr <- 536868864
	.loc	4 313 12 is_stmt 1      @ ../Basic/Source/gd32e23x_fmc.c:313:12
	ldr	r7, [r1]
.Ltmp152:
	@DEBUG_VALUE: ob_user_write:val_spc_user <- undef
	.loc	4 527 8                 @ ../Basic/Source/gd32e23x_fmc.c:527:8
	cbz	r0, .LBB18_2
.Ltmp153:
.LBB18_1:
	@DEBUG_VALUE: ob_user_write:fmc_state <- $r0
	@DEBUG_VALUE: ob_user_write:ob_user <- $r5
	@DEBUG_VALUE: ob_user_write:fmc_state <- $r0
	.loc	4 560 5                 @ ../Basic/Source/gd32e23x_fmc.c:560:5
	pop	{r3, r4, r5, r6, r7, pc}
.Ltmp154:
.LBB18_2:
	@DEBUG_VALUE: ob_user_write:fmc_state <- $r0
	@DEBUG_VALUE: ob_user_write:ob_user <- $r5
	@DEBUG_VALUE: ob_user_write:val_spc_user <- undef
	.loc	4 0 5 is_stmt 0         @ ../Basic/Source/gd32e23x_fmc.c:0:5
	ldr	r2, __arm_cp.18_1
.Ltmp155:
	.loc	4 529 17 is_stmt 1      @ ../Basic/Source/gd32e23x_fmc.c:529:17
	ldr	r0, [r2]
.Ltmp156:
	.loc	4 0 17 is_stmt 0        @ ../Basic/Source/gd32e23x_fmc.c:0:17
	movs	r6, #32
	.loc	4 529 17                @ ../Basic/Source/gd32e23x_fmc.c:529:17
	orrs	r0, r6
	str	r0, [r2]
	.loc	4 530 17 is_stmt 1      @ ../Basic/Source/gd32e23x_fmc.c:530:17
	ldr	r0, [r2]
	movs	r1, #64
	orrs	r1, r0
	str	r1, [r2]
	.loc	4 533 21                @ ../Basic/Source/gd32e23x_fmc.c:533:21
	mov	r0, r4
	bl	fmc_ready_wait
.Ltmp157:
	@DEBUG_VALUE: ob_user_write:fmc_state <- $r0
	.loc	4 535 12                @ ../Basic/Source/gd32e23x_fmc.c:535:12
	cmp	r0, #5
	beq	.LBB18_1
.Ltmp158:
@ %bb.3:
	@DEBUG_VALUE: ob_user_write:fmc_state <- $r0
	@DEBUG_VALUE: ob_user_write:ob_user <- $r5
	@DEBUG_VALUE: ob_user_write:val_spc_user <- undef
	cbnz	r0, .LBB18_6
.Ltmp159:
@ %bb.4:
	@DEBUG_VALUE: ob_user_write:fmc_state <- $r0
	@DEBUG_VALUE: ob_user_write:ob_user <- $r5
	.loc	4 0 12 is_stmt 0        @ ../Basic/Source/gd32e23x_fmc.c:0:12
	lsls	r0, r5, #16
.Ltmp160:
	uxth	r1, r7
	adds	r0, r1, r0
.Ltmp161:
	@DEBUG_VALUE: ob_user_write:val_spc_user <- $r0
	ldr	r7, __arm_cp.18_1
.Ltmp162:
	.loc	4 538 21 is_stmt 1      @ ../Basic/Source/gd32e23x_fmc.c:538:21
	ldr	r1, [r7]
	bics	r1, r6
	str	r1, [r7]
	.loc	4 541 21                @ ../Basic/Source/gd32e23x_fmc.c:541:21
	ldr	r1, [r7]
	movs	r5, #16
.Ltmp163:
	orrs	r1, r5
	str	r1, [r7]
	.loc	4 543 25                @ ../Basic/Source/gd32e23x_fmc.c:543:25
	ldr	r1, __arm_cp.18_0
	str	r0, [r1]
	.loc	4 546 25                @ ../Basic/Source/gd32e23x_fmc.c:546:25
	mov	r0, r4
.Ltmp164:
	bl	fmc_ready_wait
.Ltmp165:
	@DEBUG_VALUE: ob_user_write:fmc_state <- $r0
	.loc	4 548 16                @ ../Basic/Source/gd32e23x_fmc.c:548:16
	cmp	r0, #5
	bne	.LBB18_7
.Ltmp166:
@ %bb.5:
	@DEBUG_VALUE: ob_user_write:fmc_state <- $r0
	.loc	4 0 16 is_stmt 0        @ ../Basic/Source/gd32e23x_fmc.c:0:16
	movs	r0, #5
.Ltmp167:
	@DEBUG_VALUE: ob_user_write:fmc_state <- $r0
	.loc	4 560 5 is_stmt 1       @ ../Basic/Source/gd32e23x_fmc.c:560:5
	pop	{r3, r4, r5, r6, r7, pc}
.Ltmp168:
.LBB18_6:
	@DEBUG_VALUE: ob_user_write:fmc_state <- $r0
	@DEBUG_VALUE: ob_user_write:ob_user <- $r5
	.loc	4 0 5 is_stmt 0         @ ../Basic/Source/gd32e23x_fmc.c:0:5
	ldr	r2, __arm_cp.18_1
.Ltmp169:
	.loc	4 555 25 is_stmt 1      @ ../Basic/Source/gd32e23x_fmc.c:555:25
	ldr	r1, [r2]
	bics	r1, r6
	str	r1, [r2]
.Ltmp170:
	@DEBUG_VALUE: ob_user_write:fmc_state <- $r0
	.loc	4 560 5                 @ ../Basic/Source/gd32e23x_fmc.c:560:5
	pop	{r3, r4, r5, r6, r7, pc}
.Ltmp171:
.LBB18_7:
	@DEBUG_VALUE: ob_user_write:fmc_state <- $r0
	.loc	4 550 25                @ ../Basic/Source/gd32e23x_fmc.c:550:25
	ldr	r1, [r7]
	bics	r1, r5
	str	r1, [r7]
.Ltmp172:
	@DEBUG_VALUE: ob_user_write:fmc_state <- $r0
	.loc	4 560 5                 @ ../Basic/Source/gd32e23x_fmc.c:560:5
	pop	{r3, r4, r5, r6, r7, pc}
.Ltmp173:
	.p2align	2
@ %bb.8:
	.loc	4 0 5 is_stmt 0         @ ../Basic/Source/gd32e23x_fmc.c:0:5
__arm_cp.18_0:
	.long	536868864               @ 0x1ffff800
.Lcpi_end27:
	.size	__arm_cp.18_0, .Lcpi_end27-__arm_cp.18_0
__arm_cp.18_1:
	.long	1073881104              @ 0x40022010
.Lcpi_end28:
	.size	__arm_cp.18_1, .Lcpi_end28-__arm_cp.18_1
.Lfunc_end18:
	.size	ob_user_write, .Lfunc_end18-ob_user_write
	.cfi_endproc
	.cantunwind
	.fnend
                                        @ -- End function
	.section	.text.ob_data_program,"ax",%progbits
	.hidden	ob_data_program         @ -- Begin function ob_data_program
	.globl	ob_data_program
	.p2align	2
	.type	ob_data_program,%function
	.code	16                      @ @ob_data_program
	.thumb_func
ob_data_program:
.Lfunc_begin19:
	.loc	4 577 0 is_stmt 1       @ ../Basic/Source/gd32e23x_fmc.c:577:0
	.fnstart
	.cfi_startproc
@ %bb.0:
	@DEBUG_VALUE: ob_data_program:data <- $r0
	.save	{r4, r5, r6, r7, lr}
	.pad	#4
	push	{r3, r4, r5, r6, r7, lr}
	.cfi_def_cfa_offset 24
	.cfi_offset lr, -4
	.cfi_offset r7, -8
	.cfi_offset r6, -12
	.cfi_offset r5, -16
	.cfi_offset r4, -20
	mov	r5, r0
.Ltmp174:
	@DEBUG_VALUE: ob_data_program:data <- $r5
	movs	r0, #15
	lsls	r4, r0, #16
.Ltmp175:
	.loc	4 578 32 prologue_end   @ ../Basic/Source/gd32e23x_fmc.c:578:32
	mov	r0, r4
	bl	fmc_ready_wait
.Ltmp176:
	@DEBUG_VALUE: ob_data_program:val <- [DW_OP_constu 255, DW_OP_and, DW_OP_stack_value] $r5
	@DEBUG_VALUE: ob_data_program:val <- undef
	@DEBUG_VALUE: ob_data_program:fmc_state <- $r0
	.loc	4 584 8                 @ ../Basic/Source/gd32e23x_fmc.c:584:8
	cbz	r0, .LBB19_2
.Ltmp177:
@ %bb.1:
	@DEBUG_VALUE: ob_data_program:fmc_state <- $r0
	@DEBUG_VALUE: ob_data_program:val <- [DW_OP_constu 255, DW_OP_and, DW_OP_stack_value] $r5
	@DEBUG_VALUE: ob_data_program:data <- $r5
	@DEBUG_VALUE: ob_data_program:fmc_state <- $r0
	.loc	4 598 5                 @ ../Basic/Source/gd32e23x_fmc.c:598:5
	pop	{r3, r4, r5, r6, r7, pc}
.Ltmp178:
.LBB19_2:
	@DEBUG_VALUE: ob_data_program:fmc_state <- $r0
	@DEBUG_VALUE: ob_data_program:val <- [DW_OP_constu 255, DW_OP_and, DW_OP_stack_value] $r5
	@DEBUG_VALUE: ob_data_program:data <- $r5
	@DEBUG_VALUE: ob_data_program:val <- undef
	.loc	4 0 5 is_stmt 0         @ ../Basic/Source/gd32e23x_fmc.c:0:5
	ldr	r6, __arm_cp.19_0
.Ltmp179:
	.loc	4 586 17 is_stmt 1      @ ../Basic/Source/gd32e23x_fmc.c:586:17
	ldr	r0, [r6]
.Ltmp180:
	.loc	4 0 17 is_stmt 0        @ ../Basic/Source/gd32e23x_fmc.c:0:17
	movs	r7, #16
	.loc	4 586 17                @ ../Basic/Source/gd32e23x_fmc.c:586:17
	orrs	r0, r7
	str	r0, [r6]
.Ltmp181:
	.loc	4 582 43 is_stmt 1      @ ../Basic/Source/gd32e23x_fmc.c:582:43
	lsls	r0, r5, #8
	.loc	4 582 37 is_stmt 0      @ ../Basic/Source/gd32e23x_fmc.c:582:37
	orrs	r0, r5
	ldr	r1, __arm_cp.19_1
	.loc	4 582 9                 @ ../Basic/Source/gd32e23x_fmc.c:582:9
	ands	r1, r0
.Ltmp182:
	@DEBUG_VALUE: ob_data_program:val <- $r1
	.loc	4 0 9                   @ ../Basic/Source/gd32e23x_fmc.c:0:9
	ldr	r0, __arm_cp.19_2
.Ltmp183:
	.loc	4 587 17 is_stmt 1      @ ../Basic/Source/gd32e23x_fmc.c:587:17
	str	r1, [r0]
	.loc	4 590 21                @ ../Basic/Source/gd32e23x_fmc.c:590:21
	mov	r0, r4
	bl	fmc_ready_wait
.Ltmp184:
	@DEBUG_VALUE: ob_data_program:fmc_state <- $r0
	.loc	4 592 12                @ ../Basic/Source/gd32e23x_fmc.c:592:12
	cmp	r0, #5
	bne	.LBB19_4
.Ltmp185:
@ %bb.3:
	@DEBUG_VALUE: ob_data_program:fmc_state <- $r0
	@DEBUG_VALUE: ob_data_program:data <- $r5
	.loc	4 0 12 is_stmt 0        @ ../Basic/Source/gd32e23x_fmc.c:0:12
	movs	r0, #5
.Ltmp186:
	@DEBUG_VALUE: ob_data_program:fmc_state <- $r0
	.loc	4 598 5 is_stmt 1       @ ../Basic/Source/gd32e23x_fmc.c:598:5
	pop	{r3, r4, r5, r6, r7, pc}
.Ltmp187:
.LBB19_4:
	@DEBUG_VALUE: ob_data_program:fmc_state <- $r0
	@DEBUG_VALUE: ob_data_program:data <- $r5
	.loc	4 594 21                @ ../Basic/Source/gd32e23x_fmc.c:594:21
	ldr	r1, [r6]
	bics	r1, r7
	str	r1, [r6]
.Ltmp188:
	@DEBUG_VALUE: ob_data_program:fmc_state <- $r0
	.loc	4 598 5                 @ ../Basic/Source/gd32e23x_fmc.c:598:5
	pop	{r3, r4, r5, r6, r7, pc}
.Ltmp189:
	.p2align	2
@ %bb.5:
	.loc	4 0 5 is_stmt 0         @ ../Basic/Source/gd32e23x_fmc.c:0:5
__arm_cp.19_0:
	.long	1073881104              @ 0x40022010
.Lcpi_end29:
	.size	__arm_cp.19_0, .Lcpi_end29-__arm_cp.19_0
__arm_cp.19_1:
	.long	16711935                @ 0xff00ff
.Lcpi_end30:
	.size	__arm_cp.19_1, .Lcpi_end30-__arm_cp.19_1
__arm_cp.19_2:
	.long	536868868               @ 0x1ffff804
.Lcpi_end31:
	.size	__arm_cp.19_2, .Lcpi_end31-__arm_cp.19_2
.Lfunc_end19:
	.size	ob_data_program, .Lfunc_end19-ob_data_program
	.cfi_endproc
	.cantunwind
	.fnend
                                        @ -- End function
	.section	.text.ob_user_get,"ax",%progbits
	.hidden	ob_user_get             @ -- Begin function ob_user_get
	.globl	ob_user_get
	.p2align	2
	.type	ob_user_get,%function
	.code	16                      @ @ob_user_get
	.thumb_func
ob_user_get:
.Lfunc_begin20:
	.loc	4 608 0 is_stmt 1       @ ../Basic/Source/gd32e23x_fmc.c:608:0
	.fnstart
	.cfi_startproc
@ %bb.0:
	ldr	r0, __arm_cp.20_0
.Ltmp190:
	.loc	4 609 22 prologue_end   @ ../Basic/Source/gd32e23x_fmc.c:609:22
	ldr	r0, [r0]
	.loc	4 609 33 is_stmt 0      @ ../Basic/Source/gd32e23x_fmc.c:609:33
	lsrs	r0, r0, #8
	.loc	4 609 5                 @ ../Basic/Source/gd32e23x_fmc.c:609:5
	uxtb	r0, r0
	bx	lr
.Ltmp191:
	.p2align	2
@ %bb.1:
	.loc	4 0 5                   @ ../Basic/Source/gd32e23x_fmc.c:0:5
__arm_cp.20_0:
	.long	1073881116              @ 0x4002201c
.Lcpi_end32:
	.size	__arm_cp.20_0, .Lcpi_end32-__arm_cp.20_0
.Lfunc_end20:
	.size	ob_user_get, .Lfunc_end20-ob_user_get
	.cfi_endproc
	.cantunwind
	.fnend
                                        @ -- End function
	.section	.text.ob_data_get,"ax",%progbits
	.hidden	ob_data_get             @ -- Begin function ob_data_get
	.globl	ob_data_get
	.p2align	2
	.type	ob_data_get,%function
	.code	16                      @ @ob_data_get
	.thumb_func
ob_data_get:
.Lfunc_begin21:
	.loc	4 619 0 is_stmt 1       @ ../Basic/Source/gd32e23x_fmc.c:619:0
	.fnstart
	.cfi_startproc
@ %bb.0:
	ldr	r0, __arm_cp.21_0
.Ltmp192:
	.loc	4 620 23 prologue_end   @ ../Basic/Source/gd32e23x_fmc.c:620:23
	ldr	r0, [r0]
	.loc	4 620 34 is_stmt 0      @ ../Basic/Source/gd32e23x_fmc.c:620:34
	lsrs	r0, r0, #16
	.loc	4 620 5                 @ ../Basic/Source/gd32e23x_fmc.c:620:5
	bx	lr
.Ltmp193:
	.p2align	2
@ %bb.1:
	.loc	4 0 5                   @ ../Basic/Source/gd32e23x_fmc.c:0:5
__arm_cp.21_0:
	.long	1073881116              @ 0x4002201c
.Lcpi_end33:
	.size	__arm_cp.21_0, .Lcpi_end33-__arm_cp.21_0
.Lfunc_end21:
	.size	ob_data_get, .Lfunc_end21-ob_data_get
	.cfi_endproc
	.cantunwind
	.fnend
                                        @ -- End function
	.section	.text.ob_write_protection_get,"ax",%progbits
	.hidden	ob_write_protection_get @ -- Begin function ob_write_protection_get
	.globl	ob_write_protection_get
	.p2align	2
	.type	ob_write_protection_get,%function
	.code	16                      @ @ob_write_protection_get
	.thumb_func
ob_write_protection_get:
.Lfunc_begin22:
	.loc	4 630 0 is_stmt 1       @ ../Basic/Source/gd32e23x_fmc.c:630:0
	.fnstart
	.cfi_startproc
@ %bb.0:
	ldr	r0, __arm_cp.22_0
.Ltmp194:
	.loc	4 631 23 prologue_end   @ ../Basic/Source/gd32e23x_fmc.c:631:23
	ldr	r0, [r0]
	.loc	4 631 5 is_stmt 0       @ ../Basic/Source/gd32e23x_fmc.c:631:5
	uxth	r0, r0
	bx	lr
.Ltmp195:
	.p2align	2
@ %bb.1:
	.loc	4 0 5                   @ ../Basic/Source/gd32e23x_fmc.c:0:5
__arm_cp.22_0:
	.long	1073881120              @ 0x40022020
.Lcpi_end34:
	.size	__arm_cp.22_0, .Lcpi_end34-__arm_cp.22_0
.Lfunc_end22:
	.size	ob_write_protection_get, .Lfunc_end22-ob_write_protection_get
	.cfi_endproc
	.cantunwind
	.fnend
                                        @ -- End function
	.section	.text.fmc_interrupt_enable,"ax",%progbits
	.hidden	fmc_interrupt_enable    @ -- Begin function fmc_interrupt_enable
	.globl	fmc_interrupt_enable
	.p2align	2
	.type	fmc_interrupt_enable,%function
	.code	16                      @ @fmc_interrupt_enable
	.thumb_func
fmc_interrupt_enable:
.Lfunc_begin23:
	.loc	4 655 0 is_stmt 1       @ ../Basic/Source/gd32e23x_fmc.c:655:0
	.fnstart
	.cfi_startproc
@ %bb.0:
	@DEBUG_VALUE: fmc_interrupt_enable:interrupt <- $r0
	@DEBUG_VALUE: fmc_interrupt_enable:interrupt <- $r0
	ldr	r1, __arm_cp.23_0
.Ltmp196:
	.loc	4 656 13 prologue_end   @ ../Basic/Source/gd32e23x_fmc.c:656:13
	ldr	r2, [r1]
	orrs	r2, r0
	str	r2, [r1]
	.loc	4 657 1                 @ ../Basic/Source/gd32e23x_fmc.c:657:1
	bx	lr
.Ltmp197:
	.p2align	2
@ %bb.1:
	.loc	4 0 1 is_stmt 0         @ ../Basic/Source/gd32e23x_fmc.c:0:1
__arm_cp.23_0:
	.long	1073881104              @ 0x40022010
.Lcpi_end35:
	.size	__arm_cp.23_0, .Lcpi_end35-__arm_cp.23_0
.Lfunc_end23:
	.size	fmc_interrupt_enable, .Lfunc_end23-fmc_interrupt_enable
	.cfi_endproc
	.cantunwind
	.fnend
                                        @ -- End function
	.section	.text.fmc_interrupt_disable,"ax",%progbits
	.hidden	fmc_interrupt_disable   @ -- Begin function fmc_interrupt_disable
	.globl	fmc_interrupt_disable
	.p2align	2
	.type	fmc_interrupt_disable,%function
	.code	16                      @ @fmc_interrupt_disable
	.thumb_func
fmc_interrupt_disable:
.Lfunc_begin24:
	.loc	4 668 0 is_stmt 1       @ ../Basic/Source/gd32e23x_fmc.c:668:0
	.fnstart
	.cfi_startproc
@ %bb.0:
	@DEBUG_VALUE: fmc_interrupt_disable:interrupt <- $r0
	@DEBUG_VALUE: fmc_interrupt_disable:interrupt <- $r0
	ldr	r1, __arm_cp.24_0
.Ltmp198:
	.loc	4 669 13 prologue_end   @ ../Basic/Source/gd32e23x_fmc.c:669:13
	ldr	r2, [r1]
	bics	r2, r0
	str	r2, [r1]
	.loc	4 670 1                 @ ../Basic/Source/gd32e23x_fmc.c:670:1
	bx	lr
.Ltmp199:
	.p2align	2
@ %bb.1:
	.loc	4 0 1 is_stmt 0         @ ../Basic/Source/gd32e23x_fmc.c:0:1
__arm_cp.24_0:
	.long	1073881104              @ 0x40022010
.Lcpi_end36:
	.size	__arm_cp.24_0, .Lcpi_end36-__arm_cp.24_0
.Lfunc_end24:
	.size	fmc_interrupt_disable, .Lfunc_end24-fmc_interrupt_disable
	.cfi_endproc
	.cantunwind
	.fnend
                                        @ -- End function
	.section	.text.fmc_flag_get,"ax",%progbits
	.hidden	fmc_flag_get            @ -- Begin function fmc_flag_get
	.globl	fmc_flag_get
	.p2align	2
	.type	fmc_flag_get,%function
	.code	16                      @ @fmc_flag_get
	.thumb_func
fmc_flag_get:
.Lfunc_begin25:
	.loc	4 685 0 is_stmt 1       @ ../Basic/Source/gd32e23x_fmc.c:685:0
	.fnstart
	.cfi_startproc
@ %bb.0:
	@DEBUG_VALUE: fmc_flag_get:flag <- $r0
	@DEBUG_VALUE: fmc_flag_get:flag <- $r0
	@DEBUG_VALUE: fmc_flag_get:status <- 0
	ldr	r1, __arm_cp.25_0
.Ltmp200:
	.loc	4 688 8 prologue_end    @ ../Basic/Source/gd32e23x_fmc.c:688:8
	ldr	r1, [r1]
	.loc	4 688 17 is_stmt 0      @ ../Basic/Source/gd32e23x_fmc.c:688:17
	ands	r1, r0
	subs	r0, r1, #1
.Ltmp201:
	sbcs	r1, r0
.Ltmp202:
	@DEBUG_VALUE: fmc_flag_get:status <- undef
	.loc	4 692 5 is_stmt 1       @ ../Basic/Source/gd32e23x_fmc.c:692:5
	mov	r0, r1
	bx	lr
.Ltmp203:
	.p2align	2
@ %bb.1:
	.loc	4 0 5 is_stmt 0         @ ../Basic/Source/gd32e23x_fmc.c:0:5
__arm_cp.25_0:
	.long	1073881100              @ 0x4002200c
.Lcpi_end37:
	.size	__arm_cp.25_0, .Lcpi_end37-__arm_cp.25_0
.Lfunc_end25:
	.size	fmc_flag_get, .Lfunc_end25-fmc_flag_get
	.cfi_endproc
	.cantunwind
	.fnend
                                        @ -- End function
	.section	.text.fmc_flag_clear,"ax",%progbits
	.hidden	fmc_flag_clear          @ -- Begin function fmc_flag_clear
	.globl	fmc_flag_clear
	.p2align	2
	.type	fmc_flag_clear,%function
	.code	16                      @ @fmc_flag_clear
	.thumb_func
fmc_flag_clear:
.Lfunc_begin26:
	.loc	4 707 0 is_stmt 1       @ ../Basic/Source/gd32e23x_fmc.c:707:0
	.fnstart
	.cfi_startproc
@ %bb.0:
	@DEBUG_VALUE: fmc_flag_clear:flag <- $r0
	@DEBUG_VALUE: fmc_flag_clear:flag <- $r0
	ldr	r1, __arm_cp.26_0
.Ltmp204:
	.loc	4 709 14 prologue_end   @ ../Basic/Source/gd32e23x_fmc.c:709:14
	str	r0, [r1]
	.loc	4 710 1                 @ ../Basic/Source/gd32e23x_fmc.c:710:1
	bx	lr
.Ltmp205:
	.p2align	2
@ %bb.1:
	.loc	4 0 1 is_stmt 0         @ ../Basic/Source/gd32e23x_fmc.c:0:1
__arm_cp.26_0:
	.long	1073881100              @ 0x4002200c
.Lcpi_end38:
	.size	__arm_cp.26_0, .Lcpi_end38-__arm_cp.26_0
.Lfunc_end26:
	.size	fmc_flag_clear, .Lfunc_end26-fmc_flag_clear
	.cfi_endproc
	.cantunwind
	.fnend
                                        @ -- End function
	.section	.text.fmc_interrupt_flag_get,"ax",%progbits
	.hidden	fmc_interrupt_flag_get  @ -- Begin function fmc_interrupt_flag_get
	.globl	fmc_interrupt_flag_get
	.p2align	2
	.type	fmc_interrupt_flag_get,%function
	.code	16                      @ @fmc_interrupt_flag_get
	.thumb_func
fmc_interrupt_flag_get:
.Lfunc_begin27:
	.loc	4 724 0 is_stmt 1       @ ../Basic/Source/gd32e23x_fmc.c:724:0
	.fnstart
	.cfi_startproc
@ %bb.0:
	@DEBUG_VALUE: fmc_interrupt_flag_get:int_flag <- $r0
	@DEBUG_VALUE: fmc_interrupt_flag_get:int_flag <- $r0
	@DEBUG_VALUE: fmc_interrupt_flag_get:intenable <- 0
	@DEBUG_VALUE: fmc_interrupt_flag_get:flagstatus <- 0
	movw	r1, #4096
.Ltmp206:
	.loc	4 727 8 prologue_end    @ ../Basic/Source/gd32e23x_fmc.c:727:8
	cmp	r0, #32
	beq	.LBB27_2
.Ltmp207:
@ %bb.1:
	@DEBUG_VALUE: fmc_interrupt_flag_get:flagstatus <- 0
	@DEBUG_VALUE: fmc_interrupt_flag_get:intenable <- 0
	@DEBUG_VALUE: fmc_interrupt_flag_get:int_flag <- $r0
	.loc	4 0 8 is_stmt 0         @ ../Basic/Source/gd32e23x_fmc.c:0:8
	movw	r1, #1024
.Ltmp208:
.LBB27_2:
	@DEBUG_VALUE: fmc_interrupt_flag_get:flagstatus <- 0
	@DEBUG_VALUE: fmc_interrupt_flag_get:intenable <- 0
	@DEBUG_VALUE: fmc_interrupt_flag_get:int_flag <- $r0
	ldr	r2, __arm_cp.27_0
.Ltmp209:
	ldr	r3, [r2, #4]
	ands	r3, r1
	subs	r1, r3, #1
	sbcs	r3, r1
	ldr	r1, [r2]
	ands	r1, r0
	subs	r0, r1, #1
.Ltmp210:
	sbcs	r1, r0
	ands	r1, r3
.Ltmp211:
	.loc	4 748 1 is_stmt 1       @ ../Basic/Source/gd32e23x_fmc.c:748:1
	mov	r0, r1
	bx	lr
.Ltmp212:
	.p2align	2
@ %bb.3:
	.loc	4 0 1 is_stmt 0         @ ../Basic/Source/gd32e23x_fmc.c:0:1
__arm_cp.27_0:
	.long	1073881100              @ 0x4002200c
.Lcpi_end39:
	.size	__arm_cp.27_0, .Lcpi_end39-__arm_cp.27_0
.Lfunc_end27:
	.size	fmc_interrupt_flag_get, .Lfunc_end27-fmc_interrupt_flag_get
	.cfi_endproc
	.cantunwind
	.fnend
                                        @ -- End function
	.section	.text.fmc_interrupt_flag_clear,"ax",%progbits
	.hidden	fmc_interrupt_flag_clear @ -- Begin function fmc_interrupt_flag_clear
	.globl	fmc_interrupt_flag_clear
	.p2align	2
	.type	fmc_interrupt_flag_clear,%function
	.code	16                      @ @fmc_interrupt_flag_clear
	.thumb_func
fmc_interrupt_flag_clear:
.Lfunc_begin28:
	.loc	4 762 0 is_stmt 1       @ ../Basic/Source/gd32e23x_fmc.c:762:0
	.fnstart
	.cfi_startproc
@ %bb.0:
	@DEBUG_VALUE: fmc_interrupt_flag_clear:int_flag <- $r0
	@DEBUG_VALUE: fmc_interrupt_flag_clear:int_flag <- $r0
	ldr	r1, __arm_cp.28_0
.Ltmp213:
	.loc	4 764 14 prologue_end   @ ../Basic/Source/gd32e23x_fmc.c:764:14
	str	r0, [r1]
	.loc	4 765 1                 @ ../Basic/Source/gd32e23x_fmc.c:765:1
	bx	lr
.Ltmp214:
	.p2align	2
@ %bb.1:
	.loc	4 0 1 is_stmt 0         @ ../Basic/Source/gd32e23x_fmc.c:0:1
__arm_cp.28_0:
	.long	1073881100              @ 0x4002200c
.Lcpi_end40:
	.size	__arm_cp.28_0, .Lcpi_end40-__arm_cp.28_0
.Lfunc_end28:
	.size	fmc_interrupt_flag_clear, .Lfunc_end28-fmc_interrupt_flag_clear
	.cfi_endproc
	.cantunwind
	.fnend
                                        @ -- End function
	.section	.text.fmc_state_get,"ax",%progbits
	.hidden	fmc_state_get           @ -- Begin function fmc_state_get
	.globl	fmc_state_get
	.p2align	2
	.type	fmc_state_get,%function
	.code	16                      @ @fmc_state_get
	.thumb_func
fmc_state_get:
.Lfunc_begin29:
	.loc	4 774 0 is_stmt 1       @ ../Basic/Source/gd32e23x_fmc.c:774:0
	.fnstart
	.cfi_startproc
@ %bb.0:
	@DEBUG_VALUE: fmc_state_get:fmc_state <- 0
	ldr	r0, __arm_cp.29_0
.Ltmp215:
	.loc	4 777 28 prologue_end   @ ../Basic/Source/gd32e23x_fmc.c:777:28
	ldr	r1, [r0]
.Ltmp216:
	.loc	4 777 8 is_stmt 0       @ ../Basic/Source/gd32e23x_fmc.c:777:8
	lsls	r1, r1, #31
	bne	.LBB29_3
.Ltmp217:
@ %bb.1:
	@DEBUG_VALUE: fmc_state_get:fmc_state <- 0
	.loc	4 780 32 is_stmt 1      @ ../Basic/Source/gd32e23x_fmc.c:780:32
	ldr	r1, [r0]
.Ltmp218:
	.loc	4 780 12 is_stmt 0      @ ../Basic/Source/gd32e23x_fmc.c:780:12
	lsls	r1, r1, #27
	bmi	.LBB29_4
.Ltmp219:
@ %bb.2:
	@DEBUG_VALUE: fmc_state_get:fmc_state <- 0
	.loc	4 783 36 is_stmt 1      @ ../Basic/Source/gd32e23x_fmc.c:783:36
	ldr	r0, [r0]
.Ltmp220:
	.loc	4 783 16 is_stmt 0      @ ../Basic/Source/gd32e23x_fmc.c:783:16
	lsrs	r1, r0, #1
	movs	r0, #2
	ands	r0, r1
.Ltmp221:
	@DEBUG_VALUE: fmc_state_get:fmc_state <- $r0
	.loc	4 0 0                   @ ../Basic/Source/gd32e23x_fmc.c:0:0
	bx	lr
.Ltmp222:
.LBB29_3:
	@DEBUG_VALUE: fmc_state_get:fmc_state <- 0
	movs	r0, #1
.Ltmp223:
	@DEBUG_VALUE: fmc_state_get:fmc_state <- $r0
	bx	lr
.Ltmp224:
.LBB29_4:
	@DEBUG_VALUE: fmc_state_get:fmc_state <- 0
	movs	r0, #4
.Ltmp225:
	@DEBUG_VALUE: fmc_state_get:fmc_state <- $r0
	bx	lr
.Ltmp226:
	.p2align	2
@ %bb.5:
__arm_cp.29_0:
	.long	1073881100              @ 0x4002200c
.Lcpi_end41:
	.size	__arm_cp.29_0, .Lcpi_end41-__arm_cp.29_0
.Lfunc_end29:
	.size	fmc_state_get, .Lfunc_end29-fmc_state_get
	.cfi_endproc
	.cantunwind
	.fnend
                                        @ -- End function
	.section	".note.GNU-stack","",%progbits
	.eabi_attribute	30, 4	@ Tag_ABI_optimization_goals
	.ARM_attribute	16, 1	@ Tag_AV_eba