	.text
	.syntax unified
	.eabi_attribute	67, "2.09"	@ Tag_conformance
	.cpu	cortex-m23
	.eabi_attribute	6, 16	@ Tag_CPU_arch
	.eabi_attribute	7, 77	@ Tag_CPU_arch_profile
	.eabi_attribute	8, 0	@ Tag_ARM_ISA_use
	.eabi_attribute	9, 3	@ Tag_THUMB_ISA_use
	.eabi_attribute	34, 0	@ Tag_CPU_unaligned_access
	.eabi_attribute	17, 1	@ Tag_ABI_PCS_GOT_use
	.eabi_attribute	20, 2	@ Tag_ABI_FP_denormal
	.eabi_attribute	21, 0	@ Tag_ABI_FP_exceptions
	.eabi_attribute	23, 1	@ Tag_ABI_FP_number_model
	.eabi_attribute	24, 1	@ Tag_ABI_align_needed
	.eabi_attribute	25, 1	@ Tag_ABI_align_preserved
	.eabi_attribute	38, 1	@ Tag_ABI_FP_16bit_format
	.eabi_attribute	18, 2	@ Tag_ABI_PCS_wchar_t
	.eabi_attribute	26, 1	@ Tag_ABI_enum_size
	.eabi_attribute	14, 0	@ Tag_ABI_PCS_R9_use
	.file	"gd32e23x_fwdgt.c"
	.file	1 "C:\\Users\\13728\\Desktop\\general igniter\\Project" "../CMSIS/Include\\gd32e23x.h"
	.file	2 "D:\\ProgramFile\\Keil5\\ARM\\ARMCLANG\\Bin\\..\\include" "stdint.h"
	.section	.text.fwdgt_write_enable,"ax",%progbits
	.hidden	fwdgt_write_enable      @ -- Begin function fwdgt_write_enable
	.globl	fwdgt_write_enable
	.p2align	2
	.type	fwdgt_write_enable,%function
	.code	16                      @ @fwdgt_write_enable
	.thumb_func
fwdgt_write_enable:
.Lfunc_begin0:
	.file	3 "C:\\Users\\13728\\Desktop\\general igniter\\Project" "../Basic/Source/gd32e23x_fwdgt.c"
	.loc	3 53 0                  @ ../Basic/Source/gd32e23x_fwdgt.c:53:0
	.fnstart
	.cfi_sections .debug_frame
	.cfi_startproc
@ %bb.0:
	ldr	r0, __arm_cp.0_0
	ldr	r1, __arm_cp.0_1
.Ltmp0:
	.loc	3 54 15 prologue_end    @ ../Basic/Source/gd32e23x_fwdgt.c:54:15
	str	r1, [r0]
	.loc	3 55 1                  @ ../Basic/Source/gd32e23x_fwdgt.c:55:1
	bx	lr
.Ltmp1:
	.p2align	2
@ %bb.1:
	.loc	3 0 1 is_stmt 0         @ ../Basic/Source/gd32e23x_fwdgt.c:0:1
__arm_cp.0_0:
	.long	1073754112              @ 0x40003000
.Lcpi_end0:
	.size	__arm_cp.0_0, .Lcpi_end0-__arm_cp.0_0
__arm_cp.0_1:
	.long	21845                   @ 0x5555
.Lcpi_end1:
	.size	__arm_cp.0_1, .Lcpi_end1-__arm_cp.0_1
.Lfunc_end0:
	.size	fwdgt_write_enable, .Lfunc_end0-fwdgt_write_enable
	.cfi_endproc
	.cantunwind
	.fnend
                                        @ -- End function
	.section	.text.fwdgt_write_disable,"ax",%progbits
	.hidden	fwdgt_write_disable     @ -- Begin function fwdgt_write_disable
	.globl	fwdgt_write_disable
	.p2align	2
	.type	fwdgt_write_disable,%function
	.code	16                      @ @fwdgt_write_disable
	.thumb_func
fwdgt_write_disable:
.Lfunc_begin1:
	.loc	3 64 0 is_stmt 1        @ ../Basic/Source/gd32e23x_fwdgt.c:64:0
	.fnstart
	.cfi_startproc
@ %bb.0:
	ldr	r0, __arm_cp.1_0
	movs	r1, #0
.Ltmp2:
	.loc	3 65 15 prologue_end    @ ../Basic/Source/gd32e23x_fwdgt.c:65:15
	str	r1, [r0]
	.loc	3 66 1                  @ ../Basic/Source/gd32e23x_fwdgt.c:66:1
	bx	lr
.Ltmp3:
	.p2align	2
@ %bb.1:
	.loc	3 0 1 is_stmt 0         @ ../Basic/Source/gd32e23x_fwdgt.c:0:1
__arm_cp.1_0:
	.long	1073754112              @ 0x40003000
.Lcpi_end2:
	.size	__arm_cp.1_0, .Lcpi_end2-__arm_cp.1_0
.Lfunc_end1:
	.size	fwdgt_write_disable, .Lfunc_end1-fwdgt_write_disable
	.cfi_endproc
	.cantunwind
	.fnend
                                        @ -- End function
	.section	.text.fwdgt_enable,"ax",%progbits
	.hidden	fwdgt_enable            @ -- Begin function fwdgt_enable
	.globl	fwdgt_enable
	.p2align	2
	.type	fwdgt_enable,%function
	.code	16                      @ @fwdgt_enable
	.thumb_func
fwdgt_enable:
.Lfunc_begin2:
	.loc	3 75 0 is_stmt 1        @ ../Basic/Source/gd32e23x_fwdgt.c:75:0
	.fnstart
	.cfi_startproc
@ %bb.0:
	ldr	r0, __arm_cp.2_0
	ldr	r1, __arm_cp.2_1
.Ltmp4:
	.loc	3 76 15 prologue_end    @ ../Basic/Source/gd32e23x_fwdgt.c:76:15
	str	r1, [r0]
	.loc	3 77 1                  @ ../Basic/Source/gd32e23x_fwdgt.c:77:1
	bx	lr
.Ltmp5:
	.p2align	2
@ %bb.1:
	.loc	3 0 1 is_stmt 0         @ ../Basic/Source/gd32e23x_fwdgt.c:0:1
__arm_cp.2_0:
	.long	1073754112              @ 0x40003000
.Lcpi_end3:
	.size	__arm_cp.2_0, .Lcpi_end3-__arm_cp.2_0
__arm_cp.2_1:
	.long	52428                   @ 0xcccc
.Lcpi_end4:
	.size	__arm_cp.2_1, .Lcpi_end4-__arm_cp.2_1
.Lfunc_end2:
	.size	fwdgt_enable, .Lfunc_end2-fwdgt_enable
	.cfi_endproc
	.cantunwind
	.fnend
                                        @ -- End function
	.section	.text.fwdgt_prescaler_value_config,"ax",%progbits
	.hidden	fwdgt_prescaler_value_config @ -- Begin function fwdgt_prescaler_value_config
	.globl	fwdgt_prescaler_value_config
	.p2align	2
	.type	fwdgt_prescaler_value_config,%function
	.code	16                      @ @fwdgt_prescaler_value_config
	.thumb_func
fwdgt_prescaler_value_config:
.Lfunc_begin3:
	.loc	3 94 0 is_stmt 1        @ ../Basic/Source/gd32e23x_fwdgt.c:94:0
	.fnstart
	.cfi_startproc
@ %bb.0:
	@DEBUG_VALUE: fwdgt_prescaler_value_config:prescaler_value <- $r0
	.save	{r4, lr}
	push	{r4, lr}
	.cfi_def_cfa_offset 8
	.cfi_offset lr, -4
	.cfi_offset r4, -8
	mov	r1, r0
.Ltmp6:
	@DEBUG_VALUE: fwdgt_prescaler_value_config:prescaler_value <- $r1
	ldr	r2, __arm_cp.3_0
	ldr	r0, __arm_cp.3_1
.Ltmp7:
	@DEBUG_VALUE: fwdgt_prescaler_value_config:flag_status <- 0
	@DEBUG_VALUE: fwdgt_prescaler_value_config:timeout <- 1048575
	.loc	3 99 15 prologue_end    @ ../Basic/Source/gd32e23x_fwdgt.c:99:15
	str	r0, [r2]
	ldr	r3, __arm_cp.3_2
	movs	r0, #1
.Ltmp8:
.LBB3_1:                                @ =>This Inner Loop Header: Depth=1
	@DEBUG_VALUE: fwdgt_prescaler_value_config:timeout <- 1048575
	@DEBUG_VALUE: fwdgt_prescaler_value_config:prescaler_value <- $r1
	@DEBUG_VALUE: fwdgt_prescaler_value_config:timeout <- undef
	.loc	3 103 23                @ ../Basic/Source/gd32e23x_fwdgt.c:103:23
	ldr	r4, [r2, #12]
	.loc	3 103 34 is_stmt 0      @ ../Basic/Source/gd32e23x_fwdgt.c:103:34
	ands	r4, r0
.Ltmp9:
	@DEBUG_VALUE: fwdgt_prescaler_value_config:timeout <- [DW_OP_constu 1, DW_OP_minus, DW_OP_stack_value] undef
	@DEBUG_VALUE: fwdgt_prescaler_value_config:flag_status <- $r4
	.loc	3 104 5 is_stmt 1       @ ../Basic/Source/gd32e23x_fwdgt.c:104:5
	cbz	r3, .LBB3_3
.Ltmp10:
@ %bb.2:                                @   in Loop: Header=BB3_1 Depth=1
	@DEBUG_VALUE: fwdgt_prescaler_value_config:flag_status <- $r4
	@DEBUG_VALUE: fwdgt_prescaler_value_config:timeout <- 1048575
	@DEBUG_VALUE: fwdgt_prescaler_value_config:prescaler_value <- $r1
	adds	r3, r3, #1
	cmp	r4, #0
	bne	.LBB3_1
.Ltmp11:
.LBB3_3:
	@DEBUG_VALUE: fwdgt_prescaler_value_config:flag_status <- $r4
	@DEBUG_VALUE: fwdgt_prescaler_value_config:timeout <- 1048575
	@DEBUG_VALUE: fwdgt_prescaler_value_config:prescaler_value <- $r1
	.loc	3 106 9                 @ ../Basic/Source/gd32e23x_fwdgt.c:106:9
	cbz	r4, .LBB3_5
.Ltmp12:
@ %bb.4:
	@DEBUG_VALUE: fwdgt_prescaler_value_config:flag_status <- $r4
	@DEBUG_VALUE: fwdgt_prescaler_value_config:timeout <- 1048575
	@DEBUG_VALUE: fwdgt_prescaler_value_config:prescaler_value <- $r1
	.loc	3 0 9 is_stmt 0         @ ../Basic/Source/gd32e23x_fwdgt.c:0:9
	movs	r0, #0
	.loc	3 114 1 is_stmt 1       @ ../Basic/Source/gd32e23x_fwdgt.c:114:1
	pop	{r4, pc}
.Ltmp13:
.LBB3_5:
	@DEBUG_VALUE: fwdgt_prescaler_value_config:flag_status <- $r4
	@DEBUG_VALUE: fwdgt_prescaler_value_config:timeout <- 1048575
	@DEBUG_VALUE: fwdgt_prescaler_value_config:prescaler_value <- $r1
	.loc	3 111 15                @ ../Basic/Source/gd32e23x_fwdgt.c:111:15
	str	r1, [r2, #4]
	.loc	3 114 1                 @ ../Basic/Source/gd32e23x_fwdgt.c:114:1
	pop	{r4, pc}
.Ltmp14:
	.p2align	2
@ %bb.6:
	.loc	3 0 1 is_stmt 0         @ ../Basic/Source/gd32e23x_fwdgt.c:0:1
__arm_cp.3_0:
	.long	1073754112              @ 0x40003000
.Lcpi_end5:
	.size	__arm_cp.3_0, .Lcpi_end5-__arm_cp.3_0
__arm_cp.3_1:
	.long	21845                   @ 0x5555
.Lcpi_end6:
	.size	__arm_cp.3_1, .Lcpi_end6-__arm_cp.3_1
__arm_cp.3_2:
	.long	4293918722              @ 0xfff00002
.Lcpi_end7:
	.size	__arm_cp.3_2, .Lcpi_end7-__arm_cp.3_2
.Lfunc_end3:
	.size	fwdgt_prescaler_value_config, .Lfunc_end3-fwdgt_prescaler_value_config
	.cfi_endproc
	.cantunwind
	.fnend
                                        @ -- End function
	.section	.text.fwdgt_reload_value_config,"ax",%progbits
	.hidden	fwdgt_reload_value_config @ -- Begin function fwdgt_reload_value_config
	.globl	fwdgt_reload_value_config
	.p2align	2
	.type	fwdgt_reload_value_config,%function
	.code	16                      @ @fwdgt_reload_value_config
	.thumb_func
fwdgt_reload_value_config:
.Lfunc_begin4:
	.loc	3 123 0 is_stmt 1       @ ../Basic/Source/gd32e23x_fwdgt.c:123:0
	.fnstart
	.cfi_startproc
@ %bb.0:
	@DEBUG_VALUE: fwdgt_reload_value_config:reload_value <- $r0
	@DEBUG_VALUE: fwdgt_reload_value_config:reload_value <- $r0
	.save	{r4, lr}
	push	{r4, lr}
	.cfi_def_cfa_offset 8
	.cfi_offset lr, -4
	.cfi_offset r4, -8
	ldr	r1, __arm_cp.4_0
	ldr	r2, __arm_cp.4_1
.Ltmp15:
	@DEBUG_VALUE: fwdgt_reload_value_config:flag_status <- 0
	@DEBUG_VALUE: fwdgt_reload_value_config:timeout <- 1048575
	.loc	3 128 15 prologue_end   @ ../Basic/Source/gd32e23x_fwdgt.c:128:15
	str	r2, [r1]
	ldr	r2, __arm_cp.4_2
	movs	r3, #2
.Ltmp16:
.LBB4_1:                                @ =>This Inner Loop Header: Depth=1
	@DEBUG_VALUE: fwdgt_reload_value_config:timeout <- 1048575
	@DEBUG_VALUE: fwdgt_reload_value_config:reload_value <- $r0
	@DEBUG_VALUE: fwdgt_reload_value_config:timeout <- undef
	.loc	3 132 23                @ ../Basic/Source/gd32e23x_fwdgt.c:132:23
	ldr	r4, [r1, #12]
	.loc	3 132 34 is_stmt 0      @ ../Basic/Source/gd32e23x_fwdgt.c:132:34
	ands	r4, r3
.Ltmp17:
	@DEBUG_VALUE: fwdgt_reload_value_config:timeout <- [DW_OP_constu 1, DW_OP_minus, DW_OP_stack_value] undef
	@DEBUG_VALUE: fwdgt_reload_value_config:flag_status <- $r4
	.loc	3 133 5 is_stmt 1       @ ../Basic/Source/gd32e23x_fwdgt.c:133:5
	cbz	r2, .LBB4_3
.Ltmp18:
@ %bb.2:                                @   in Loop: Header=BB4_1 Depth=1
	@DEBUG_VALUE: fwdgt_reload_value_config:flag_status <- $r4
	@DEBUG_VALUE: fwdgt_reload_value_config:timeout <- 1048575
	@DEBUG_VALUE: fwdgt_reload_value_config:reload_value <- $r0
	adds	r2, r2, #1
	cmp	r4, #0
	bne	.LBB4_1
.Ltmp19:
.LBB4_3:
	@DEBUG_VALUE: fwdgt_reload_value_config:flag_status <- $r4
	@DEBUG_VALUE: fwdgt_reload_value_config:timeout <- 1048575
	@DEBUG_VALUE: fwdgt_reload_value_config:reload_value <- $r0
	.loc	3 135 9                 @ ../Basic/Source/gd32e23x_fwdgt.c:135:9
	cbz	r4, .LBB4_5
.Ltmp20:
@ %bb.4:
	@DEBUG_VALUE: fwdgt_reload_value_config:flag_status <- $r4
	@DEBUG_VALUE: fwdgt_reload_value_config:timeout <- 1048575
	@DEBUG_VALUE: fwdgt_reload_value_config:reload_value <- $r0
	.loc	3 0 9 is_stmt 0         @ ../Basic/Source/gd32e23x_fwdgt.c:0:9
	movs	r0, #0
.Ltmp21:
	.loc	3 142 1 is_stmt 1       @ ../Basic/Source/gd32e23x_fwdgt.c:142:1
	pop	{r4, pc}
.Ltmp22:
.LBB4_5:
	@DEBUG_VALUE: fwdgt_reload_value_config:flag_status <- $r4
	@DEBUG_VALUE: fwdgt_reload_value_config:timeout <- 1048575
	@DEBUG_VALUE: fwdgt_reload_value_config:reload_value <- $r0
	.loc	3 0 1 is_stmt 0         @ ../Basic/Source/gd32e23x_fwdgt.c:0:1
	ldr	r2, __arm_cp.4_3
	.loc	3 139 17 is_stmt 1      @ ../Basic/Source/gd32e23x_fwdgt.c:139:17
	ands	r0, r2
.Ltmp23:
	.loc	3 139 15 is_stmt 0      @ ../Basic/Source/gd32e23x_fwdgt.c:139:15
	str	r0, [r1, #8]
	movs	r0, #1
	.loc	3 142 1 is_stmt 1       @ ../Basic/Source/gd32e23x_fwdgt.c:142:1
	pop	{r4, pc}
.Ltmp24:
	.p2align	2
@ %bb.6:
	.loc	3 0 1 is_stmt 0         @ ../Basic/Source/gd32e23x_fwdgt.c:0:1
__arm_cp.4_0:
	.long	1073754112              @ 0x40003000
.Lcpi_end8:
	.size	__arm_cp.4_0, .Lcpi_end8-__arm_cp.4_0
__arm_cp.4_1:
	.long	21845                   @ 0x5555
.Lcpi_end9:
	.size	__arm_cp.4_1, .Lcpi_end9-__arm_cp.4_1
__arm_cp.4_2:
	.long	4293918722              @ 0xfff00002
.Lcpi_end10:
	.size	__arm_cp.4_2, .Lcpi_end10-__arm_cp.4_2
__arm_cp.4_3:
	.long	4095                    @ 0xfff
.Lcpi_end11:
	.size	__arm_cp.4_3, .Lcpi_end11-__arm_cp.4_3
.Lfunc_end4:
	.size	fwdgt_reload_value_config, .Lfunc_end4-fwdgt_reload_value_config
	.cfi_endproc
	.cantunwind
	.fnend
                                        @ -- End function
	.section	.text.fwdgt_window_value_config,"ax",%progbits
	.hidden	fwdgt_window_value_config @ -- Begin function fwdgt_window_value_config
	.globl	fwdgt_window_value_config
	.p2align	2
	.type	fwdgt_window_value_config,%function
	.code	16                      @ @fwdgt_window_value_config
	.thumb_func
fwdgt_window_value_config:
.Lfunc_begin5:
	.loc	3 151 0 is_stmt 1       @ ../Basic/Source/gd32e23x_fwdgt.c:151:0
	.fnstart
	.cfi_startproc
@ %bb.0:
	@DEBUG_VALUE: fwdgt_window_value_config:window_value <- $r0
	@DEBUG_VALUE: fwdgt_window_value_config:window_value <- $r0
	.save	{r4, lr}
	push	{r4, lr}
	.cfi_def_cfa_offset 8
	.cfi_offset lr, -4
	.cfi_offset r4, -8
	ldr	r1, __arm_cp.5_0
	ldr	r2, __arm_cp.5_1
.Ltmp25:
	@DEBUG_VALUE: fwdgt_window_value_config:flag_status <- 0
	@DEBUG_VALUE: fwdgt_window_value_config:time_index <- 1048575
	.loc	3 156 15 prologue_end   @ ../Basic/Source/gd32e23x_fwdgt.c:156:15
	str	r2, [r1]
	ldr	r2, __arm_cp.5_2
	movs	r3, #4
.Ltmp26:
.LBB5_1:                                @ =>This Inner Loop Header: Depth=1
	@DEBUG_VALUE: fwdgt_window_value_config:time_index <- 1048575
	@DEBUG_VALUE: fwdgt_window_value_config:window_value <- $r0
	@DEBUG_VALUE: fwdgt_window_value_config:time_index <- undef
	.loc	3 160 23                @ ../Basic/Source/gd32e23x_fwdgt.c:160:23
	ldr	r4, [r1, #12]
	.loc	3 160 34 is_stmt 0      @ ../Basic/Source/gd32e23x_fwdgt.c:160:34
	ands	r4, r3
.Ltmp27:
	@DEBUG_VALUE: fwdgt_window_value_config:time_index <- [DW_OP_constu 1, DW_OP_minus, DW_OP_stack_value] undef
	@DEBUG_VALUE: fwdgt_window_value_config:flag_status <- $r4
	.loc	3 161 5 is_stmt 1       @ ../Basic/Source/gd32e23x_fwdgt.c:161:5
	cbz	r2, .LBB5_3
.Ltmp28:
@ %bb.2:                                @   in Loop: Header=BB5_1 Depth=1
	@DEBUG_VALUE: fwdgt_window_value_config:flag_status <- $r4
	@DEBUG_VALUE: fwdgt_window_value_config:time_index <- 1048575
	@DEBUG_VALUE: fwdgt_window_value_config:window_value <- $r0
	adds	r2, r2, #1
	cmp	r4, #0
	bne	.LBB5_1
.Ltmp29:
.LBB5_3:
	@DEBUG_VALUE: fwdgt_window_value_config:flag_status <- $r4
	@DEBUG_VALUE: fwdgt_window_value_config:time_index <- 1048575
	@DEBUG_VALUE: fwdgt_window_value_config:window_value <- $r0
	.loc	3 163 9                 @ ../Basic/Source/gd32e23x_fwdgt.c:163:9
	cbz	r4, .LBB5_5
.Ltmp30:
@ %bb.4:
	@DEBUG_VALUE: fwdgt_window_value_config:flag_status <- $r4
	@DEBUG_VALUE: fwdgt_window_value_config:time_index <- 1048575
	@DEBUG_VALUE: fwdgt_window_value_config:window_value <- $r0
	.loc	3 0 9 is_stmt 0         @ ../Basic/Source/gd32e23x_fwdgt.c:0:9
	movs	r0, #0
.Ltmp31:
	.loc	3 170 1 is_stmt 1       @ ../Basic/Source/gd32e23x_fwdgt.c:170:1
	pop	{r4, pc}
.Ltmp32:
.LBB5_5:
	@DEBUG_VALUE: fwdgt_window_value_config:flag_status <- $r4
	@DEBUG_VALUE: fwdgt_window_value_config:time_index <- 1048575
	@DEBUG_VALUE: fwdgt_window_value_config:window_value <- $r0
	.loc	3 0 1 is_stmt 0         @ ../Basic/Source/gd32e23x_fwdgt.c:0:1
	ldr	r2, __arm_cp.5_3
	.loc	3 167 17 is_stmt 1      @ ../Basic/Source/gd32e23x_fwdgt.c:167:17
	ands	r0, r2
.Ltmp33:
	.loc	3 167 15 is_stmt 0      @ ../Basic/Source/gd32e23x_fwdgt.c:167:15
	str	r0, [r1, #16]
	movs	r0, #1
	.loc	3 170 1 is_stmt 1       @ ../Basic/Source/gd32e23x_fwdgt.c:170:1
	pop	{r4, pc}
.Ltmp34:
	.p2align	2
@ %bb.6:
	.loc	3 0 1 is_stmt 0         @ ../Basic/Source/gd32e23x_fwdgt.c:0:1
__arm_cp.5_0:
	.long	1073754112              @ 0x40003000
.Lcpi_end12:
	.size	__arm_cp.5_0, .Lcpi_end12-__arm_cp.5_0
__arm_cp.5_1:
	.long	21845                   @ 0x5555
.Lcpi_end13:
	.size	__arm_cp.5_1, .Lcpi_end13-__arm_cp.5_1
__arm_cp.5_2:
	.long	4293918722              @ 0xfff00002
.Lcpi_end14:
	.size	__arm_cp.5_2, .Lcpi_end14-__arm_cp.5_2
__arm_cp.5_3:
	.long	4095                    @ 0xfff
.Lcpi_end15:
	.size	__arm_cp.5_3, .Lcpi_end15-__arm_cp.5_3
.Lfunc_end5:
	.size	fwdgt_window_value_config, .Lfunc_end5-fwdgt_window_value_config
	.cfi_endproc
	.cantunwind
	.fnend
                                        @ -- End function
	.section	.text.fwdgt_counter_reload,"ax",%progbits
	.hidden	fwdgt_counter_reload    @ -- Begin function fwdgt_counter_reload
	.globl	fwdgt_counter_reload
	.p2align	2
	.type	fwdgt_counter_reload,%function
	.code	16                      @ @fwdgt_counter_reload
	.thumb_func
fwdgt_counter_reload:
.Lfunc_begin6:
	.loc	3 179 0 is_stmt 1       @ ../Basic/Source/gd32e23x_fwdgt.c:179:0
	.fnstart
	.cfi_startproc
@ %bb.0:
	ldr	r0, __arm_cp.6_0
	ldr	r1, __arm_cp.6_1
.Ltmp35:
	.loc	3 180 15 prologue_end   @ ../Basic/Source/gd32e23x_fwdgt.c:180:15
	str	r1, [r0]
	.loc	3 181 1                 @ ../Basic/Source/gd32e23x_fwdgt.c:181:1
	bx	lr
.Ltmp36:
	.p2align	2
@ %bb.1:
	.loc	3 0 1 is_stmt 0         @ ../Basic/Source/gd32e23x_fwdgt.c:0:1
__arm_cp.6_0:
	.long	1073754112              @ 0x40003000
.Lcpi_end16:
	.size	__arm_cp.6_0, .Lcpi_end16-__arm_cp.6_0
__arm_cp.6_1:
	.long	43690                   @ 0xaaaa
.Lcpi_end17:
	.size	__arm_cp.6_1, .Lcpi_end17-__arm_cp.6_1
.Lfunc_end6:
	.size	fwdgt_counter_reload, .Lfunc_end6-fwdgt_counter_reload
	.cfi_endproc
	.cantunwind
	.fnend
                                        @ -- End function
	.section	.text.fwdgt_config,"ax",%progbits
	.hidden	fwdgt_config            @ -- Begin function fwdgt_config
	.globl	fwdgt_config
	.p2align	2
	.type	fwdgt_config,%function
	.code	16                      @ @fwdgt_config
	.thumb_func
fwdgt_config:
.Lfunc_begin7:
	.loc	3 199 0 is_stmt 1       @ ../Basic/Source/gd32e23x_fwdgt.c:199:0
	.fnstart
	.cfi_startproc
@ %bb.0:
	@DEBUG_VALUE: fwdgt_config:reload_value <- $r0
	@DEBUG_VALUE: fwdgt_config:reload_value <- $r0
	@DEBUG_VALUE: fwdgt_config:prescaler_div <- $r1
	@DEBUG_VALUE: fwdgt_config:prescaler_div <- $r1
	.save	{r4, r5, r6, lr}
	push	{r4, r5, r6, lr}
	.cfi_def_cfa_offset 16
	.cfi_offset lr, -4
	.cfi_offset r6, -8
	.cfi_offset r5, -12
	.cfi_offset r4, -16
	ldr	r3, __arm_cp.7_0
	ldr	r2, __arm_cp.7_1
.Ltmp37:
	@DEBUG_VALUE: fwdgt_config:flag_status <- 0
	@DEBUG_VALUE: fwdgt_config:timeout <- 1048575
	.loc	3 204 15 prologue_end   @ ../Basic/Source/gd32e23x_fwdgt.c:204:15
	str	r2, [r3]
	ldr	r5, __arm_cp.7_2
	movs	r4, #1
	.loc	3 0 0 is_stmt 0         @ ../Basic/Source/gd32e23x_fwdgt.c:0:0
	mov	r2, r5
.Ltmp38:
.LBB7_1:                                @ =>This Inner Loop Header: Depth=1
	@DEBUG_VALUE: fwdgt_config:timeout <- 1048575
	@DEBUG_VALUE: fwdgt_config:prescaler_div <- $r1
	@DEBUG_VALUE: fwdgt_config:reload_value <- $r0
	@DEBUG_VALUE: fwdgt_config:timeout <- undef
	.loc	3 208 23 is_stmt 1      @ ../Basic/Source/gd32e23x_fwdgt.c:208:23
	ldr	r6, [r3, #12]
	.loc	3 208 34 is_stmt 0      @ ../Basic/Source/gd32e23x_fwdgt.c:208:34
	ands	r6, r4
.Ltmp39:
	@DEBUG_VALUE: fwdgt_config:timeout <- [DW_OP_constu 1, DW_OP_minus, DW_OP_stack_value] undef
	@DEBUG_VALUE: fwdgt_config:flag_status <- $r6
	.loc	3 209 5 is_stmt 1       @ ../Basic/Source/gd32e23x_fwdgt.c:209:5
	cbz	r2, .LBB7_3
.Ltmp40:
@ %bb.2:                                @   in Loop: Header=BB7_1 Depth=1
	@DEBUG_VALUE: fwdgt_config:flag_status <- $r6
	@DEBUG_VALUE: fwdgt_config:timeout <- 1048575
	@DEBUG_VALUE: fwdgt_config:prescaler_div <- $r1
	@DEBUG_VALUE: fwdgt_config:reload_value <- $r0
	adds	r2, r2, #1
	cmp	r6, #0
	bne	.LBB7_1
.Ltmp41:
.LBB7_3:
	@DEBUG_VALUE: fwdgt_config:flag_status <- $r6
	@DEBUG_VALUE: fwdgt_config:timeout <- 1048575
	@DEBUG_VALUE: fwdgt_config:prescaler_div <- $r1
	@DEBUG_VALUE: fwdgt_config:reload_value <- $r0
	.loc	3 0 5 is_stmt 0         @ ../Basic/Source/gd32e23x_fwdgt.c:0:5
	movs	r2, #0
	.loc	3 211 9 is_stmt 1       @ ../Basic/Source/gd32e23x_fwdgt.c:211:9
	cbnz	r6, .LBB7_9
.Ltmp42:
@ %bb.4:
	@DEBUG_VALUE: fwdgt_config:flag_status <- $r6
	@DEBUG_VALUE: fwdgt_config:timeout <- 1048575
	@DEBUG_VALUE: fwdgt_config:prescaler_div <- $r1
	@DEBUG_VALUE: fwdgt_config:reload_value <- $r0
	.loc	3 216 15                @ ../Basic/Source/gd32e23x_fwdgt.c:216:15
	str	r1, [r3, #4]
	@DEBUG_VALUE: fwdgt_config:timeout <- 1048575
	movs	r1, #2
.Ltmp43:
.LBB7_5:                                @ =>This Inner Loop Header: Depth=1
	@DEBUG_VALUE: fwdgt_config:flag_status <- $r6
	@DEBUG_VALUE: fwdgt_config:timeout <- 1048575
	@DEBUG_VALUE: fwdgt_config:reload_value <- $r0
	@DEBUG_VALUE: fwdgt_config:timeout <- undef
	.loc	3 221 23                @ ../Basic/Source/gd32e23x_fwdgt.c:221:23
	ldr	r6, [r3, #12]
.Ltmp44:
	.loc	3 221 34 is_stmt 0      @ ../Basic/Source/gd32e23x_fwdgt.c:221:34
	ands	r6, r1
.Ltmp45:
	@DEBUG_VALUE: fwdgt_config:timeout <- [DW_OP_constu 1, DW_OP_minus, DW_OP_stack_value] undef
	@DEBUG_VALUE: fwdgt_config:flag_status <- $r6
	.loc	3 222 5 is_stmt 1       @ ../Basic/Source/gd32e23x_fwdgt.c:222:5
	cbz	r5, .LBB7_7
.Ltmp46:
@ %bb.6:                                @   in Loop: Header=BB7_5 Depth=1
	@DEBUG_VALUE: fwdgt_config:flag_status <- $r6
	@DEBUG_VALUE: fwdgt_config:timeout <- 1048575
	@DEBUG_VALUE: fwdgt_config:reload_value <- $r0
	adds	r5, r5, #1
	cmp	r6, #0
	bne	.LBB7_5
.Ltmp47:
.LBB7_7:
	@DEBUG_VALUE: fwdgt_config:flag_status <- $r6
	@DEBUG_VALUE: fwdgt_config:timeout <- 1048575
	@DEBUG_VALUE: fwdgt_config:reload_value <- $r0
	.loc	3 224 9                 @ ../Basic/Source/gd32e23x_fwdgt.c:224:9
	cbnz	r6, .LBB7_9
.Ltmp48:
@ %bb.8:
	@DEBUG_VALUE: fwdgt_config:flag_status <- $r6
	@DEBUG_VALUE: fwdgt_config:timeout <- 1048575
	@DEBUG_VALUE: fwdgt_config:reload_value <- $r0
	.loc	3 0 9 is_stmt 0         @ ../Basic/Source/gd32e23x_fwdgt.c:0:9
	ldr	r1, __arm_cp.7_3
	.loc	3 228 17 is_stmt 1      @ ../Basic/Source/gd32e23x_fwdgt.c:228:17
	ands	r0, r1
.Ltmp49:
	.loc	3 228 15 is_stmt 0      @ ../Basic/Source/gd32e23x_fwdgt.c:228:15
	str	r0, [r3, #8]
	ldr	r0, __arm_cp.7_4
	.loc	3 231 15 is_stmt 1      @ ../Basic/Source/gd32e23x_fwdgt.c:231:15
	str	r0, [r3]
	.loc	3 0 0 is_stmt 0         @ ../Basic/Source/gd32e23x_fwdgt.c:0:0
	mov	r2, r4
.Ltmp50:
.LBB7_9:
	@DEBUG_VALUE: fwdgt_config:flag_status <- $r6
	@DEBUG_VALUE: fwdgt_config:timeout <- 1048575
	.loc	3 234 1 is_stmt 1       @ ../Basic/Source/gd32e23x_fwdgt.c:234:1
	mov	r0, r2
	pop	{r4, r5, r6, pc}
.Ltmp51:
	.p2align	2
@ %bb.10:
	.loc	3 0 1 is_stmt 0         @ ../Basic/Source/gd32e23x_fwdgt.c:0:1
__arm_cp.7_0:
	.long	1073754112              @ 0x40003000
.Lcpi_end18:
	.size	__arm_cp.7_0, .Lcpi_end18-__arm_cp.7_0
__arm_cp.7_1:
	.long	21845                   @ 0x5555
.Lcpi_end19:
	.size	__arm_cp.7_1, .Lcpi_end19-__arm_cp.7_1
__arm_cp.7_2:
	.long	4293918722              @ 0xfff00002
.Lcpi_end20:
	.size	__arm_cp.7_2, .Lcpi_end20-__arm_cp.7_2
__arm_cp.7_3:
	.long	4095                    @ 0xfff
.Lcpi_end21:
	.size	__arm_cp.7_3, .Lcpi_end21-__arm_cp.7_3
__arm_cp.7_4:
	.long	43690                   @ 0xaaaa
.Lcpi_end22:
	.size	__arm_cp.7_4, .Lcpi_end22-__arm_cp.7_4
.Lfunc_end7:
	.size	fwdgt_config, .Lfunc_end7-fwdgt_config
	.cfi_endproc
	.cantunwind
	.fnend
                                        @ -- End function
	.section	.text.fwdgt_flag_get,"ax",%progbits
	.hidden	fwdgt_flag_get          @ -- Begin function fwdgt_flag_get
	.globl	fwdgt_flag_get
	.p2align	2
	.type	fwdgt_flag_get,%function
	.code	16                      @ @fwdgt_flag_get
	.thumb_func
fwdgt_flag_get:
.Lfunc_begin8:
	.loc	3 247 0 is_stmt 1       @ ../Basic/Source/gd32e23x_fwdgt.c:247:0
	.fnstart
	.cfi_startproc
@ %bb.0:
	@DEBUG_VALUE: fwdgt_flag_get:flag <- $r0
	@DEBUG_VALUE: fwdgt_flag_get:flag <- $r0
	ldr	r1, __arm_cp.8_0
.Ltmp52:
	.loc	3 248 18 prologue_end   @ ../Basic/Source/gd32e23x_fwdgt.c:248:18
	ldr	r1, [r1]
	.loc	3 248 29 is_stmt 0      @ ../Basic/Source/gd32e23x_fwdgt.c:248:29
	ands	r1, r0
	.loc	3 248 14                @ ../Basic/Source/gd32e23x_fwdgt.c:248:14
	subs	r0, r1, #1
.Ltmp53:
	sbcs	r1, r0
.Ltmp54:
	.loc	3 252 1 is_stmt 1       @ ../Basic/Source/gd32e23x_fwdgt.c:252:1
	mov	r0, r1
	bx	lr
.Ltmp55:
	.p2align	2
@ %bb.1:
	.loc	3 0 1 is_stmt 0         @ ../Basic/Source/gd32e23x_fwdgt.c:0:1
__arm_cp.8_0:
	.long	1073754124              @ 0x4000300c
.Lcpi_end23:
	.size	__arm_cp.8_0, .Lcpi_end23-__arm_cp.8_0
.Lfunc_end8:
	.size	fwdgt_flag_get, .Lfunc_end8-fwdgt_flag_get
	.cfi_endproc
	.cantunwind
	.fnend
                                        @ -- End function
	.section	".note.GNU-stack","",%progbits
	.eabi_attribute	30, 4	@ Tag_ABI_optimization_goals
	.ARM_attribute	16, 1	@ Tag_AV_eba