	.text
	.syntax unified
	.eabi_attribute	67, "2.09"	@ Tag_conformance
	.cpu	cortex-m23
	.eabi_attribute	6, 16	@ Tag_CPU_arch
	.eabi_attribute	7, 77	@ Tag_CPU_arch_profile
	.eabi_attribute	8, 0	@ Tag_ARM_ISA_use
	.eabi_attribute	9, 3	@ Tag_THUMB_ISA_use
	.eabi_attribute	34, 0	@ Tag_CPU_unaligned_access
	.eabi_attribute	17, 1	@ Tag_ABI_PCS_GOT_use
	.eabi_attribute	20, 2	@ Tag_ABI_FP_denormal
	.eabi_attribute	21, 0	@ Tag_ABI_FP_exceptions
	.eabi_attribute	23, 1	@ Tag_ABI_FP_number_model
	.eabi_attribute	24, 1	@ Tag_ABI_align_needed
	.eabi_attribute	25, 1	@ Tag_ABI_align_preserved
	.eabi_attribute	38, 1	@ Tag_ABI_FP_16bit_format
	.eabi_attribute	18, 2	@ Tag_ABI_PCS_wchar_t
	.eabi_attribute	26, 1	@ Tag_ABI_enum_size
	.eabi_attribute	14, 0	@ Tag_ABI_PCS_R9_use
	.file	"gd32e23x_gpio.c"
	.file	1 "C:\\Users\\13728\\Desktop\\general igniter\\Project" "../Basic/Include\\gd32e23x_rcu.h"
	.file	2 "C:\\Users\\13728\\Desktop\\general igniter\\Project" "../CMSIS/Include\\gd32e23x.h"
	.file	3 "D:\\ProgramFile\\Keil5\\ARM\\ARMCLANG\\Bin\\..\\include" "stdint.h"
	.section	.text.gpio_deinit,"ax",%progbits
	.hidden	gpio_deinit             @ -- Begin function gpio_deinit
	.globl	gpio_deinit
	.p2align	2
	.type	gpio_deinit,%function
	.code	16                      @ @gpio_deinit
	.thumb_func
gpio_deinit:
.Lfunc_begin0:
	.file	4 "C:\\Users\\13728\\Desktop\\general igniter\\Project" "../Basic/Source/gd32e23x_gpio.c"
	.loc	4 48 0                  @ ../Basic/Source/gd32e23x_gpio.c:48:0
	.fnstart
	.cfi_sections .debug_frame
	.cfi_startproc
@ %bb.0:
	@DEBUG_VALUE: gpio_deinit:gpio_periph <- $r0
	@DEBUG_VALUE: gpio_deinit:gpio_periph <- $r0
	.save	{r4, lr}
	push	{r4, lr}
	.cfi_def_cfa_offset 8
	.cfi_offset lr, -4
	.cfi_offset r4, -8
	movs	r1, #23
	lsls	r1, r1, #27
.Ltmp0:
	.loc	4 49 5 prologue_end     @ ../Basic/Source/gd32e23x_gpio.c:49:5
	adds	r0, r0, r1
.Ltmp1:
	.loc	4 0 5 is_stmt 0         @ ../Basic/Source/gd32e23x_gpio.c:0:5
	movs	r1, #10
	.loc	4 49 5                  @ ../Basic/Source/gd32e23x_gpio.c:49:5
	rors	r0, r1
	cmp	r0, #5
	bhi	.LBB0_5
@ %bb.1:
	.loc	4 0 5                   @ ../Basic/Source/gd32e23x_gpio.c:0:5
	ldr	r4, __arm_cp.0_0
	lsls	r1, r0, #2
	adr	r2, .LJTI0_0
	adds	r1, r2, r1
	mov	pc, r1
@ %bb.2:
	.p2align	2
.LJTI0_0:
	b.w	.LBB0_7
	b.w	.LBB0_3
	b.w	.LBB0_4
	b.w	.LBB0_5
	b.w	.LBB0_5
	b.w	.LBB0_6
.LBB0_3:
	adds	r4, r4, #1
	b	.LBB0_7
.LBB0_4:
	adds	r4, r4, #2
	b	.LBB0_7
.LBB0_5:
	.loc	4 73 1 is_stmt 1        @ ../Basic/Source/gd32e23x_gpio.c:73:1
	pop	{r4, pc}
.LBB0_6:
	.loc	4 0 1 is_stmt 0         @ ../Basic/Source/gd32e23x_gpio.c:0:1
	adds	r4, r4, #5
.LBB0_7:
.Ltmp2:
	mov	r0, r4
	bl	rcu_periph_reset_enable
	mov	r0, r4
	pop	{r4}
	pop	{r1}
	mov	lr, r1
	b	rcu_periph_reset_disable
.Ltmp3:
	.p2align	2
@ %bb.8:
__arm_cp.0_0:
	.long	2577                    @ 0xa11
.Lcpi_end0:
	.size	__arm_cp.0_0, .Lcpi_end0-__arm_cp.0_0
.Lfunc_end0:
	.size	gpio_deinit, .Lfunc_end0-gpio_deinit
	.cfi_endproc
	.cantunwind
	.fnend
                                        @ -- End function
	.section	.text.gpio_mode_set,"ax",%progbits
	.hidden	gpio_mode_set           @ -- Begin function gpio_mode_set
	.globl	gpio_mode_set
	.p2align	1
	.type	gpio_mode_set,%function
	.code	16                      @ @gpio_mode_set
	.thumb_func
gpio_mode_set:
.Lfunc_begin1:
	.loc	4 96 0 is_stmt 1        @ ../Basic/Source/gd32e23x_gpio.c:96:0
	.fnstart
	.cfi_startproc
@ %bb.0:
	@DEBUG_VALUE: gpio_mode_set:gpio_periph <- $r0
	@DEBUG_VALUE: gpio_mode_set:mode <- $r1
	@DEBUG_VALUE: gpio_mode_set:pull_up_down <- $r2
	@DEBUG_VALUE: gpio_mode_set:pin <- $r3
	.save	{r4, r5, r6, r7, lr}
	.pad	#12
	push	{r1, r2, r3, r4, r5, r6, r7, lr}
	.cfi_def_cfa_offset 32
	.cfi_offset lr, -4
	.cfi_offset r7, -8
	.cfi_offset r6, -12
	.cfi_offset r5, -16
	.cfi_offset r4, -20
	str	r3, [sp, #8]            @ 4-byte Spill
.Ltmp4:
	@DEBUG_VALUE: gpio_mode_set:pin <- [DW_OP_plus_uconst 8] [$sp+0]
	str	r2, [sp, #4]            @ 4-byte Spill
.Ltmp5:
	@DEBUG_VALUE: gpio_mode_set:pull_up_down <- [DW_OP_plus_uconst 4] [$sp+0]
	@DEBUG_VALUE: gpio_mode_set:mode <- $r1
	@DEBUG_VALUE: gpio_mode_set:gpio_periph <- $r0
	.loc	4 100 11 prologue_end   @ ../Basic/Source/gd32e23x_gpio.c:100:11
	ldr	r2, [r0]
.Ltmp6:
	@DEBUG_VALUE: gpio_mode_set:ctl <- $r2
	.loc	4 0 11 is_stmt 0        @ ../Basic/Source/gd32e23x_gpio.c:0:11
	str	r0, [sp]                @ 4-byte Spill
.Ltmp7:
	@DEBUG_VALUE: gpio_mode_set:gpio_periph <- [$sp+0]
	.loc	4 101 12 is_stmt 1      @ ../Basic/Source/gd32e23x_gpio.c:101:12
	ldr	r5, [r0, #12]
.Ltmp8:
	@DEBUG_VALUE: gpio_mode_set:pupd <- $r5
	.loc	4 0 12 is_stmt 0        @ ../Basic/Source/gd32e23x_gpio.c:0:12
	movs	r6, #0
.Ltmp9:
	@DEBUG_VALUE: gpio_mode_set:i <- 0
	mov	r7, r6
.Ltmp10:
.LBB1_1:                                @ =>This Inner Loop Header: Depth=1
	@DEBUG_VALUE: gpio_mode_set:pupd <- $r5
	@DEBUG_VALUE: gpio_mode_set:gpio_periph <- [$sp+0]
	@DEBUG_VALUE: gpio_mode_set:ctl <- $r2
	@DEBUG_VALUE: gpio_mode_set:pull_up_down <- [DW_OP_plus_uconst 4] [$sp+0]
	@DEBUG_VALUE: gpio_mode_set:pin <- [DW_OP_plus_uconst 8] [$sp+0]
	@DEBUG_VALUE: gpio_mode_set:mode <- $r1
	@DEBUG_VALUE: gpio_mode_set:ctl <- $r2
	@DEBUG_VALUE: gpio_mode_set:pupd <- $r5
	@DEBUG_VALUE: gpio_mode_set:i <- $r7
	.loc	4 103 5 is_stmt 1       @ ../Basic/Source/gd32e23x_gpio.c:103:5
	cmp	r6, #32
	beq	.LBB1_5
.Ltmp11:
@ %bb.2:                                @   in Loop: Header=BB1_1 Depth=1
	@DEBUG_VALUE: gpio_mode_set:i <- $r7
	@DEBUG_VALUE: gpio_mode_set:pupd <- $r5
	@DEBUG_VALUE: gpio_mode_set:gpio_periph <- [$sp+0]
	@DEBUG_VALUE: gpio_mode_set:ctl <- $r2
	@DEBUG_VALUE: gpio_mode_set:pull_up_down <- [DW_OP_plus_uconst 4] [$sp+0]
	@DEBUG_VALUE: gpio_mode_set:pin <- [DW_OP_plus_uconst 8] [$sp+0]
	@DEBUG_VALUE: gpio_mode_set:mode <- $r1
	.loc	4 104 12                @ ../Basic/Source/gd32e23x_gpio.c:104:12
	ldr	r3, [sp, #8]            @ 4-byte Reload
	lsrs	r3, r7
	lsls	r3, r3, #31
	beq	.LBB1_4
.Ltmp12:
@ %bb.3:                                @   in Loop: Header=BB1_1 Depth=1
	@DEBUG_VALUE: gpio_mode_set:i <- $r7
	@DEBUG_VALUE: gpio_mode_set:pupd <- $r5
	@DEBUG_VALUE: gpio_mode_set:gpio_periph <- [$sp+0]
	@DEBUG_VALUE: gpio_mode_set:ctl <- $r2
	@DEBUG_VALUE: gpio_mode_set:pull_up_down <- [DW_OP_plus_uconst 4] [$sp+0]
	@DEBUG_VALUE: gpio_mode_set:pin <- [DW_OP_plus_uconst 8] [$sp+0]
	@DEBUG_VALUE: gpio_mode_set:mode <- $r1
	.loc	4 113 21                @ ../Basic/Source/gd32e23x_gpio.c:113:21
	ldr	r3, [sp, #4]            @ 4-byte Reload
	lsls	r3, r6
	movs	r4, #3
	.loc	4 106 21                @ ../Basic/Source/gd32e23x_gpio.c:106:21
	lsls	r4, r6
	.loc	4 111 18                @ ../Basic/Source/gd32e23x_gpio.c:111:18
	bics	r5, r4
.Ltmp13:
	@DEBUG_VALUE: gpio_mode_set:pupd <- $r5
	.loc	4 113 18                @ ../Basic/Source/gd32e23x_gpio.c:113:18
	orrs	r5, r3
.Ltmp14:
	@DEBUG_VALUE: gpio_mode_set:pupd <- $r5
	.loc	4 108 20                @ ../Basic/Source/gd32e23x_gpio.c:108:20
	mov	r3, r1
	lsls	r3, r6
	.loc	4 106 17                @ ../Basic/Source/gd32e23x_gpio.c:106:17
	bics	r2, r4
.Ltmp15:
	@DEBUG_VALUE: gpio_mode_set:ctl <- $r2
	.loc	4 108 17                @ ../Basic/Source/gd32e23x_gpio.c:108:17
	orrs	r2, r3
.Ltmp16:
.LBB1_4:                                @   in Loop: Header=BB1_1 Depth=1
	@DEBUG_VALUE: gpio_mode_set:i <- $r7
	@DEBUG_VALUE: gpio_mode_set:pupd <- $r5
	@DEBUG_VALUE: gpio_mode_set:gpio_periph <- [$sp+0]
	@DEBUG_VALUE: gpio_mode_set:pull_up_down <- [DW_OP_plus_uconst 4] [$sp+0]
	@DEBUG_VALUE: gpio_mode_set:pin <- [DW_OP_plus_uconst 8] [$sp+0]
	@DEBUG_VALUE: gpio_mode_set:mode <- $r1
	@DEBUG_VALUE: gpio_mode_set:ctl <- $r2
	@DEBUG_VALUE: gpio_mode_set:pupd <- $r5
	.loc	4 103 5                 @ ../Basic/Source/gd32e23x_gpio.c:103:5
	adds	r6, r6, #2
	.loc	4 103 25 is_stmt 0      @ ../Basic/Source/gd32e23x_gpio.c:103:25
	adds	r7, r7, #1
.Ltmp17:
	@DEBUG_VALUE: gpio_mode_set:i <- $r7
	.loc	4 0 25                  @ ../Basic/Source/gd32e23x_gpio.c:0:25
	b	.LBB1_1
.Ltmp18:
.LBB1_5:
	@DEBUG_VALUE: gpio_mode_set:i <- $r7
	@DEBUG_VALUE: gpio_mode_set:pupd <- $r5
	@DEBUG_VALUE: gpio_mode_set:gpio_periph <- [$sp+0]
	@DEBUG_VALUE: gpio_mode_set:ctl <- $r2
	@DEBUG_VALUE: gpio_mode_set:pull_up_down <- [DW_OP_plus_uconst 4] [$sp+0]
	@DEBUG_VALUE: gpio_mode_set:pin <- [DW_OP_plus_uconst 8] [$sp+0]
	@DEBUG_VALUE: gpio_mode_set:mode <- $r1
	@DEBUG_VALUE: gpio_mode_set:ctl <- $r2
	@DEBUG_VALUE: gpio_mode_set:pupd <- $r5
	ldr	r0, [sp]                @ 4-byte Reload
	.loc	4 117 27 is_stmt 1      @ ../Basic/Source/gd32e23x_gpio.c:117:27
	str	r2, [r0]
	.loc	4 118 27                @ ../Basic/Source/gd32e23x_gpio.c:118:27
	str	r5, [r0, #12]
	.loc	4 119 1                 @ ../Basic/Source/gd32e23x_gpio.c:119:1
	pop	{r1, r2, r3, r4, r5, r6, r7, pc}
.Ltmp19:
.Lfunc_end1:
	.size	gpio_mode_set, .Lfunc_end1-gpio_mode_set
	.cfi_endproc
	.cantunwind
	.fnend
                                        @ -- End function
	.section	.text.gpio_output_options_set,"ax",%progbits
	.hidden	gpio_output_options_set @ -- Begin function gpio_output_options_set
	.globl	gpio_output_options_set
	.p2align	1
	.type	gpio_output_options_set,%function
	.code	16                      @ @gpio_output_options_set
	.thumb_func
gpio_output_options_set:
.Lfunc_begin2:
	.loc	4 140 0                 @ ../Basic/Source/gd32e23x_gpio.c:140:0
	.fnstart
	.cfi_startproc
@ %bb.0:
	@DEBUG_VALUE: gpio_output_options_set:gpio_periph <- $r0
	@DEBUG_VALUE: gpio_output_options_set:gpio_periph <- $r0
	@DEBUG_VALUE: gpio_output_options_set:otype <- $r1
	@DEBUG_VALUE: gpio_output_options_set:otype <- $r1
	@DEBUG_VALUE: gpio_output_options_set:speed <- $r2
	@DEBUG_VALUE: gpio_output_options_set:speed <- $r2
	@DEBUG_VALUE: gpio_output_options_set:pin <- $r3
	@DEBUG_VALUE: gpio_output_options_set:pin <- $r3
	.save	{r4, r5, r6, r7, lr}
	.pad	#4
	push	{r3, r4, r5, r6, r7, lr}
	.cfi_def_cfa_offset 24
	.cfi_offset lr, -4
	.cfi_offset r7, -8
	.cfi_offset r6, -12
	.cfi_offset r5, -16
	.cfi_offset r4, -20
.Ltmp20:
	.loc	4 144 8 prologue_end    @ ../Basic/Source/gd32e23x_gpio.c:144:8
	cmp	r1, #1
	bne	.LBB2_2
.Ltmp21:
@ %bb.1:
	@DEBUG_VALUE: gpio_output_options_set:pin <- $r3
	@DEBUG_VALUE: gpio_output_options_set:speed <- $r2
	@DEBUG_VALUE: gpio_output_options_set:otype <- $r1
	@DEBUG_VALUE: gpio_output_options_set:gpio_periph <- $r0
	.loc	4 145 33                @ ../Basic/Source/gd32e23x_gpio.c:145:33
	ldr	r1, [r0, #4]
.Ltmp22:
	orrs	r1, r3
	b	.LBB2_3
.Ltmp23:
.LBB2_2:
	@DEBUG_VALUE: gpio_output_options_set:pin <- $r3
	@DEBUG_VALUE: gpio_output_options_set:speed <- $r2
	@DEBUG_VALUE: gpio_output_options_set:otype <- $r1
	@DEBUG_VALUE: gpio_output_options_set:gpio_periph <- $r0
	.loc	4 147 33                @ ../Basic/Source/gd32e23x_gpio.c:147:33
	ldr	r1, [r0, #4]
.Ltmp24:
	bics	r1, r3
.Ltmp25:
.LBB2_3:
	@DEBUG_VALUE: gpio_output_options_set:pin <- $r3
	@DEBUG_VALUE: gpio_output_options_set:speed <- $r2
	@DEBUG_VALUE: gpio_output_options_set:gpio_periph <- $r0
	.loc	4 0 0 is_stmt 0         @ ../Basic/Source/gd32e23x_gpio.c:0:0
	str	r1, [r0, #4]
	str	r0, [sp]                @ 4-byte Spill
.Ltmp26:
	@DEBUG_VALUE: gpio_output_options_set:gpio_periph <- [$sp+0]
	.loc	4 151 14 is_stmt 1      @ ../Basic/Source/gd32e23x_gpio.c:151:14
	ldr	r1, [r0, #8]
.Ltmp27:
	@DEBUG_VALUE: gpio_output_options_set:ospeed <- $r1
	.loc	4 0 14 is_stmt 0        @ ../Basic/Source/gd32e23x_gpio.c:0:14
	movs	r4, #0
.Ltmp28:
	@DEBUG_VALUE: gpio_output_options_set:i <- 0
	movs	r0, #3
.Ltmp29:
	mov	r6, r4
.Ltmp30:
.LBB2_4:                                @ =>This Inner Loop Header: Depth=1
	@DEBUG_VALUE: gpio_output_options_set:ospeed <- $r1
	@DEBUG_VALUE: gpio_output_options_set:gpio_periph <- [$sp+0]
	@DEBUG_VALUE: gpio_output_options_set:pin <- $r3
	@DEBUG_VALUE: gpio_output_options_set:speed <- $r2
	@DEBUG_VALUE: gpio_output_options_set:ospeed <- $r1
	@DEBUG_VALUE: gpio_output_options_set:i <- $r6
	.loc	4 153 5 is_stmt 1       @ ../Basic/Source/gd32e23x_gpio.c:153:5
	cmp	r4, #32
	beq	.LBB2_8
.Ltmp31:
@ %bb.5:                                @   in Loop: Header=BB2_4 Depth=1
	@DEBUG_VALUE: gpio_output_options_set:i <- $r6
	@DEBUG_VALUE: gpio_output_options_set:ospeed <- $r1
	@DEBUG_VALUE: gpio_output_options_set:gpio_periph <- [$sp+0]
	@DEBUG_VALUE: gpio_output_options_set:pin <- $r3
	@DEBUG_VALUE: gpio_output_options_set:speed <- $r2
	.loc	4 154 12                @ ../Basic/Source/gd32e23x_gpio.c:154:12
	mov	r7, r3
	lsrs	r7, r6
	lsls	r7, r7, #31
	beq	.LBB2_7
.Ltmp32:
@ %bb.6:                                @   in Loop: Header=BB2_4 Depth=1
	@DEBUG_VALUE: gpio_output_options_set:i <- $r6
	@DEBUG_VALUE: gpio_output_options_set:ospeed <- $r1
	@DEBUG_VALUE: gpio_output_options_set:gpio_periph <- [$sp+0]
	@DEBUG_VALUE: gpio_output_options_set:pin <- $r3
	@DEBUG_VALUE: gpio_output_options_set:speed <- $r2
	.loc	4 158 23                @ ../Basic/Source/gd32e23x_gpio.c:158:23
	mov	r7, r2
	lsls	r7, r4
	.loc	4 156 24                @ ../Basic/Source/gd32e23x_gpio.c:156:24
	mov	r5, r0
	lsls	r5, r4
	.loc	4 156 20 is_stmt 0      @ ../Basic/Source/gd32e23x_gpio.c:156:20
	bics	r1, r5
.Ltmp33:
	@DEBUG_VALUE: gpio_output_options_set:ospeed <- $r1
	.loc	4 158 20 is_stmt 1      @ ../Basic/Source/gd32e23x_gpio.c:158:20
	orrs	r1, r7
.Ltmp34:
.LBB2_7:                                @   in Loop: Header=BB2_4 Depth=1
	@DEBUG_VALUE: gpio_output_options_set:i <- $r6
	@DEBUG_VALUE: gpio_output_options_set:gpio_periph <- [$sp+0]
	@DEBUG_VALUE: gpio_output_options_set:pin <- $r3
	@DEBUG_VALUE: gpio_output_options_set:speed <- $r2
	@DEBUG_VALUE: gpio_output_options_set:ospeed <- $r1
	.loc	4 153 5                 @ ../Basic/Source/gd32e23x_gpio.c:153:5
	adds	r4, r4, #2
	.loc	4 153 25 is_stmt 0      @ ../Basic/Source/gd32e23x_gpio.c:153:25
	adds	r6, r6, #1
.Ltmp35:
	@DEBUG_VALUE: gpio_output_options_set:i <- $r6
	.loc	4 0 25                  @ ../Basic/Source/gd32e23x_gpio.c:0:25
	b	.LBB2_4
.Ltmp36:
.LBB2_8:
	@DEBUG_VALUE: gpio_output_options_set:i <- $r6
	@DEBUG_VALUE: gpio_output_options_set:ospeed <- $r1
	@DEBUG_VALUE: gpio_output_options_set:gpio_periph <- [$sp+0]
	@DEBUG_VALUE: gpio_output_options_set:pin <- $r3
	@DEBUG_VALUE: gpio_output_options_set:speed <- $r2
	@DEBUG_VALUE: gpio_output_options_set:ospeed <- $r1
	.loc	4 161 28 is_stmt 1      @ ../Basic/Source/gd32e23x_gpio.c:161:28
	ldr	r0, [sp]                @ 4-byte Reload
.Ltmp37:
	@DEBUG_VALUE: gpio_output_options_set:gpio_periph <- $r0
	str	r1, [r0, #8]
	.loc	4 162 1                 @ ../Basic/Source/gd32e23x_gpio.c:162:1
	pop	{r3, r4, r5, r6, r7, pc}
.Ltmp38:
.Lfunc_end2:
	.size	gpio_output_options_set, .Lfunc_end2-gpio_output_options_set
	.cfi_endproc
	.cantunwind
	.fnend
                                        @ -- End function
	.section	.text.gpio_bit_set,"ax",%progbits
	.hidden	gpio_bit_set            @ -- Begin function gpio_bit_set
	.globl	gpio_bit_set
	.p2align	1
	.type	gpio_bit_set,%function
	.code	16                      @ @gpio_bit_set
	.thumb_func
gpio_bit_set:
.Lfunc_begin3:
	.loc	4 176 0                 @ ../Basic/Source/gd32e23x_gpio.c:176:0
	.fnstart
	.cfi_startproc
@ %bb.0:
	@DEBUG_VALUE: gpio_bit_set:gpio_periph <- $r0
	@DEBUG_VALUE: gpio_bit_set:gpio_periph <- $r0
	@DEBUG_VALUE: gpio_bit_set:pin <- $r1
	@DEBUG_VALUE: gpio_bit_set:pin <- $r1
	.loc	4 177 27 prologue_end   @ ../Basic/Source/gd32e23x_gpio.c:177:27
	str	r1, [r0, #24]
	.loc	4 178 1                 @ ../Basic/Source/gd32e23x_gpio.c:178:1
	bx	lr
.Ltmp39:
.Lfunc_end3:
	.size	gpio_bit_set, .Lfunc_end3-gpio_bit_set
	.cfi_endproc
	.cantunwind
	.fnend
                                        @ -- End function
	.section	.text.gpio_bit_reset,"ax",%progbits
	.hidden	gpio_bit_reset          @ -- Begin function gpio_bit_reset
	.globl	gpio_bit_reset
	.p2align	1
	.type	gpio_bit_reset,%function
	.code	16                      @ @gpio_bit_reset
	.thumb_func
gpio_bit_reset:
.Lfunc_begin4:
	.loc	4 192 0                 @ ../Basic/Source/gd32e23x_gpio.c:192:0
	.fnstart
	.cfi_startproc
@ %bb.0:
	@DEBUG_VALUE: gpio_bit_reset:gpio_periph <- $r0
	@DEBUG_VALUE: gpio_bit_reset:gpio_periph <- $r0
	@DEBUG_VALUE: gpio_bit_reset:pin <- $r1
	@DEBUG_VALUE: gpio_bit_reset:pin <- $r1
	.loc	4 193 26 prologue_end   @ ../Basic/Source/gd32e23x_gpio.c:193:26
	str	r1, [r0, #40]
	.loc	4 194 1                 @ ../Basic/Source/gd32e23x_gpio.c:194:1
	bx	lr
.Ltmp40:
.Lfunc_end4:
	.size	gpio_bit_reset, .Lfunc_end4-gpio_bit_reset
	.cfi_endproc
	.cantunwind
	.fnend
                                        @ -- End function
	.section	.text.gpio_bit_write,"ax",%progbits
	.hidden	gpio_bit_write          @ -- Begin function gpio_bit_write
	.globl	gpio_bit_write
	.p2align	1
	.type	gpio_bit_write,%function
	.code	16                      @ @gpio_bit_write
	.thumb_func
gpio_bit_write:
.Lfunc_begin5:
	.loc	4 211 0                 @ ../Basic/Source/gd32e23x_gpio.c:211:0
	.fnstart
	.cfi_startproc
@ %bb.0:
	@DEBUG_VALUE: gpio_bit_write:gpio_periph <- $r0
	@DEBUG_VALUE: gpio_bit_write:gpio_periph <- $r0
	@DEBUG_VALUE: gpio_bit_write:pin <- $r1
	@DEBUG_VALUE: gpio_bit_write:pin <- $r1
	@DEBUG_VALUE: gpio_bit_write:bit_value <- $r2
	@DEBUG_VALUE: gpio_bit_write:bit_value <- $r2
	.loc	4 212 8 prologue_end    @ ../Basic/Source/gd32e23x_gpio.c:212:8
	cbz	r2, .LBB5_2
.Ltmp41:
@ %bb.1:
	@DEBUG_VALUE: gpio_bit_write:bit_value <- $r2
	@DEBUG_VALUE: gpio_bit_write:pin <- $r1
	@DEBUG_VALUE: gpio_bit_write:gpio_periph <- $r0
	.loc	4 0 8 is_stmt 0         @ ../Basic/Source/gd32e23x_gpio.c:0:8
	movs	r2, #24
.Ltmp42:
	b	.LBB5_3
.Ltmp43:
.LBB5_2:
	@DEBUG_VALUE: gpio_bit_write:bit_value <- $r2
	@DEBUG_VALUE: gpio_bit_write:pin <- $r1
	@DEBUG_VALUE: gpio_bit_write:gpio_periph <- $r0
	movs	r2, #40
.Ltmp44:
.LBB5_3:
	@DEBUG_VALUE: gpio_bit_write:pin <- $r1
	@DEBUG_VALUE: gpio_bit_write:gpio_periph <- $r0
	str	r1, [r2, r0]
.Ltmp45:
	.loc	4 217 1 is_stmt 1       @ ../Basic/Source/gd32e23x_gpio.c:217:1
	bx	lr
.Ltmp46:
.Lfunc_end5:
	.size	gpio_bit_write, .Lfunc_end5-gpio_bit_write
	.cfi_endproc
	.cantunwind
	.fnend
                                        @ -- End function
	.section	.text.gpio_port_write,"ax",%progbits
	.hidden	gpio_port_write         @ -- Begin function gpio_port_write
	.globl	gpio_port_write
	.p2align	1
	.type	gpio_port_write,%function
	.code	16                      @ @gpio_port_write
	.thumb_func
gpio_port_write:
.Lfunc_begin6:
	.loc	4 229 0                 @ ../Basic/Source/gd32e23x_gpio.c:229:0
	.fnstart
	.cfi_startproc
@ %bb.0:
	@DEBUG_VALUE: gpio_port_write:gpio_periph <- $r0
	@DEBUG_VALUE: gpio_port_write:gpio_periph <- $r0
	@DEBUG_VALUE: gpio_port_write:data <- $r1
	@DEBUG_VALUE: gpio_port_write:data <- $r1
	.loc	4 230 28 prologue_end   @ ../Basic/Source/gd32e23x_gpio.c:230:28
	str	r1, [r0, #20]
	.loc	4 231 1                 @ ../Basic/Source/gd32e23x_gpio.c:231:1
	bx	lr
.Ltmp47:
.Lfunc_end6:
	.size	gpio_port_write, .Lfunc_end6-gpio_port_write
	.cfi_endproc
	.cantunwind
	.fnend
                                        @ -- End function
	.section	.text.gpio_input_bit_get,"ax",%progbits
	.hidden	gpio_input_bit_get      @ -- Begin function gpio_input_bit_get
	.globl	gpio_input_bit_get
	.p2align	1
	.type	gpio_input_bit_get,%function
	.code	16                      @ @gpio_input_bit_get
	.thumb_func
gpio_input_bit_get:
.Lfunc_begin7:
	.loc	4 245 0                 @ ../Basic/Source/gd32e23x_gpio.c:245:0
	.fnstart
	.cfi_startproc
@ %bb.0:
	@DEBUG_VALUE: gpio_input_bit_get:gpio_periph <- $r0
	@DEBUG_VALUE: gpio_input_bit_get:gpio_periph <- $r0
	@DEBUG_VALUE: gpio_input_bit_get:pin <- $r1
	@DEBUG_VALUE: gpio_input_bit_get:pin <- $r1
	.loc	4 246 28 prologue_end   @ ../Basic/Source/gd32e23x_gpio.c:246:28
	ldr	r0, [r0, #16]
.Ltmp48:
	.loc	4 246 51 is_stmt 0      @ ../Basic/Source/gd32e23x_gpio.c:246:51
	ands	r0, r1
	.loc	4 246 24                @ ../Basic/Source/gd32e23x_gpio.c:246:24
	subs	r1, r0, #1
.Ltmp49:
	sbcs	r0, r1
.Ltmp50:
	.loc	4 251 1 is_stmt 1       @ ../Basic/Source/gd32e23x_gpio.c:251:1
	bx	lr
.Ltmp51:
.Lfunc_end7:
	.size	gpio_input_bit_get, .Lfunc_end7-gpio_input_bit_get
	.cfi_endproc
	.cantunwind
	.fnend
                                        @ -- End function
	.section	.text.gpio_input_port_get,"ax",%progbits
	.hidden	gpio_input_port_get     @ -- Begin function gpio_input_port_get
	.globl	gpio_input_port_get
	.p2align	1
	.type	gpio_input_port_get,%function
	.code	16                      @ @gpio_input_port_get
	.thumb_func
gpio_input_port_get:
.Lfunc_begin8:
	.loc	4 262 0                 @ ../Basic/Source/gd32e23x_gpio.c:262:0
	.fnstart
	.cfi_startproc
@ %bb.0:
	@DEBUG_VALUE: gpio_input_port_get:gpio_periph <- $r0
	@DEBUG_VALUE: gpio_input_port_get:gpio_periph <- $r0
	.loc	4 263 22 prologue_end   @ ../Basic/Source/gd32e23x_gpio.c:263:22
	ldr	r0, [r0, #16]
.Ltmp52:
	.loc	4 263 5 is_stmt 0       @ ../Basic/Source/gd32e23x_gpio.c:263:5
	uxth	r0, r0
	bx	lr
.Ltmp53:
.Lfunc_end8:
	.size	gpio_input_port_get, .Lfunc_end8-gpio_input_port_get
	.cfi_endproc
	.cantunwind
	.fnend
                                        @ -- End function
	.section	.text.gpio_output_bit_get,"ax",%progbits
	.hidden	gpio_output_bit_get     @ -- Begin function gpio_output_bit_get
	.globl	gpio_output_bit_get
	.p2align	1
	.type	gpio_output_bit_get,%function
	.code	16                      @ @gpio_output_bit_get
	.thumb_func
gpio_output_bit_get:
.Lfunc_begin9:
	.loc	4 278 0 is_stmt 1       @ ../Basic/Source/gd32e23x_gpio.c:278:0
	.fnstart
	.cfi_startproc
@ %bb.0:
	@DEBUG_VALUE: gpio_output_bit_get:gpio_periph <- $r0
	@DEBUG_VALUE: gpio_output_bit_get:gpio_periph <- $r0
	@DEBUG_VALUE: gpio_output_bit_get:pin <- $r1
	@DEBUG_VALUE: gpio_output_bit_get:pin <- $r1
	.loc	4 279 28 prologue_end   @ ../Basic/Source/gd32e23x_gpio.c:279:28
	ldr	r0, [r0, #20]
.Ltmp54:
	.loc	4 279 50 is_stmt 0      @ ../Basic/Source/gd32e23x_gpio.c:279:50
	ands	r0, r1
	.loc	4 279 24                @ ../Basic/Source/gd32e23x_gpio.c:279:24
	subs	r1, r0, #1
.Ltmp55:
	sbcs	r0, r1
.Ltmp56:
	.loc	4 284 1 is_stmt 1       @ ../Basic/Source/gd32e23x_gpio.c:284:1
	bx	lr
.Ltmp57:
.Lfunc_end9:
	.size	gpio_output_bit_get, .Lfunc_end9-gpio_output_bit_get
	.cfi_endproc
	.cantunwind
	.fnend
                                        @ -- End function
	.section	.text.gpio_output_port_get,"ax",%progbits
	.hidden	gpio_output_port_get    @ -- Begin function gpio_output_port_get
	.globl	gpio_output_port_get
	.p2align	1
	.type	gpio_output_port_get,%function
	.code	16                      @ @gpio_output_port_get
	.thumb_func
gpio_output_port_get:
.Lfunc_begin10:
	.loc	4 295 0                 @ ../Basic/Source/gd32e23x_gpio.c:295:0
	.fnstart
	.cfi_startproc
@ %bb.0:
	@DEBUG_VALUE: gpio_output_port_get:gpio_periph <- $r0
	@DEBUG_VALUE: gpio_output_port_get:gpio_periph <- $r0
	.loc	4 296 22 prologue_end   @ ../Basic/Source/gd32e23x_gpio.c:296:22
	ldr	r0, [r0, #20]
.Ltmp58:
	.loc	4 296 5 is_stmt 0       @ ../Basic/Source/gd32e23x_gpio.c:296:5
	uxth	r0, r0
	bx	lr
.Ltmp59:
.Lfunc_end10:
	.size	gpio_output_port_get, .Lfunc_end10-gpio_output_port_get
	.cfi_endproc
	.cantunwind
	.fnend
                                        @ -- End function
	.section	.text.gpio_af_set,"ax",%progbits
	.hidden	gpio_af_set             @ -- Begin function gpio_af_set
	.globl	gpio_af_set
	.p2align	1
	.type	gpio_af_set,%function
	.code	16                      @ @gpio_af_set
	.thumb_func
gpio_af_set:
.Lfunc_begin11:
	.loc	4 321 0 is_stmt 1       @ ../Basic/Source/gd32e23x_gpio.c:321:0
	.fnstart
	.cfi_startproc
@ %bb.0:
	@DEBUG_VALUE: gpio_af_set:gpio_periph <- $r0
	@DEBUG_VALUE: gpio_af_set:alt_func_num <- $r1
	@DEBUG_VALUE: gpio_af_set:pin <- $r2
	@DEBUG_VALUE: gpio_af_set:pin <- $r2
	.save	{r4, r5, r6, r7, lr}
	.pad	#8
	push	{r2, r3, r4, r5, r6, r7, lr}
	.cfi_def_cfa_offset 28
	.cfi_offset lr, -4
	.cfi_offset r7, -8
	.cfi_offset r6, -12
	.cfi_offset r5, -16
	.cfi_offset r4, -20
	str	r1, [sp, #4]            @ 4-byte Spill
.Ltmp60:
	@DEBUG_VALUE: gpio_af_set:alt_func_num <- [DW_OP_plus_uconst 4] [$sp+0]
	@DEBUG_VALUE: gpio_af_set:gpio_periph <- $r0
	.loc	4 325 12 prologue_end   @ ../Basic/Source/gd32e23x_gpio.c:325:12
	ldr	r1, [r0, #32]
.Ltmp61:
	@DEBUG_VALUE: gpio_af_set:afrl <- $r1
	.loc	4 0 12 is_stmt 0        @ ../Basic/Source/gd32e23x_gpio.c:0:12
	str	r0, [sp]                @ 4-byte Spill
.Ltmp62:
	@DEBUG_VALUE: gpio_af_set:gpio_periph <- [$sp+0]
	.loc	4 326 12 is_stmt 1      @ ../Basic/Source/gd32e23x_gpio.c:326:12
	ldr	r4, [r0, #36]
.Ltmp63:
	@DEBUG_VALUE: gpio_af_set:afrh <- $r4
	.loc	4 0 12 is_stmt 0        @ ../Basic/Source/gd32e23x_gpio.c:0:12
	movs	r5, #0
.Ltmp64:
	@DEBUG_VALUE: gpio_af_set:i <- 0
	mov	r6, r5
.Ltmp65:
.LBB11_1:                               @ =>This Inner Loop Header: Depth=1
	@DEBUG_VALUE: gpio_af_set:afrh <- $r4
	@DEBUG_VALUE: gpio_af_set:gpio_periph <- [$sp+0]
	@DEBUG_VALUE: gpio_af_set:afrl <- $r1
	@DEBUG_VALUE: gpio_af_set:alt_func_num <- [DW_OP_plus_uconst 4] [$sp+0]
	@DEBUG_VALUE: gpio_af_set:pin <- $r2
	@DEBUG_VALUE: gpio_af_set:afrl <- $r1
	@DEBUG_VALUE: gpio_af_set:i <- $r6
	.loc	4 328 5 is_stmt 1       @ ../Basic/Source/gd32e23x_gpio.c:328:5
	cmp	r5, #32
	beq	.LBB11_5
.Ltmp66:
@ %bb.2:                                @   in Loop: Header=BB11_1 Depth=1
	@DEBUG_VALUE: gpio_af_set:i <- $r6
	@DEBUG_VALUE: gpio_af_set:afrh <- $r4
	@DEBUG_VALUE: gpio_af_set:gpio_periph <- [$sp+0]
	@DEBUG_VALUE: gpio_af_set:afrl <- $r1
	@DEBUG_VALUE: gpio_af_set:alt_func_num <- [DW_OP_plus_uconst 4] [$sp+0]
	@DEBUG_VALUE: gpio_af_set:pin <- $r2
	.loc	4 329 12                @ ../Basic/Source/gd32e23x_gpio.c:329:12
	mov	r7, r2
	lsrs	r7, r6
	lsls	r7, r7, #31
	beq	.LBB11_4
.Ltmp67:
@ %bb.3:                                @   in Loop: Header=BB11_1 Depth=1
	@DEBUG_VALUE: gpio_af_set:i <- $r6
	@DEBUG_VALUE: gpio_af_set:afrh <- $r4
	@DEBUG_VALUE: gpio_af_set:gpio_periph <- [$sp+0]
	@DEBUG_VALUE: gpio_af_set:afrl <- $r1
	@DEBUG_VALUE: gpio_af_set:alt_func_num <- [DW_OP_plus_uconst 4] [$sp+0]
	@DEBUG_VALUE: gpio_af_set:pin <- $r2
	.loc	4 332 21                @ ../Basic/Source/gd32e23x_gpio.c:332:21
	ldr	r7, [sp, #4]            @ 4-byte Reload
	lsls	r7, r5
	movs	r3, #15
	.loc	4 331 22                @ ../Basic/Source/gd32e23x_gpio.c:331:22
	lsls	r3, r5
	.loc	4 331 18 is_stmt 0      @ ../Basic/Source/gd32e23x_gpio.c:331:18
	bics	r1, r3
.Ltmp68:
	@DEBUG_VALUE: gpio_af_set:afrl <- $r1
	.loc	4 332 18 is_stmt 1      @ ../Basic/Source/gd32e23x_gpio.c:332:18
	orrs	r1, r7
.Ltmp69:
.LBB11_4:                               @   in Loop: Header=BB11_1 Depth=1
	@DEBUG_VALUE: gpio_af_set:i <- $r6
	@DEBUG_VALUE: gpio_af_set:afrh <- $r4
	@DEBUG_VALUE: gpio_af_set:gpio_periph <- [$sp+0]
	@DEBUG_VALUE: gpio_af_set:alt_func_num <- [DW_OP_plus_uconst 4] [$sp+0]
	@DEBUG_VALUE: gpio_af_set:pin <- $r2
	@DEBUG_VALUE: gpio_af_set:afrl <- $r1
	.loc	4 328 5                 @ ../Basic/Source/gd32e23x_gpio.c:328:5
	adds	r5, r5, #4
	.loc	4 328 24 is_stmt 0      @ ../Basic/Source/gd32e23x_gpio.c:328:24
	adds	r6, r6, #1
.Ltmp70:
	@DEBUG_VALUE: gpio_af_set:i <- $r6
	.loc	4 0 24                  @ ../Basic/Source/gd32e23x_gpio.c:0:24
	b	.LBB11_1
.Ltmp71:
.LBB11_5:
	@DEBUG_VALUE: gpio_af_set:i <- $r6
	@DEBUG_VALUE: gpio_af_set:afrh <- $r4
	@DEBUG_VALUE: gpio_af_set:gpio_periph <- [$sp+0]
	@DEBUG_VALUE: gpio_af_set:afrl <- $r1
	@DEBUG_VALUE: gpio_af_set:alt_func_num <- [DW_OP_plus_uconst 4] [$sp+0]
	@DEBUG_VALUE: gpio_af_set:pin <- $r2
	movs	r5, #8
	movs	r6, #0
.Ltmp72:
.LBB11_6:                               @ =>This Inner Loop Header: Depth=1
	@DEBUG_VALUE: gpio_af_set:afrh <- $r4
	@DEBUG_VALUE: gpio_af_set:gpio_periph <- [$sp+0]
	@DEBUG_VALUE: gpio_af_set:afrl <- $r1
	@DEBUG_VALUE: gpio_af_set:alt_func_num <- [DW_OP_plus_uconst 4] [$sp+0]
	@DEBUG_VALUE: gpio_af_set:pin <- $r2
	@DEBUG_VALUE: gpio_af_set:afrh <- $r4
	@DEBUG_VALUE: gpio_af_set:i <- $r5
	.loc	4 336 5 is_stmt 1       @ ../Basic/Source/gd32e23x_gpio.c:336:5
	cmp	r6, #32
	beq	.LBB11_10
.Ltmp73:
@ %bb.7:                                @   in Loop: Header=BB11_6 Depth=1
	@DEBUG_VALUE: gpio_af_set:i <- $r5
	@DEBUG_VALUE: gpio_af_set:afrh <- $r4
	@DEBUG_VALUE: gpio_af_set:gpio_periph <- [$sp+0]
	@DEBUG_VALUE: gpio_af_set:afrl <- $r1
	@DEBUG_VALUE: gpio_af_set:alt_func_num <- [DW_OP_plus_uconst 4] [$sp+0]
	@DEBUG_VALUE: gpio_af_set:pin <- $r2
	.loc	4 337 12                @ ../Basic/Source/gd32e23x_gpio.c:337:12
	mov	r3, r2
	lsrs	r3, r5
	lsls	r3, r3, #31
	beq	.LBB11_9
.Ltmp74:
@ %bb.8:                                @   in Loop: Header=BB11_6 Depth=1
	@DEBUG_VALUE: gpio_af_set:i <- $r5
	@DEBUG_VALUE: gpio_af_set:afrh <- $r4
	@DEBUG_VALUE: gpio_af_set:gpio_periph <- [$sp+0]
	@DEBUG_VALUE: gpio_af_set:afrl <- $r1
	@DEBUG_VALUE: gpio_af_set:alt_func_num <- [DW_OP_plus_uconst 4] [$sp+0]
	@DEBUG_VALUE: gpio_af_set:pin <- $r2
	.loc	4 340 21                @ ../Basic/Source/gd32e23x_gpio.c:340:21
	ldr	r3, [sp, #4]            @ 4-byte Reload
	lsls	r3, r6
	movs	r7, #15
	.loc	4 339 22                @ ../Basic/Source/gd32e23x_gpio.c:339:22
	lsls	r7, r6
	.loc	4 339 18 is_stmt 0      @ ../Basic/Source/gd32e23x_gpio.c:339:18
	bics	r4, r7
.Ltmp75:
	@DEBUG_VALUE: gpio_af_set:afrh <- $r4
	.loc	4 340 18 is_stmt 1      @ ../Basic/Source/gd32e23x_gpio.c:340:18
	orrs	r4, r3
.Ltmp76:
.LBB11_9:                               @   in Loop: Header=BB11_6 Depth=1
	@DEBUG_VALUE: gpio_af_set:i <- $r5
	@DEBUG_VALUE: gpio_af_set:gpio_periph <- [$sp+0]
	@DEBUG_VALUE: gpio_af_set:afrl <- $r1
	@DEBUG_VALUE: gpio_af_set:alt_func_num <- [DW_OP_plus_uconst 4] [$sp+0]
	@DEBUG_VALUE: gpio_af_set:pin <- $r2
	@DEBUG_VALUE: gpio_af_set:afrh <- $r4
	.loc	4 336 5                 @ ../Basic/Source/gd32e23x_gpio.c:336:5
	adds	r6, r6, #4
	.loc	4 336 25 is_stmt 0      @ ../Basic/Source/gd32e23x_gpio.c:336:25
	adds	r5, r5, #1
.Ltmp77:
	@DEBUG_VALUE: gpio_af_set:i <- $r5
	.loc	4 0 25                  @ ../Basic/Source/gd32e23x_gpio.c:0:25
	b	.LBB11_6
.Ltmp78:
.LBB11_10:
	@DEBUG_VALUE: gpio_af_set:i <- $r5
	@DEBUG_VALUE: gpio_af_set:afrh <- $r4
	@DEBUG_VALUE: gpio_af_set:gpio_periph <- [$sp+0]
	@DEBUG_VALUE: gpio_af_set:afrl <- $r1
	@DEBUG_VALUE: gpio_af_set:alt_func_num <- [DW_OP_plus_uconst 4] [$sp+0]
	@DEBUG_VALUE: gpio_af_set:pin <- $r2
	@DEBUG_VALUE: gpio_af_set:afrh <- $r4
	ldr	r0, [sp]                @ 4-byte Reload
	.loc	4 344 30 is_stmt 1      @ ../Basic/Source/gd32e23x_gpio.c:344:30
	str	r1, [r0, #32]
	.loc	4 345 30                @ ../Basic/Source/gd32e23x_gpio.c:345:30
	str	r4, [r0, #36]
	.loc	4 346 1                 @ ../Basic/Source/gd32e23x_gpio.c:346:1
	pop	{r2, r3, r4, r5, r6, r7, pc}
.Ltmp79:
.Lfunc_end11:
	.size	gpio_af_set, .Lfunc_end11-gpio_af_set
	.cfi_endproc
	.cantunwind
	.fnend
                                        @ -- End function
	.section	.text.gpio_pin_lock,"ax",%progbits
	.hidden	gpio_pin_lock           @ -- Begin function gpio_pin_lock
	.globl	gpio_pin_lock
	.p2align	1
	.type	gpio_pin_lock,%function
	.code	16                      @ @gpio_pin_lock
	.thumb_func
gpio_pin_lock:
.Lfunc_begin12:
	.loc	4 360 0                 @ ../Basic/Source/gd32e23x_gpio.c:360:0
	.fnstart
	.cfi_startproc
@ %bb.0:
	@DEBUG_VALUE: gpio_pin_lock:gpio_periph <- $r0
	@DEBUG_VALUE: gpio_pin_lock:gpio_periph <- $r0
	@DEBUG_VALUE: gpio_pin_lock:pin <- $r1
	@DEBUG_VALUE: gpio_pin_lock:pin <- $r1
	@DEBUG_VALUE: gpio_pin_lock:lock <- 65536
	movs	r2, #1
	lsls	r2, r2, #16
.Ltmp80:
	.loc	4 362 10 prologue_end   @ ../Basic/Source/gd32e23x_gpio.c:362:10
	orrs	r2, r1
.Ltmp81:
	@DEBUG_VALUE: gpio_pin_lock:lock <- $r2
	.loc	4 365 28                @ ../Basic/Source/gd32e23x_gpio.c:365:28
	str	r2, [r0, #28]
	.loc	4 366 28                @ ../Basic/Source/gd32e23x_gpio.c:366:28
	str	r1, [r0, #28]
	.loc	4 367 28                @ ../Basic/Source/gd32e23x_gpio.c:367:28
	str	r2, [r0, #28]
	.loc	4 368 12                @ ../Basic/Source/gd32e23x_gpio.c:368:12
	ldr	r1, [r0, #28]
.Ltmp82:
	@DEBUG_VALUE: gpio_pin_lock:lock <- $r1
	.loc	4 369 12                @ ../Basic/Source/gd32e23x_gpio.c:369:12
	ldr	r0, [r0, #28]
.Ltmp83:
	@DEBUG_VALUE: gpio_pin_lock:lock <- $r0
	.loc	4 370 1                 @ ../Basic/Source/gd32e23x_gpio.c:370:1
	bx	lr
.Ltmp84:
.Lfunc_end12:
	.size	gpio_pin_lock, .Lfunc_end12-gpio_pin_lock
	.cfi_endproc
	.cantunwind
	.fnend
                                        @ -- End function
	.section	.text.gpio_bit_toggle,"ax",%progbits
	.hidden	gpio_bit_toggle         @ -- Begin function gpio_bit_toggle
	.globl	gpio_bit_toggle
	.p2align	1
	.type	gpio_bit_toggle,%function
	.code	16                      @ @gpio_bit_toggle
	.thumb_func
gpio_bit_toggle:
.Lfunc_begin13:
	.loc	4 384 0                 @ ../Basic/Source/gd32e23x_gpio.c:384:0
	.fnstart
	.cfi_startproc
@ %bb.0:
	@DEBUG_VALUE: gpio_bit_toggle:gpio_periph <- $r0
	@DEBUG_VALUE: gpio_bit_toggle:gpio_periph <- $r0
	@DEBUG_VALUE: gpio_bit_toggle:pin <- $r1
	@DEBUG_VALUE: gpio_bit_toggle:pin <- $r1
	.loc	4 385 26 prologue_end   @ ../Basic/Source/gd32e23x_gpio.c:385:26
	str	r1, [r0, #44]
	.loc	4 386 1                 @ ../Basic/Source/gd32e23x_gpio.c:386:1
	bx	lr
.Ltmp85:
.Lfunc_end13:
	.size	gpio_bit_toggle, .Lfunc_end13-gpio_bit_toggle
	.cfi_endproc
	.cantunwind
	.fnend
                                        @ -- End function
	.section	.text.gpio_port_toggle,"ax",%progbits
	.hidden	gpio_port_toggle        @ -- Begin function gpio_port_toggle
	.globl	gpio_port_toggle
	.p2align	2
	.type	gpio_port_toggle,%function
	.code	16                      @ @gpio_port_toggle
	.thumb_func
gpio_port_toggle:
.Lfunc_begin14:
	.loc	4 397 0                 @ ../Basic/Source/gd32e23x_gpio.c:397:0
	.fnstart
	.cfi_startproc
@ %bb.0:
	@DEBUG_VALUE: gpio_port_toggle:gpio_periph <- $r0
	@DEBUG_VALUE: gpio_port_toggle:gpio_periph <- $r0
	ldr	r1, __arm_cp.14_0
.Ltmp86:
	.loc	4 398 26 prologue_end   @ ../Basic/Source/gd32e23x_gpio.c:398:26
	str	r1, [r0, #44]
	.loc	4 399 1                 @ ../Basic/Source/gd32e23x_gpio.c:399:1
	bx	lr
.Ltmp87:
	.p2align	2
@ %bb.1:
	.loc	4 0 1 is_stmt 0         @ ../Basic/Source/gd32e23x_gpio.c:0:1
__arm_cp.14_0:
	.long	65535                   @ 0xffff
.Lcpi_end1:
	.size	__arm_cp.14_0, .Lcpi_end1-__arm_cp.14_0
.Lfunc_end14:
	.size	gpio_port_toggle, .Lfunc_end14-gpio_port_toggle
	.cfi_endproc
	.cantunwind
	.fnend
                                        @ -- End function
	.file	5 "C:\\Users\\13728\\Desktop\\general igniter\\Project" "../Basic/Include\\gd32e23x_gpio.h"
	.section	".note.GNU-stack","",%progbits
	.eabi_attribute	30, 4	@ Tag_ABI_optimization_goals
	.ARM_attribute	16, 1	@ Tag_AV_eba