	.text
	.syntax unified
	.eabi_attribute	67, "2.09"	@ Tag_conformance
	.cpu	cortex-m23
	.eabi_attribute	6, 16	@ Tag_CPU_arch
	.eabi_attribute	7, 77	@ Tag_CPU_arch_profile
	.eabi_attribute	8, 0	@ Tag_ARM_ISA_use
	.eabi_attribute	9, 3	@ Tag_THUMB_ISA_use
	.eabi_attribute	34, 0	@ Tag_CPU_unaligned_access
	.eabi_attribute	17, 1	@ Tag_ABI_PCS_GOT_use
	.eabi_attribute	20, 2	@ Tag_ABI_FP_denormal
	.eabi_attribute	21, 0	@ Tag_ABI_FP_exceptions
	.eabi_attribute	23, 1	@ Tag_ABI_FP_number_model
	.eabi_attribute	24, 1	@ Tag_ABI_align_needed
	.eabi_attribute	25, 1	@ Tag_ABI_align_preserved
	.eabi_attribute	38, 1	@ Tag_ABI_FP_16bit_format
	.eabi_attribute	18, 2	@ Tag_ABI_PCS_wchar_t
	.eabi_attribute	26, 1	@ Tag_ABI_enum_size
	.eabi_attribute	14, 0	@ Tag_ABI_PCS_R9_use
	.file	"gd32e23x_syscfg.c"
	.file	1 "C:\\Users\\13728\\Desktop\\general igniter\\Project" "../Basic/Include\\gd32e23x_rcu.h"
	.file	2 "C:\\Users\\13728\\Desktop\\general igniter\\Project" "../CMSIS/Include\\gd32e23x.h"
	.file	3 "D:\\ProgramFile\\Keil5\\ARM\\ARMCLANG\\Bin\\..\\include" "stdint.h"
	.section	.text.syscfg_deinit,"ax",%progbits
	.hidden	syscfg_deinit           @ -- Begin function syscfg_deinit
	.globl	syscfg_deinit
	.p2align	1
	.type	syscfg_deinit,%function
	.code	16                      @ @syscfg_deinit
	.thumb_func
syscfg_deinit:
.Lfunc_begin0:
	.file	4 "C:\\Users\\13728\\Desktop\\general igniter\\Project" "../Basic/Source/gd32e23x_syscfg.c"
	.loc	4 46 0                  @ ../Basic/Source/gd32e23x_syscfg.c:46:0
	.fnstart
	.cfi_sections .debug_frame
	.cfi_startproc
@ %bb.0:
	.save	{r7, lr}
	push	{r7, lr}
	.cfi_def_cfa_offset 8
	.cfi_offset lr, -4
	.cfi_offset r7, -8
.Ltmp0:
	.loc	4 47 5 prologue_end     @ ../Basic/Source/gd32e23x_syscfg.c:47:5
	movw	r0, #768
	bl	rcu_periph_reset_enable
	.loc	4 48 5                  @ ../Basic/Source/gd32e23x_syscfg.c:48:5
	movw	r0, #768
	pop	{r7}
	pop	{r1}
	mov	lr, r1
	b	rcu_periph_reset_disable
.Ltmp1:
.Lfunc_end0:
	.size	syscfg_deinit, .Lfunc_end0-syscfg_deinit
	.cfi_endproc
	.cantunwind
	.fnend
                                        @ -- End function
	.section	.text.syscfg_dma_remap_enable,"ax",%progbits
	.hidden	syscfg_dma_remap_enable @ -- Begin function syscfg_dma_remap_enable
	.globl	syscfg_dma_remap_enable
	.p2align	2
	.type	syscfg_dma_remap_enable,%function
	.code	16                      @ @syscfg_dma_remap_enable
	.thumb_func
syscfg_dma_remap_enable:
.Lfunc_begin1:
	.loc	4 64 0                  @ ../Basic/Source/gd32e23x_syscfg.c:64:0
	.fnstart
	.cfi_startproc
@ %bb.0:
	@DEBUG_VALUE: syscfg_dma_remap_enable:syscfg_dma_remap <- $r0
	@DEBUG_VALUE: syscfg_dma_remap_enable:syscfg_dma_remap <- $r0
	ldr	r1, __arm_cp.1_0
.Ltmp2:
	.loc	4 65 17 prologue_end    @ ../Basic/Source/gd32e23x_syscfg.c:65:17
	ldr	r2, [r1]
	orrs	r2, r0
	str	r2, [r1]
	.loc	4 66 1                  @ ../Basic/Source/gd32e23x_syscfg.c:66:1
	bx	lr
.Ltmp3:
	.p2align	2
@ %bb.1:
	.loc	4 0 1 is_stmt 0         @ ../Basic/Source/gd32e23x_syscfg.c:0:1
__arm_cp.1_0:
	.long	1073807360              @ 0x40010000
.Lcpi_end0:
	.size	__arm_cp.1_0, .Lcpi_end0-__arm_cp.1_0
.Lfunc_end1:
	.size	syscfg_dma_remap_enable, .Lfunc_end1-syscfg_dma_remap_enable
	.cfi_endproc
	.cantunwind
	.fnend
                                        @ -- End function
	.section	.text.syscfg_dma_remap_disable,"ax",%progbits
	.hidden	syscfg_dma_remap_disable @ -- Begin function syscfg_dma_remap_disable
	.globl	syscfg_dma_remap_disable
	.p2align	2
	.type	syscfg_dma_remap_disable,%function
	.code	16                      @ @syscfg_dma_remap_disable
	.thumb_func
syscfg_dma_remap_disable:
.Lfunc_begin2:
	.loc	4 81 0 is_stmt 1        @ ../Basic/Source/gd32e23x_syscfg.c:81:0
	.fnstart
	.cfi_startproc
@ %bb.0:
	@DEBUG_VALUE: syscfg_dma_remap_disable:syscfg_dma_remap <- $r0
	@DEBUG_VALUE: syscfg_dma_remap_disable:syscfg_dma_remap <- $r0
	ldr	r1, __arm_cp.2_0
.Ltmp4:
	.loc	4 82 17 prologue_end    @ ../Basic/Source/gd32e23x_syscfg.c:82:17
	ldr	r2, [r1]
	bics	r2, r0
	str	r2, [r1]
	.loc	4 83 1                  @ ../Basic/Source/gd32e23x_syscfg.c:83:1
	bx	lr
.Ltmp5:
	.p2align	2
@ %bb.1:
	.loc	4 0 1 is_stmt 0         @ ../Basic/Source/gd32e23x_syscfg.c:0:1
__arm_cp.2_0:
	.long	1073807360              @ 0x40010000
.Lcpi_end1:
	.size	__arm_cp.2_0, .Lcpi_end1-__arm_cp.2_0
.Lfunc_end2:
	.size	syscfg_dma_remap_disable, .Lfunc_end2-syscfg_dma_remap_disable
	.cfi_endproc
	.cantunwind
	.fnend
                                        @ -- End function
	.section	.text.syscfg_high_current_enable,"ax",%progbits
	.hidden	syscfg_high_current_enable @ -- Begin function syscfg_high_current_enable
	.globl	syscfg_high_current_enable
	.p2align	2
	.type	syscfg_high_current_enable,%function
	.code	16                      @ @syscfg_high_current_enable
	.thumb_func
syscfg_high_current_enable:
.Lfunc_begin3:
	.loc	4 92 0 is_stmt 1        @ ../Basic/Source/gd32e23x_syscfg.c:92:0
	.fnstart
	.cfi_startproc
@ %bb.0:
	movs	r0, #1
	lsls	r0, r0, #19
	ldr	r1, __arm_cp.3_0
.Ltmp6:
	.loc	4 93 17 prologue_end    @ ../Basic/Source/gd32e23x_syscfg.c:93:17
	ldr	r2, [r1]
	orrs	r2, r0
	str	r2, [r1]
	.loc	4 94 1                  @ ../Basic/Source/gd32e23x_syscfg.c:94:1
	bx	lr
.Ltmp7:
	.p2align	2
@ %bb.1:
	.loc	4 0 1 is_stmt 0         @ ../Basic/Source/gd32e23x_syscfg.c:0:1
__arm_cp.3_0:
	.long	1073807360              @ 0x40010000
.Lcpi_end2:
	.size	__arm_cp.3_0, .Lcpi_end2-__arm_cp.3_0
.Lfunc_end3:
	.size	syscfg_high_current_enable, .Lfunc_end3-syscfg_high_current_enable
	.cfi_endproc
	.cantunwind
	.fnend
                                        @ -- End function
	.section	.text.syscfg_high_current_disable,"ax",%progbits
	.hidden	syscfg_high_current_disable @ -- Begin function syscfg_high_current_disable
	.globl	syscfg_high_current_disable
	.p2align	2
	.type	syscfg_high_current_disable,%function
	.code	16                      @ @syscfg_high_current_disable
	.thumb_func
syscfg_high_current_disable:
.Lfunc_begin4:
	.loc	4 103 0 is_stmt 1       @ ../Basic/Source/gd32e23x_syscfg.c:103:0
	.fnstart
	.cfi_startproc
@ %bb.0:
	movs	r0, #1
	lsls	r0, r0, #19
	ldr	r1, __arm_cp.4_0
.Ltmp8:
	.loc	4 104 17 prologue_end   @ ../Basic/Source/gd32e23x_syscfg.c:104:17
	ldr	r2, [r1]
	bics	r2, r0
	str	r2, [r1]
	.loc	4 105 1                 @ ../Basic/Source/gd32e23x_syscfg.c:105:1
	bx	lr
.Ltmp9:
	.p2align	2
@ %bb.1:
	.loc	4 0 1 is_stmt 0         @ ../Basic/Source/gd32e23x_syscfg.c:0:1
__arm_cp.4_0:
	.long	1073807360              @ 0x40010000
.Lcpi_end3:
	.size	__arm_cp.4_0, .Lcpi_end3-__arm_cp.4_0
.Lfunc_end4:
	.size	syscfg_high_current_disable, .Lfunc_end4-syscfg_high_current_disable
	.cfi_endproc
	.cantunwind
	.fnend
                                        @ -- End function
	.section	.text.syscfg_exti_line_config,"ax",%progbits
	.hidden	syscfg_exti_line_config @ -- Begin function syscfg_exti_line_config
	.globl	syscfg_exti_line_config
	.p2align	2
	.type	syscfg_exti_line_config,%function
	.code	16                      @ @syscfg_exti_line_config
	.thumb_func
syscfg_exti_line_config:
.Lfunc_begin5:
	.loc	4 118 0 is_stmt 1       @ ../Basic/Source/gd32e23x_syscfg.c:118:0
	.fnstart
	.cfi_startproc
@ %bb.0:
	@DEBUG_VALUE: syscfg_exti_line_config:exti_port <- $r0
	@DEBUG_VALUE: syscfg_exti_line_config:exti_port <- $r0
	@DEBUG_VALUE: syscfg_exti_line_config:exti_pin <- $r1
	@DEBUG_VALUE: syscfg_exti_line_config:exti_pin <- $r1
	.save	{r4, lr}
	push	{r4, lr}
	.cfi_def_cfa_offset 8
	.cfi_offset lr, -4
	.cfi_offset r4, -8
.Ltmp10:
	@DEBUG_VALUE: syscfg_exti_line_config:config_exti_mask <- undef
	@DEBUG_VALUE: syscfg_exti_line_config:clear_exti_mask <- undef
	.loc	4 122 21 prologue_end   @ ../Basic/Source/gd32e23x_syscfg.c:122:21
	lsrs	r2, r1, #2
	.loc	4 122 5 is_stmt 0       @ ../Basic/Source/gd32e23x_syscfg.c:122:5
	cmp	r2, #3
	bhi	.LBB5_7
.Ltmp11:
@ %bb.1:
	@DEBUG_VALUE: syscfg_exti_line_config:exti_pin <- $r1
	@DEBUG_VALUE: syscfg_exti_line_config:exti_port <- $r0
	.loc	4 0 5                   @ ../Basic/Source/gd32e23x_syscfg.c:0:5
	lsls	r1, r1, #30
.Ltmp12:
	lsrs	r1, r1, #28
	lsls	r0, r1
.Ltmp13:
	@DEBUG_VALUE: syscfg_exti_line_config:config_exti_mask <- $r0
	movs	r3, #15
	lsls	r3, r1
	mvns	r1, r3
.Ltmp14:
	@DEBUG_VALUE: syscfg_exti_line_config:clear_exti_mask <- $r1
	lsls	r3, r2, #2
	adr	r4, .LJTI5_0
	adds	r3, r4, r3
	mov	pc, r3
.Ltmp15:
@ %bb.2:
	.p2align	2
.LJTI5_0:
	b.w	.LBB5_3
	b.w	.LBB5_4
	b.w	.LBB5_5
	b.w	.LBB5_6
.LBB5_3:
.Ltmp16:
	@DEBUG_VALUE: syscfg_exti_line_config:clear_exti_mask <- $r1
	@DEBUG_VALUE: syscfg_exti_line_config:config_exti_mask <- $r0
	ldr	r2, __arm_cp.5_0
.Ltmp17:
	.loc	4 125 24 is_stmt 1      @ ../Basic/Source/gd32e23x_syscfg.c:125:24
	ldr	r3, [r2]
	ands	r3, r1
	str	r3, [r2]
	.loc	4 127 24                @ ../Basic/Source/gd32e23x_syscfg.c:127:24
	ldr	r1, [r2]
.Ltmp18:
	orrs	r1, r0
	str	r1, [r2]
.Ltmp19:
	.loc	4 150 1                 @ ../Basic/Source/gd32e23x_syscfg.c:150:1
	pop	{r4, pc}
.Ltmp20:
.LBB5_4:
	@DEBUG_VALUE: syscfg_exti_line_config:clear_exti_mask <- $r1
	@DEBUG_VALUE: syscfg_exti_line_config:config_exti_mask <- $r0
	.loc	4 0 1 is_stmt 0         @ ../Basic/Source/gd32e23x_syscfg.c:0:1
	ldr	r2, __arm_cp.5_0
.Ltmp21:
	.loc	4 131 24 is_stmt 1      @ ../Basic/Source/gd32e23x_syscfg.c:131:24
	ldr	r3, [r2, #4]
	ands	r3, r1
	str	r3, [r2, #4]
	.loc	4 133 24                @ ../Basic/Source/gd32e23x_syscfg.c:133:24
	ldr	r1, [r2, #4]
.Ltmp22:
	orrs	r1, r0
	str	r1, [r2, #4]
.Ltmp23:
	.loc	4 150 1                 @ ../Basic/Source/gd32e23x_syscfg.c:150:1
	pop	{r4, pc}
.Ltmp24:
.LBB5_5:
	@DEBUG_VALUE: syscfg_exti_line_config:clear_exti_mask <- $r1
	@DEBUG_VALUE: syscfg_exti_line_config:config_exti_mask <- $r0
	.loc	4 0 1 is_stmt 0         @ ../Basic/Source/gd32e23x_syscfg.c:0:1
	ldr	r2, __arm_cp.5_0
.Ltmp25:
	.loc	4 137 24 is_stmt 1      @ ../Basic/Source/gd32e23x_syscfg.c:137:24
	ldr	r3, [r2, #8]
	ands	r3, r1
	str	r3, [r2, #8]
	.loc	4 139 24                @ ../Basic/Source/gd32e23x_syscfg.c:139:24
	ldr	r1, [r2, #8]
.Ltmp26:
	orrs	r1, r0
	str	r1, [r2, #8]
.Ltmp27:
	.loc	4 150 1                 @ ../Basic/Source/gd32e23x_syscfg.c:150:1
	pop	{r4, pc}
.Ltmp28:
.LBB5_6:
	@DEBUG_VALUE: syscfg_exti_line_config:clear_exti_mask <- $r1
	@DEBUG_VALUE: syscfg_exti_line_config:config_exti_mask <- $r0
	.loc	4 0 1 is_stmt 0         @ ../Basic/Source/gd32e23x_syscfg.c:0:1
	ldr	r2, __arm_cp.5_0
.Ltmp29:
	.loc	4 143 24 is_stmt 1      @ ../Basic/Source/gd32e23x_syscfg.c:143:24
	ldr	r3, [r2, #12]
	ands	r3, r1
	str	r3, [r2, #12]
	.loc	4 145 24                @ ../Basic/Source/gd32e23x_syscfg.c:145:24
	ldr	r1, [r2, #12]
.Ltmp30:
	orrs	r1, r0
	str	r1, [r2, #12]
.Ltmp31:
.LBB5_7:
	.loc	4 150 1                 @ ../Basic/Source/gd32e23x_syscfg.c:150:1
	pop	{r4, pc}
.Ltmp32:
	.p2align	2
@ %bb.8:
	.loc	4 0 1 is_stmt 0         @ ../Basic/Source/gd32e23x_syscfg.c:0:1
__arm_cp.5_0:
	.long	1073807368              @ 0x40010008
.Lcpi_end4:
	.size	__arm_cp.5_0, .Lcpi_end4-__arm_cp.5_0
.Lfunc_end5:
	.size	syscfg_exti_line_config, .Lfunc_end5-syscfg_exti_line_config
	.cfi_endproc
	.cantunwind
	.fnend
                                        @ -- End function
	.section	.text.syscfg_lock_config,"ax",%progbits
	.hidden	syscfg_lock_config      @ -- Begin function syscfg_lock_config
	.globl	syscfg_lock_config
	.p2align	2
	.type	syscfg_lock_config,%function
	.code	16                      @ @syscfg_lock_config
	.thumb_func
syscfg_lock_config:
.Lfunc_begin6:
	.loc	4 162 0 is_stmt 1       @ ../Basic/Source/gd32e23x_syscfg.c:162:0
	.fnstart
	.cfi_startproc
@ %bb.0:
	@DEBUG_VALUE: syscfg_lock_config:syscfg_lock <- $r0
	@DEBUG_VALUE: syscfg_lock_config:syscfg_lock <- $r0
	ldr	r1, __arm_cp.6_0
.Ltmp33:
	.loc	4 163 17 prologue_end   @ ../Basic/Source/gd32e23x_syscfg.c:163:17
	ldr	r2, [r1]
	orrs	r2, r0
	str	r2, [r1]
	.loc	4 164 1                 @ ../Basic/Source/gd32e23x_syscfg.c:164:1
	bx	lr
.Ltmp34:
	.p2align	2
@ %bb.1:
	.loc	4 0 1 is_stmt 0         @ ../Basic/Source/gd32e23x_syscfg.c:0:1
__arm_cp.6_0:
	.long	1073807384              @ 0x40010018
.Lcpi_end5:
	.size	__arm_cp.6_0, .Lcpi_end5-__arm_cp.6_0
.Lfunc_end6:
	.size	syscfg_lock_config, .Lfunc_end6-syscfg_lock_config
	.cfi_endproc
	.cantunwind
	.fnend
                                        @ -- End function
	.section	.text.irq_latency_set,"ax",%progbits
	.hidden	irq_latency_set         @ -- Begin function irq_latency_set
	.globl	irq_latency_set
	.p2align	2
	.type	irq_latency_set,%function
	.code	16                      @ @irq_latency_set
	.thumb_func
irq_latency_set:
.Lfunc_begin7:
	.loc	4 173 0 is_stmt 1       @ ../Basic/Source/gd32e23x_syscfg.c:173:0
	.fnstart
	.cfi_startproc
@ %bb.0:
	@DEBUG_VALUE: irq_latency_set:irq_latency <- $r0
	@DEBUG_VALUE: irq_latency_set:irq_latency <- $r0
	ldr	r1, __arm_cp.7_0
.Ltmp35:
	.loc	4 176 11 prologue_end   @ ../Basic/Source/gd32e23x_syscfg.c:176:11
	ldr	r2, [r1]
	movs	r3, #255
	.loc	4 176 30 is_stmt 0      @ ../Basic/Source/gd32e23x_syscfg.c:176:30
	bics	r2, r3
.Ltmp36:
	@DEBUG_VALUE: irq_latency_set:reg <- $r2
	.loc	4 177 9 is_stmt 1       @ ../Basic/Source/gd32e23x_syscfg.c:177:9
	adds	r0, r2, r0
.Ltmp37:
	@DEBUG_VALUE: irq_latency_set:reg <- $r0
	.loc	4 179 24                @ ../Basic/Source/gd32e23x_syscfg.c:179:24
	str	r0, [r1]
	.loc	4 180 1                 @ ../Basic/Source/gd32e23x_syscfg.c:180:1
	bx	lr
.Ltmp38:
	.p2align	2
@ %bb.1:
	.loc	4 0 1 is_stmt 0         @ ../Basic/Source/gd32e23x_syscfg.c:0:1
__arm_cp.7_0:
	.long	1073807616              @ 0x40010100
.Lcpi_end6:
	.size	__arm_cp.7_0, .Lcpi_end6-__arm_cp.7_0
.Lfunc_end7:
	.size	irq_latency_set, .Lfunc_end7-irq_latency_set
	.cfi_endproc
	.cantunwind
	.fnend
                                        @ -- End function
	.section	.text.syscfg_flag_get,"ax",%progbits
	.hidden	syscfg_flag_get         @ -- Begin function syscfg_flag_get
	.globl	syscfg_flag_get
	.p2align	2
	.type	syscfg_flag_get,%function
	.code	16                      @ @syscfg_flag_get
	.thumb_func
syscfg_flag_get:
.Lfunc_begin8:
	.loc	4 189 0 is_stmt 1       @ ../Basic/Source/gd32e23x_syscfg.c:189:0
	.fnstart
	.cfi_startproc
@ %bb.0:
	@DEBUG_VALUE: syscfg_flag_get:syscfg_flag <- $r0
	@DEBUG_VALUE: syscfg_flag_get:syscfg_flag <- $r0
	ldr	r1, __arm_cp.8_0
.Ltmp39:
	.loc	4 190 9 prologue_end    @ ../Basic/Source/gd32e23x_syscfg.c:190:9
	ldr	r1, [r1]
	.loc	4 190 21 is_stmt 0      @ ../Basic/Source/gd32e23x_syscfg.c:190:21
	ands	r1, r0
	.loc	4 190 36                @ ../Basic/Source/gd32e23x_syscfg.c:190:36
	subs	r0, r1, #1
.Ltmp40:
	sbcs	r1, r0
.Ltmp41:
	.loc	4 195 1 is_stmt 1       @ ../Basic/Source/gd32e23x_syscfg.c:195:1
	mov	r0, r1
	bx	lr
.Ltmp42:
	.p2align	2
@ %bb.1:
	.loc	4 0 1 is_stmt 0         @ ../Basic/Source/gd32e23x_syscfg.c:0:1
__arm_cp.8_0:
	.long	1073807384              @ 0x40010018
.Lcpi_end7:
	.size	__arm_cp.8_0, .Lcpi_end7-__arm_cp.8_0
.Lfunc_end8:
	.size	syscfg_flag_get, .Lfunc_end8-syscfg_flag_get
	.cfi_endproc
	.cantunwind
	.fnend
                                        @ -- End function
	.section	.text.syscfg_flag_clear,"ax",%progbits
	.hidden	syscfg_flag_clear       @ -- Begin function syscfg_flag_clear
	.globl	syscfg_flag_clear
	.p2align	2
	.type	syscfg_flag_clear,%function
	.code	16                      @ @syscfg_flag_clear
	.thumb_func
syscfg_flag_clear:
.Lfunc_begin9:
	.loc	4 205 0 is_stmt 1       @ ../Basic/Source/gd32e23x_syscfg.c:205:0
	.fnstart
	.cfi_startproc
@ %bb.0:
	@DEBUG_VALUE: syscfg_flag_clear:syscfg_flag <- $r0
	@DEBUG_VALUE: syscfg_flag_clear:syscfg_flag <- $r0
	ldr	r1, __arm_cp.9_0
.Ltmp43:
	.loc	4 206 17 prologue_end   @ ../Basic/Source/gd32e23x_syscfg.c:206:17
	ldr	r2, [r1]
	orrs	r2, r0
	str	r2, [r1]
	.loc	4 207 1                 @ ../Basic/Source/gd32e23x_syscfg.c:207:1
	bx	lr
.Ltmp44:
	.p2align	2
@ %bb.1:
	.loc	4 0 1 is_stmt 0         @ ../Basic/Source/gd32e23x_syscfg.c:0:1
__arm_cp.9_0:
	.long	1073807384              @ 0x40010018
.Lcpi_end8:
	.size	__arm_cp.9_0, .Lcpi_end8-__arm_cp.9_0
.Lfunc_end9:
	.size	syscfg_flag_clear, .Lfunc_end9-syscfg_flag_clear
	.cfi_endproc
	.cantunwind
	.fnend
                                        @ -- End function
	.section	".note.GNU-stack","",%progbits
	.eabi_attribute	30, 4	@ Tag_ABI_optimization_goals
	.ARM_attribute	16, 1	@ Tag_AV_eba