	.text
	.syntax unified
	.eabi_attribute	67, "2.09"	@ Tag_conformance
	.cpu	cortex-m23
	.eabi_attribute	6, 16	@ Tag_CPU_arch
	.eabi_attribute	7, 77	@ Tag_CPU_arch_profile
	.eabi_attribute	8, 0	@ Tag_ARM_ISA_use
	.eabi_attribute	9, 3	@ Tag_THUMB_ISA_use
	.eabi_attribute	34, 0	@ Tag_CPU_unaligned_access
	.eabi_attribute	17, 1	@ Tag_ABI_PCS_GOT_use
	.eabi_attribute	20, 2	@ Tag_ABI_FP_denormal
	.eabi_attribute	21, 0	@ Tag_ABI_FP_exceptions
	.eabi_attribute	23, 1	@ Tag_ABI_FP_number_model
	.eabi_attribute	24, 1	@ Tag_ABI_align_needed
	.eabi_attribute	25, 1	@ Tag_ABI_align_preserved
	.eabi_attribute	38, 1	@ Tag_ABI_FP_16bit_format
	.eabi_attribute	18, 2	@ Tag_ABI_PCS_wchar_t
	.eabi_attribute	26, 1	@ Tag_ABI_enum_size
	.eabi_attribute	14, 0	@ Tag_ABI_PCS_R9_use
	.file	"gd32e23x_dma.c"
	.file	1 "C:\\Users\\13728\\Desktop\\general igniter\\Project" "../Basic/Include\\gd32e23x_dma.h"
	.file	2 "C:\\Users\\13728\\Desktop\\general igniter\\Project" "../CMSIS/Include\\gd32e23x.h"
	.file	3 "D:\\ProgramFile\\Keil5\\ARM\\ARMCLANG\\Bin\\..\\include" "stdint.h"
	.section	.text.dma_deinit,"ax",%progbits
	.hidden	dma_deinit              @ -- Begin function dma_deinit
	.globl	dma_deinit
	.p2align	2
	.type	dma_deinit,%function
	.code	16                      @ @dma_deinit
	.thumb_func
dma_deinit:
.Lfunc_begin0:
	.file	4 "C:\\Users\\13728\\Desktop\\general igniter\\Project" "../Basic/Source/gd32e23x_dma.c"
	.loc	4 48 0                  @ ../Basic/Source/gd32e23x_dma.c:48:0
	.fnstart
	.cfi_sections .debug_frame
	.cfi_startproc
@ %bb.0:
	@DEBUG_VALUE: dma_deinit:channelx <- $r0
	@DEBUG_VALUE: dma_deinit:channelx <- $r0
	.save	{r4, lr}
	push	{r4, lr}
	.cfi_def_cfa_offset 8
	.cfi_offset lr, -4
	.cfi_offset r4, -8
	movs	r2, #20
.Ltmp0:
	.loc	4 50 5 prologue_end     @ ../Basic/Source/gd32e23x_dma.c:50:5
	muls	r2, r0, r2
	ldr	r1, __arm_cp.0_0
	adds	r2, r2, r1
	.loc	4 50 25 is_stmt 0       @ ../Basic/Source/gd32e23x_dma.c:50:25
	ldr	r3, [r2, #4]
	movs	r4, #1
	bics	r3, r4
	str	r3, [r2, #4]
	movs	r3, #0
	.loc	4 52 25 is_stmt 1       @ ../Basic/Source/gd32e23x_dma.c:52:25
	str	r3, [r2, #4]
	.loc	4 53 25                 @ ../Basic/Source/gd32e23x_dma.c:53:25
	str	r3, [r2, #8]
	.loc	4 54 27                 @ ../Basic/Source/gd32e23x_dma.c:54:27
	str	r3, [r2, #12]
	.loc	4 55 27                 @ ../Basic/Source/gd32e23x_dma.c:55:27
	str	r3, [r2, #16]
	.loc	4 56 17                 @ ../Basic/Source/gd32e23x_dma.c:56:17
	lsls	r0, r0, #2
.Ltmp1:
	.loc	4 0 17 is_stmt 0        @ ../Basic/Source/gd32e23x_dma.c:0:17
	movs	r2, #15
	.loc	4 56 17                 @ ../Basic/Source/gd32e23x_dma.c:56:17
	lsls	r2, r0
	.loc	4 56 14                 @ ../Basic/Source/gd32e23x_dma.c:56:14
	ldr	r0, [r1]
	orrs	r0, r2
	str	r0, [r1]
	.loc	4 57 1 is_stmt 1        @ ../Basic/Source/gd32e23x_dma.c:57:1
	pop	{r4, pc}
.Ltmp2:
	.p2align	2
@ %bb.1:
	.loc	4 0 1 is_stmt 0         @ ../Basic/Source/gd32e23x_dma.c:0:1
__arm_cp.0_0:
	.long	1073872900              @ 0x40020004
.Lcpi_end0:
	.size	__arm_cp.0_0, .Lcpi_end0-__arm_cp.0_0
.Lfunc_end0:
	.size	dma_deinit, .Lfunc_end0-dma_deinit
	.cfi_endproc
	.cantunwind
	.fnend
                                        @ -- End function
	.section	.text.dma_struct_para_init,"ax",%progbits
	.hidden	dma_struct_para_init    @ -- Begin function dma_struct_para_init
	.globl	dma_struct_para_init
	.p2align	1
	.type	dma_struct_para_init,%function
	.code	16                      @ @dma_struct_para_init
	.thumb_func
dma_struct_para_init:
.Lfunc_begin1:
	.loc	4 66 0 is_stmt 1        @ ../Basic/Source/gd32e23x_dma.c:66:0
	.fnstart
	.cfi_startproc
@ %bb.0:
	@DEBUG_VALUE: dma_struct_para_init:init_struct <- $r0
	@DEBUG_VALUE: dma_struct_para_init:init_struct <- $r0
	.save	{r7, lr}
	push	{r7, lr}
	.cfi_def_cfa_offset 8
	.cfi_offset lr, -4
	.cfi_offset r7, -8
	movs	r1, #27
	@DEBUG_VALUE: dma_struct_para_init:init_struct <- $r0
.Ltmp3:
	.loc	4 69 31 prologue_end    @ ../Basic/Source/gd32e23x_dma.c:69:31
	bl	__aeabi_memclr4
.Ltmp4:
	.loc	4 77 1                  @ ../Basic/Source/gd32e23x_dma.c:77:1
	pop	{r7, pc}
.Ltmp5:
.Lfunc_end1:
	.size	dma_struct_para_init, .Lfunc_end1-dma_struct_para_init
	.cfi_endproc
	.cantunwind
	.fnend
                                        @ -- End function
	.section	.text.dma_init,"ax",%progbits
	.hidden	dma_init                @ -- Begin function dma_init
	.globl	dma_init
	.p2align	2
	.type	dma_init,%function
	.code	16                      @ @dma_init
	.thumb_func
dma_init:
.Lfunc_begin2:
	.loc	4 98 0                  @ ../Basic/Source/gd32e23x_dma.c:98:0
	.fnstart
	.cfi_startproc
@ %bb.0:
	@DEBUG_VALUE: dma_init:channelx <- $r0
	@DEBUG_VALUE: dma_init:channelx <- $r0
	@DEBUG_VALUE: dma_init:init_struct <- $r1
	@DEBUG_VALUE: dma_init:init_struct <- $r1
	@DEBUG_VALUE: dma_channel_disable:channelx <- undef
	.save	{r4, r5, r7, lr}
	push	{r4, r5, r7, lr}
	.cfi_def_cfa_offset 16
	.cfi_offset lr, -4
	.cfi_offset r7, -8
	.cfi_offset r5, -12
	.cfi_offset r4, -16
	movs	r2, #20
.Ltmp6:
	.loc	4 215 5 prologue_end    @ ../Basic/Source/gd32e23x_dma.c:215:5
	muls	r2, r0, r2
	ldr	r0, __arm_cp.2_0
.Ltmp7:
	.loc	4 215 25 is_stmt 0      @ ../Basic/Source/gd32e23x_dma.c:215:25
	ldr	r3, [r2, r0]
	movs	r4, #1
	bics	r3, r4
	str	r3, [r2, r0]
	.loc	4 215 5                 @ ../Basic/Source/gd32e23x_dma.c:215:5
	adds	r3, r2, r0
.Ltmp8:
	.loc	4 104 42 is_stmt 1      @ ../Basic/Source/gd32e23x_dma.c:104:42
	ldr	r4, [r1]
	.loc	4 104 27 is_stmt 0      @ ../Basic/Source/gd32e23x_dma.c:104:27
	str	r4, [r3, #8]
	.loc	4 107 42 is_stmt 1      @ ../Basic/Source/gd32e23x_dma.c:107:42
	ldr	r4, [r1, #8]
	.loc	4 107 27 is_stmt 0      @ ../Basic/Source/gd32e23x_dma.c:107:27
	str	r4, [r3, #12]
	.loc	4 110 41 is_stmt 1      @ ../Basic/Source/gd32e23x_dma.c:110:41
	ldrh	r4, [r1, #16]
	.loc	4 110 25 is_stmt 0      @ ../Basic/Source/gd32e23x_dma.c:110:25
	str	r4, [r3, #4]
	.loc	4 113 11 is_stmt 1      @ ../Basic/Source/gd32e23x_dma.c:113:11
	ldr	r3, [r2, r0]
.Ltmp9:
	@DEBUG_VALUE: dma_init:ctl <- $r3
	.loc	4 0 11 is_stmt 0        @ ../Basic/Source/gd32e23x_dma.c:0:11
	movw	r4, #16128
	.loc	4 114 9 is_stmt 1       @ ../Basic/Source/gd32e23x_dma.c:114:9
	bics	r3, r4
.Ltmp10:
	@DEBUG_VALUE: dma_init:ctl <- $r3
	.loc	4 115 26                @ ../Basic/Source/gd32e23x_dma.c:115:26
	ldr	r4, [r1, #4]
	.loc	4 115 39 is_stmt 0      @ ../Basic/Source/gd32e23x_dma.c:115:39
	orrs	r4, r3
	.loc	4 115 54                @ ../Basic/Source/gd32e23x_dma.c:115:54
	ldr	r3, [r1, #12]
.Ltmp11:
	.loc	4 115 67                @ ../Basic/Source/gd32e23x_dma.c:115:67
	orrs	r3, r4
	.loc	4 115 82                @ ../Basic/Source/gd32e23x_dma.c:115:82
	ldr	r4, [r1, #20]
	.loc	4 115 9                 @ ../Basic/Source/gd32e23x_dma.c:115:9
	orrs	r4, r3
.Ltmp12:
	@DEBUG_VALUE: dma_init:ctl <- $r4
	.loc	4 116 25 is_stmt 1      @ ../Basic/Source/gd32e23x_dma.c:116:25
	str	r4, [r2, r0]
.Ltmp13:
	.loc	4 0 0 is_stmt 0         @ ../Basic/Source/gd32e23x_dma.c:0:0
	ldr	r3, [r2, r0]
	movs	r4, #64
.Ltmp14:
	.loc	4 119 51 is_stmt 1      @ ../Basic/Source/gd32e23x_dma.c:119:51
	ldrb	r5, [r1, #24]
.Ltmp15:
	.loc	4 119 8 is_stmt 0       @ ../Basic/Source/gd32e23x_dma.c:119:8
	cmp	r5, #1
	beq	.LBB2_2
.Ltmp16:
@ %bb.1:
	@DEBUG_VALUE: dma_init:init_struct <- $r1
	.loc	4 0 8                   @ ../Basic/Source/gd32e23x_dma.c:0:8
	bics	r3, r4
	b	.LBB2_3
.Ltmp17:
.LBB2_2:
	@DEBUG_VALUE: dma_init:init_struct <- $r1
	orrs	r3, r4
.Ltmp18:
.LBB2_3:
	@DEBUG_VALUE: dma_init:init_struct <- $r1
	str	r3, [r2, r0]
.Ltmp19:
	ldr	r3, [r2, r0]
	movs	r4, #128
	.loc	4 126 51 is_stmt 1      @ ../Basic/Source/gd32e23x_dma.c:126:51
	ldrb	r5, [r1, #25]
.Ltmp20:
	.loc	4 126 8 is_stmt 0       @ ../Basic/Source/gd32e23x_dma.c:126:8
	cmp	r5, #1
	beq	.LBB2_5
.Ltmp21:
@ %bb.4:
	@DEBUG_VALUE: dma_init:init_struct <- $r1
	.loc	4 0 8                   @ ../Basic/Source/gd32e23x_dma.c:0:8
	bics	r3, r4
	b	.LBB2_6
.Ltmp22:
.LBB2_5:
	@DEBUG_VALUE: dma_init:init_struct <- $r1
	orrs	r3, r4
.Ltmp23:
.LBB2_6:
	@DEBUG_VALUE: dma_init:init_struct <- $r1
	str	r3, [r2, r0]
.Ltmp24:
	ldr	r3, [r2, r0]
	movs	r4, #16
	.loc	4 133 49 is_stmt 1      @ ../Basic/Source/gd32e23x_dma.c:133:49
	ldrb	r1, [r1, #26]
.Ltmp25:
	.loc	4 133 8 is_stmt 0       @ ../Basic/Source/gd32e23x_dma.c:133:8
	cbz	r1, .LBB2_8
@ %bb.7:
	.loc	4 0 8                   @ ../Basic/Source/gd32e23x_dma.c:0:8
	orrs	r3, r4
	b	.LBB2_9
.LBB2_8:
	bics	r3, r4
.LBB2_9:
.Ltmp26:
	str	r3, [r2, r0]
.Ltmp27:
	.loc	4 138 1 is_stmt 1       @ ../Basic/Source/gd32e23x_dma.c:138:1
	pop	{r4, r5, r7, pc}
.Ltmp28:
	.p2align	2
@ %bb.10:
	.loc	4 0 1 is_stmt 0         @ ../Basic/Source/gd32e23x_dma.c:0:1
__arm_cp.2_0:
	.long	1073872904              @ 0x40020008
.Lcpi_end1:
	.size	__arm_cp.2_0, .Lcpi_end1-__arm_cp.2_0
.Lfunc_end2:
	.size	dma_init, .Lfunc_end2-dma_init
	.cfi_endproc
	.cantunwind
	.fnend
                                        @ -- End function
	.section	.text.dma_channel_disable,"ax",%progbits
	.hidden	dma_channel_disable     @ -- Begin function dma_channel_disable
	.globl	dma_channel_disable
	.p2align	2
	.type	dma_channel_disable,%function
	.code	16                      @ @dma_channel_disable
	.thumb_func
dma_channel_disable:
.Lfunc_begin3:
	.loc	4 214 0 is_stmt 1       @ ../Basic/Source/gd32e23x_dma.c:214:0
	.fnstart
	.cfi_startproc
@ %bb.0:
	@DEBUG_VALUE: dma_channel_disable:channelx <- $r0
	@DEBUG_VALUE: dma_channel_disable:channelx <- $r0
	movs	r1, #20
.Ltmp29:
	.loc	4 215 5 prologue_end    @ ../Basic/Source/gd32e23x_dma.c:215:5
	muls	r1, r0, r1
	ldr	r0, __arm_cp.3_0
.Ltmp30:
	.loc	4 215 25 is_stmt 0      @ ../Basic/Source/gd32e23x_dma.c:215:25
	ldr	r2, [r1, r0]
	movs	r3, #1
	bics	r2, r3
	str	r2, [r1, r0]
	.loc	4 216 1 is_stmt 1       @ ../Basic/Source/gd32e23x_dma.c:216:1
	bx	lr
.Ltmp31:
	.p2align	2
@ %bb.1:
	.loc	4 0 1 is_stmt 0         @ ../Basic/Source/gd32e23x_dma.c:0:1
__arm_cp.3_0:
	.long	1073872904              @ 0x40020008
.Lcpi_end2:
	.size	__arm_cp.3_0, .Lcpi_end2-__arm_cp.3_0
.Lfunc_end3:
	.size	dma_channel_disable, .Lfunc_end3-dma_channel_disable
	.cfi_endproc
	.cantunwind
	.fnend
                                        @ -- End function
	.section	.text.dma_circulation_enable,"ax",%progbits
	.hidden	dma_circulation_enable  @ -- Begin function dma_circulation_enable
	.globl	dma_circulation_enable
	.p2align	2
	.type	dma_circulation_enable,%function
	.code	16                      @ @dma_circulation_enable
	.thumb_func
dma_circulation_enable:
.Lfunc_begin4:
	.loc	4 149 0 is_stmt 1       @ ../Basic/Source/gd32e23x_dma.c:149:0
	.fnstart
	.cfi_startproc
@ %bb.0:
	@DEBUG_VALUE: dma_circulation_enable:channelx <- $r0
	@DEBUG_VALUE: dma_circulation_enable:channelx <- $r0
	movs	r1, #20
.Ltmp32:
	.loc	4 150 5 prologue_end    @ ../Basic/Source/gd32e23x_dma.c:150:5
	muls	r1, r0, r1
	ldr	r0, __arm_cp.4_0
.Ltmp33:
	.loc	4 150 25 is_stmt 0      @ ../Basic/Source/gd32e23x_dma.c:150:25
	ldr	r2, [r1, r0]
	movs	r3, #32
	orrs	r3, r2
	str	r3, [r1, r0]
	.loc	4 151 1 is_stmt 1       @ ../Basic/Source/gd32e23x_dma.c:151:1
	bx	lr
.Ltmp34:
	.p2align	2
@ %bb.1:
	.loc	4 0 1 is_stmt 0         @ ../Basic/Source/gd32e23x_dma.c:0:1
__arm_cp.4_0:
	.long	1073872904              @ 0x40020008
.Lcpi_end3:
	.size	__arm_cp.4_0, .Lcpi_end3-__arm_cp.4_0
.Lfunc_end4:
	.size	dma_circulation_enable, .Lfunc_end4-dma_circulation_enable
	.cfi_endproc
	.cantunwind
	.fnend
                                        @ -- End function
	.section	.text.dma_circulation_disable,"ax",%progbits
	.hidden	dma_circulation_disable @ -- Begin function dma_circulation_disable
	.globl	dma_circulation_disable
	.p2align	2
	.type	dma_circulation_disable,%function
	.code	16                      @ @dma_circulation_disable
	.thumb_func
dma_circulation_disable:
.Lfunc_begin5:
	.loc	4 162 0 is_stmt 1       @ ../Basic/Source/gd32e23x_dma.c:162:0
	.fnstart
	.cfi_startproc
@ %bb.0:
	@DEBUG_VALUE: dma_circulation_disable:channelx <- $r0
	@DEBUG_VALUE: dma_circulation_disable:channelx <- $r0
	movs	r1, #20
.Ltmp35:
	.loc	4 163 5 prologue_end    @ ../Basic/Source/gd32e23x_dma.c:163:5
	muls	r1, r0, r1
	ldr	r0, __arm_cp.5_0
.Ltmp36:
	.loc	4 163 25 is_stmt 0      @ ../Basic/Source/gd32e23x_dma.c:163:25
	ldr	r2, [r1, r0]
	movs	r3, #32
	bics	r2, r3
	str	r2, [r1, r0]
	.loc	4 164 1 is_stmt 1       @ ../Basic/Source/gd32e23x_dma.c:164:1
	bx	lr
.Ltmp37:
	.p2align	2
@ %bb.1:
	.loc	4 0 1 is_stmt 0         @ ../Basic/Source/gd32e23x_dma.c:0:1
__arm_cp.5_0:
	.long	1073872904              @ 0x40020008
.Lcpi_end4:
	.size	__arm_cp.5_0, .Lcpi_end4-__arm_cp.5_0
.Lfunc_end5:
	.size	dma_circulation_disable, .Lfunc_end5-dma_circulation_disable
	.cfi_endproc
	.cantunwind
	.fnend
                                        @ -- End function
	.section	.text.dma_memory_to_memory_enable,"ax",%progbits
	.hidden	dma_memory_to_memory_enable @ -- Begin function dma_memory_to_memory_enable
	.globl	dma_memory_to_memory_enable
	.p2align	2
	.type	dma_memory_to_memory_enable,%function
	.code	16                      @ @dma_memory_to_memory_enable
	.thumb_func
dma_memory_to_memory_enable:
.Lfunc_begin6:
	.loc	4 175 0 is_stmt 1       @ ../Basic/Source/gd32e23x_dma.c:175:0
	.fnstart
	.cfi_startproc
@ %bb.0:
	@DEBUG_VALUE: dma_memory_to_memory_enable:channelx <- $r0
	@DEBUG_VALUE: dma_memory_to_memory_enable:channelx <- $r0
	movs	r1, #20
.Ltmp38:
	.loc	4 176 5 prologue_end    @ ../Basic/Source/gd32e23x_dma.c:176:5
	muls	r1, r0, r1
	ldr	r0, __arm_cp.6_0
.Ltmp39:
	.loc	4 176 25 is_stmt 0      @ ../Basic/Source/gd32e23x_dma.c:176:25
	ldr	r2, [r1, r0]
	movw	r3, #16384
	orrs	r3, r2
	str	r3, [r1, r0]
	.loc	4 177 1 is_stmt 1       @ ../Basic/Source/gd32e23x_dma.c:177:1
	bx	lr
.Ltmp40:
	.p2align	2
@ %bb.1:
	.loc	4 0 1 is_stmt 0         @ ../Basic/Source/gd32e23x_dma.c:0:1
__arm_cp.6_0:
	.long	1073872904              @ 0x40020008
.Lcpi_end5:
	.size	__arm_cp.6_0, .Lcpi_end5-__arm_cp.6_0
.Lfunc_end6:
	.size	dma_memory_to_memory_enable, .Lfunc_end6-dma_memory_to_memory_enable
	.cfi_endproc
	.cantunwind
	.fnend
                                        @ -- End function
	.section	.text.dma_memory_to_memory_disable,"ax",%progbits
	.hidden	dma_memory_to_memory_disable @ -- Begin function dma_memory_to_memory_disable
	.globl	dma_memory_to_memory_disable
	.p2align	2
	.type	dma_memory_to_memory_disable,%function
	.code	16                      @ @dma_memory_to_memory_disable
	.thumb_func
dma_memory_to_memory_disable:
.Lfunc_begin7:
	.loc	4 188 0 is_stmt 1       @ ../Basic/Source/gd32e23x_dma.c:188:0
	.fnstart
	.cfi_startproc
@ %bb.0:
	@DEBUG_VALUE: dma_memory_to_memory_disable:channelx <- $r0
	@DEBUG_VALUE: dma_memory_to_memory_disable:channelx <- $r0
	movs	r1, #20
.Ltmp41:
	.loc	4 189 5 prologue_end    @ ../Basic/Source/gd32e23x_dma.c:189:5
	muls	r1, r0, r1
	ldr	r0, __arm_cp.7_0
.Ltmp42:
	.loc	4 189 25 is_stmt 0      @ ../Basic/Source/gd32e23x_dma.c:189:25
	ldr	r2, [r1, r0]
	movw	r3, #16384
	bics	r2, r3
	str	r2, [r1, r0]
	.loc	4 190 1 is_stmt 1       @ ../Basic/Source/gd32e23x_dma.c:190:1
	bx	lr
.Ltmp43:
	.p2align	2
@ %bb.1:
	.loc	4 0 1 is_stmt 0         @ ../Basic/Source/gd32e23x_dma.c:0:1
__arm_cp.7_0:
	.long	1073872904              @ 0x40020008
.Lcpi_end6:
	.size	__arm_cp.7_0, .Lcpi_end6-__arm_cp.7_0
.Lfunc_end7:
	.size	dma_memory_to_memory_disable, .Lfunc_end7-dma_memory_to_memory_disable
	.cfi_endproc
	.cantunwind
	.fnend
                                        @ -- End function
	.section	.text.dma_channel_enable,"ax",%progbits
	.hidden	dma_channel_enable      @ -- Begin function dma_channel_enable
	.globl	dma_channel_enable
	.p2align	2
	.type	dma_channel_enable,%function
	.code	16                      @ @dma_channel_enable
	.thumb_func
dma_channel_enable:
.Lfunc_begin8:
	.loc	4 201 0 is_stmt 1       @ ../Basic/Source/gd32e23x_dma.c:201:0
	.fnstart
	.cfi_startproc
@ %bb.0:
	@DEBUG_VALUE: dma_channel_enable:channelx <- $r0
	@DEBUG_VALUE: dma_channel_enable:channelx <- $r0
	movs	r1, #20
.Ltmp44:
	.loc	4 202 5 prologue_end    @ ../Basic/Source/gd32e23x_dma.c:202:5
	muls	r1, r0, r1
	ldr	r0, __arm_cp.8_0
.Ltmp45:
	.loc	4 202 25 is_stmt 0      @ ../Basic/Source/gd32e23x_dma.c:202:25
	ldr	r2, [r1, r0]
	movs	r3, #1
	orrs	r3, r2
	str	r3, [r1, r0]
	.loc	4 203 1 is_stmt 1       @ ../Basic/Source/gd32e23x_dma.c:203:1
	bx	lr
.Ltmp46:
	.p2align	2
@ %bb.1:
	.loc	4 0 1 is_stmt 0         @ ../Basic/Source/gd32e23x_dma.c:0:1
__arm_cp.8_0:
	.long	1073872904              @ 0x40020008
.Lcpi_end7:
	.size	__arm_cp.8_0, .Lcpi_end7-__arm_cp.8_0
.Lfunc_end8:
	.size	dma_channel_enable, .Lfunc_end8-dma_channel_enable
	.cfi_endproc
	.cantunwind
	.fnend
                                        @ -- End function
	.section	.text.dma_periph_address_config,"ax",%progbits
	.hidden	dma_periph_address_config @ -- Begin function dma_periph_address_config
	.globl	dma_periph_address_config
	.p2align	2
	.type	dma_periph_address_config,%function
	.code	16                      @ @dma_periph_address_config
	.thumb_func
dma_periph_address_config:
.Lfunc_begin9:
	.loc	4 228 0 is_stmt 1       @ ../Basic/Source/gd32e23x_dma.c:228:0
	.fnstart
	.cfi_startproc
@ %bb.0:
	@DEBUG_VALUE: dma_periph_address_config:channelx <- $r0
	@DEBUG_VALUE: dma_periph_address_config:channelx <- $r0
	@DEBUG_VALUE: dma_periph_address_config:address <- $r1
	@DEBUG_VALUE: dma_periph_address_config:address <- $r1
	movs	r2, #20
.Ltmp47:
	.loc	4 229 5 prologue_end    @ ../Basic/Source/gd32e23x_dma.c:229:5
	muls	r2, r0, r2
	ldr	r0, __arm_cp.9_0
.Ltmp48:
	.loc	4 229 27 is_stmt 0      @ ../Basic/Source/gd32e23x_dma.c:229:27
	str	r1, [r2, r0]
	.loc	4 230 1 is_stmt 1       @ ../Basic/Source/gd32e23x_dma.c:230:1
	bx	lr
.Ltmp49:
	.p2align	2
@ %bb.1:
	.loc	4 0 1 is_stmt 0         @ ../Basic/Source/gd32e23x_dma.c:0:1
__arm_cp.9_0:
	.long	1073872912              @ 0x40020010
.Lcpi_end8:
	.size	__arm_cp.9_0, .Lcpi_end8-__arm_cp.9_0
.Lfunc_end9:
	.size	dma_periph_address_config, .Lfunc_end9-dma_periph_address_config
	.cfi_endproc
	.cantunwind
	.fnend
                                        @ -- End function
	.section	.text.dma_memory_address_config,"ax",%progbits
	.hidden	dma_memory_address_config @ -- Begin function dma_memory_address_config
	.globl	dma_memory_address_config
	.p2align	2
	.type	dma_memory_address_config,%function
	.code	16                      @ @dma_memory_address_config
	.thumb_func
dma_memory_address_config:
.Lfunc_begin10:
	.loc	4 242 0 is_stmt 1       @ ../Basic/Source/gd32e23x_dma.c:242:0
	.fnstart
	.cfi_startproc
@ %bb.0:
	@DEBUG_VALUE: dma_memory_address_config:channelx <- $r0
	@DEBUG_VALUE: dma_memory_address_config:channelx <- $r0
	@DEBUG_VALUE: dma_memory_address_config:address <- $r1
	@DEBUG_VALUE: dma_memory_address_config:address <- $r1
	movs	r2, #20
.Ltmp50:
	.loc	4 243 5 prologue_end    @ ../Basic/Source/gd32e23x_dma.c:243:5
	muls	r2, r0, r2
	ldr	r0, __arm_cp.10_0
.Ltmp51:
	.loc	4 243 27 is_stmt 0      @ ../Basic/Source/gd32e23x_dma.c:243:27
	str	r1, [r2, r0]
	.loc	4 244 1 is_stmt 1       @ ../Basic/Source/gd32e23x_dma.c:244:1
	bx	lr
.Ltmp52:
	.p2align	2
@ %bb.1:
	.loc	4 0 1 is_stmt 0         @ ../Basic/Source/gd32e23x_dma.c:0:1
__arm_cp.10_0:
	.long	1073872916              @ 0x40020014
.Lcpi_end9:
	.size	__arm_cp.10_0, .Lcpi_end9-__arm_cp.10_0
.Lfunc_end10:
	.size	dma_memory_address_config, .Lfunc_end10-dma_memory_address_config
	.cfi_endproc
	.cantunwind
	.fnend
                                        @ -- End function
	.section	.text.dma_transfer_number_config,"ax",%progbits
	.hidden	dma_transfer_number_config @ -- Begin function dma_transfer_number_config
	.globl	dma_transfer_number_config
	.p2align	2
	.type	dma_transfer_number_config,%function
	.code	16                      @ @dma_transfer_number_config
	.thumb_func
dma_transfer_number_config:
.Lfunc_begin11:
	.loc	4 256 0 is_stmt 1       @ ../Basic/Source/gd32e23x_dma.c:256:0
	.fnstart
	.cfi_startproc
@ %bb.0:
	@DEBUG_VALUE: dma_transfer_number_config:channelx <- $r0
	@DEBUG_VALUE: dma_transfer_number_config:channelx <- $r0
	@DEBUG_VALUE: dma_transfer_number_config:number <- $r1
	@DEBUG_VALUE: dma_transfer_number_config:number <- $r1
	movs	r2, #20
.Ltmp53:
	.loc	4 257 5 prologue_end    @ ../Basic/Source/gd32e23x_dma.c:257:5
	muls	r2, r0, r2
	.loc	4 257 35 is_stmt 0      @ ../Basic/Source/gd32e23x_dma.c:257:35
	uxth	r0, r1
.Ltmp54:
	.loc	4 0 35                  @ ../Basic/Source/gd32e23x_dma.c:0:35
	ldr	r1, __arm_cp.11_0
.Ltmp55:
	.loc	4 257 25                @ ../Basic/Source/gd32e23x_dma.c:257:25
	str	r0, [r2, r1]
	.loc	4 258 1 is_stmt 1       @ ../Basic/Source/gd32e23x_dma.c:258:1
	bx	lr
.Ltmp56:
	.p2align	2
@ %bb.1:
	.loc	4 0 1 is_stmt 0         @ ../Basic/Source/gd32e23x_dma.c:0:1
__arm_cp.11_0:
	.long	1073872908              @ 0x4002000c
.Lcpi_end10:
	.size	__arm_cp.11_0, .Lcpi_end10-__arm_cp.11_0
.Lfunc_end11:
	.size	dma_transfer_number_config, .Lfunc_end11-dma_transfer_number_config
	.cfi_endproc
	.cantunwind
	.fnend
                                        @ -- End function
	.section	.text.dma_transfer_number_get,"ax",%progbits
	.hidden	dma_transfer_number_get @ -- Begin function dma_transfer_number_get
	.globl	dma_transfer_number_get
	.p2align	2
	.type	dma_transfer_number_get,%function
	.code	16                      @ @dma_transfer_number_get
	.thumb_func
dma_transfer_number_get:
.Lfunc_begin12:
	.loc	4 269 0 is_stmt 1       @ ../Basic/Source/gd32e23x_dma.c:269:0
	.fnstart
	.cfi_startproc
@ %bb.0:
	@DEBUG_VALUE: dma_transfer_number_get:channelx <- $r0
	@DEBUG_VALUE: dma_transfer_number_get:channelx <- $r0
	movs	r1, #20
.Ltmp57:
	.loc	4 270 22 prologue_end   @ ../Basic/Source/gd32e23x_dma.c:270:22
	muls	r1, r0, r1
	ldr	r0, __arm_cp.12_0
.Ltmp58:
	ldr	r0, [r1, r0]
	.loc	4 270 5 is_stmt 0       @ ../Basic/Source/gd32e23x_dma.c:270:5
	bx	lr
.Ltmp59:
	.p2align	2
@ %bb.1:
	.loc	4 0 5                   @ ../Basic/Source/gd32e23x_dma.c:0:5
__arm_cp.12_0:
	.long	1073872908              @ 0x4002000c
.Lcpi_end11:
	.size	__arm_cp.12_0, .Lcpi_end11-__arm_cp.12_0
.Lfunc_end12:
	.size	dma_transfer_number_get, .Lfunc_end12-dma_transfer_number_get
	.cfi_endproc
	.cantunwind
	.fnend
                                        @ -- End function
	.section	.text.dma_priority_config,"ax",%progbits
	.hidden	dma_priority_config     @ -- Begin function dma_priority_config
	.globl	dma_priority_config
	.p2align	2
	.type	dma_priority_config,%function
	.code	16                      @ @dma_priority_config
	.thumb_func
dma_priority_config:
.Lfunc_begin13:
	.loc	4 288 0 is_stmt 1       @ ../Basic/Source/gd32e23x_dma.c:288:0
	.fnstart
	.cfi_startproc
@ %bb.0:
	@DEBUG_VALUE: dma_priority_config:channelx <- $r0
	@DEBUG_VALUE: dma_priority_config:channelx <- $r0
	@DEBUG_VALUE: dma_priority_config:priority <- $r1
	@DEBUG_VALUE: dma_priority_config:priority <- $r1
	.save	{r4, lr}
	push	{r4, lr}
	.cfi_def_cfa_offset 8
	.cfi_offset lr, -4
	.cfi_offset r4, -8
	movs	r2, #20
.Ltmp60:
	.loc	4 292 11 prologue_end   @ ../Basic/Source/gd32e23x_dma.c:292:11
	muls	r2, r0, r2
	ldr	r0, __arm_cp.13_0
.Ltmp61:
	ldr	r3, [r2, r0]
.Ltmp62:
	@DEBUG_VALUE: dma_priority_config:ctl <- $r3
	.loc	4 0 11 is_stmt 0        @ ../Basic/Source/gd32e23x_dma.c:0:11
	movw	r4, #12288
	.loc	4 294 9 is_stmt 1       @ ../Basic/Source/gd32e23x_dma.c:294:9
	bics	r3, r4
.Ltmp63:
	@DEBUG_VALUE: dma_priority_config:ctl <- $r3
	.loc	4 295 9                 @ ../Basic/Source/gd32e23x_dma.c:295:9
	orrs	r3, r1
.Ltmp64:
	@DEBUG_VALUE: dma_priority_config:ctl <- $r3
	.loc	4 296 25                @ ../Basic/Source/gd32e23x_dma.c:296:25
	str	r3, [r2, r0]
	.loc	4 297 1                 @ ../Basic/Source/gd32e23x_dma.c:297:1
	pop	{r4, pc}
.Ltmp65:
	.p2align	2
@ %bb.1:
	.loc	4 0 1 is_stmt 0         @ ../Basic/Source/gd32e23x_dma.c:0:1
__arm_cp.13_0:
	.long	1073872904              @ 0x40020008
.Lcpi_end12:
	.size	__arm_cp.13_0, .Lcpi_end12-__arm_cp.13_0
.Lfunc_end13:
	.size	dma_priority_config, .Lfunc_end13-dma_priority_config
	.cfi_endproc
	.cantunwind
	.fnend
                                        @ -- End function
	.section	.text.dma_memory_width_config,"ax",%progbits
	.hidden	dma_memory_width_config @ -- Begin function dma_memory_width_config
	.globl	dma_memory_width_config
	.p2align	2
	.type	dma_memory_width_config,%function
	.code	16                      @ @dma_memory_width_config
	.thumb_func
dma_memory_width_config:
.Lfunc_begin14:
	.loc	4 313 0 is_stmt 1       @ ../Basic/Source/gd32e23x_dma.c:313:0
	.fnstart
	.cfi_startproc
@ %bb.0:
	@DEBUG_VALUE: dma_memory_width_config:channelx <- $r0
	@DEBUG_VALUE: dma_memory_width_config:channelx <- $r0
	@DEBUG_VALUE: dma_memory_width_config:mwidth <- $r1
	@DEBUG_VALUE: dma_memory_width_config:mwidth <- $r1
	.save	{r4, lr}
	push	{r4, lr}
	.cfi_def_cfa_offset 8
	.cfi_offset lr, -4
	.cfi_offset r4, -8
	movs	r2, #20
.Ltmp66:
	.loc	4 317 11 prologue_end   @ ../Basic/Source/gd32e23x_dma.c:317:11
	muls	r2, r0, r2
	ldr	r0, __arm_cp.14_0
.Ltmp67:
	ldr	r3, [r2, r0]
.Ltmp68:
	@DEBUG_VALUE: dma_memory_width_config:ctl <- $r3
	.loc	4 0 11 is_stmt 0        @ ../Basic/Source/gd32e23x_dma.c:0:11
	movw	r4, #3072
	.loc	4 319 9 is_stmt 1       @ ../Basic/Source/gd32e23x_dma.c:319:9
	bics	r3, r4
.Ltmp69:
	@DEBUG_VALUE: dma_memory_width_config:ctl <- $r3
	.loc	4 320 9                 @ ../Basic/Source/gd32e23x_dma.c:320:9
	orrs	r3, r1
.Ltmp70:
	@DEBUG_VALUE: dma_memory_width_config:ctl <- $r3
	.loc	4 321 25                @ ../Basic/Source/gd32e23x_dma.c:321:25
	str	r3, [r2, r0]
	.loc	4 322 1                 @ ../Basic/Source/gd32e23x_dma.c:322:1
	pop	{r4, pc}
.Ltmp71:
	.p2align	2
@ %bb.1:
	.loc	4 0 1 is_stmt 0         @ ../Basic/Source/gd32e23x_dma.c:0:1
__arm_cp.14_0:
	.long	1073872904              @ 0x40020008
.Lcpi_end13:
	.size	__arm_cp.14_0, .Lcpi_end13-__arm_cp.14_0
.Lfunc_end14:
	.size	dma_memory_width_config, .Lfunc_end14-dma_memory_width_config
	.cfi_endproc
	.cantunwind
	.fnend
                                        @ -- End function
	.section	.text.dma_periph_width_config,"ax",%progbits
	.hidden	dma_periph_width_config @ -- Begin function dma_periph_width_config
	.globl	dma_periph_width_config
	.p2align	2
	.type	dma_periph_width_config,%function
	.code	16                      @ @dma_periph_width_config
	.thumb_func
dma_periph_width_config:
.Lfunc_begin15:
	.loc	4 338 0 is_stmt 1       @ ../Basic/Source/gd32e23x_dma.c:338:0
	.fnstart
	.cfi_startproc
@ %bb.0:
	@DEBUG_VALUE: dma_periph_width_config:channelx <- $r0
	@DEBUG_VALUE: dma_periph_width_config:channelx <- $r0
	@DEBUG_VALUE: dma_periph_width_config:pwidth <- $r1
	@DEBUG_VALUE: dma_periph_width_config:pwidth <- $r1
	.save	{r4, lr}
	push	{r4, lr}
	.cfi_def_cfa_offset 8
	.cfi_offset lr, -4
	.cfi_offset r4, -8
	movs	r2, #20
.Ltmp72:
	.loc	4 342 11 prologue_end   @ ../Basic/Source/gd32e23x_dma.c:342:11
	muls	r2, r0, r2
	ldr	r0, __arm_cp.15_0
.Ltmp73:
	ldr	r3, [r2, r0]
.Ltmp74:
	@DEBUG_VALUE: dma_periph_width_config:ctl <- $r3
	.loc	4 0 11 is_stmt 0        @ ../Basic/Source/gd32e23x_dma.c:0:11
	movw	r4, #768
	.loc	4 344 9 is_stmt 1       @ ../Basic/Source/gd32e23x_dma.c:344:9
	bics	r3, r4
.Ltmp75:
	@DEBUG_VALUE: dma_periph_width_config:ctl <- $r3
	.loc	4 345 9                 @ ../Basic/Source/gd32e23x_dma.c:345:9
	orrs	r3, r1
.Ltmp76:
	@DEBUG_VALUE: dma_periph_width_config:ctl <- $r3
	.loc	4 346 25                @ ../Basic/Source/gd32e23x_dma.c:346:25
	str	r3, [r2, r0]
	.loc	4 347 1                 @ ../Basic/Source/gd32e23x_dma.c:347:1
	pop	{r4, pc}
.Ltmp77:
	.p2align	2
@ %bb.1:
	.loc	4 0 1 is_stmt 0         @ ../Basic/Source/gd32e23x_dma.c:0:1
__arm_cp.15_0:
	.long	1073872904              @ 0x40020008
.Lcpi_end14:
	.size	__arm_cp.15_0, .Lcpi_end14-__arm_cp.15_0
.Lfunc_end15:
	.size	dma_periph_width_config, .Lfunc_end15-dma_periph_width_config
	.cfi_endproc
	.cantunwind
	.fnend
                                        @ -- End function
	.section	.text.dma_memory_increase_enable,"ax",%progbits
	.hidden	dma_memory_increase_enable @ -- Begin function dma_memory_increase_enable
	.globl	dma_memory_increase_enable
	.p2align	2
	.type	dma_memory_increase_enable,%function
	.code	16                      @ @dma_memory_increase_enable
	.thumb_func
dma_memory_increase_enable:
.Lfunc_begin16:
	.loc	4 358 0 is_stmt 1       @ ../Basic/Source/gd32e23x_dma.c:358:0
	.fnstart
	.cfi_startproc
@ %bb.0:
	@DEBUG_VALUE: dma_memory_increase_enable:channelx <- $r0
	@DEBUG_VALUE: dma_memory_increase_enable:channelx <- $r0
	movs	r1, #20
.Ltmp78:
	.loc	4 359 5 prologue_end    @ ../Basic/Source/gd32e23x_dma.c:359:5
	muls	r1, r0, r1
	ldr	r0, __arm_cp.16_0
.Ltmp79:
	.loc	4 359 25 is_stmt 0      @ ../Basic/Source/gd32e23x_dma.c:359:25
	ldr	r2, [r1, r0]
	movs	r3, #128
	orrs	r3, r2
	str	r3, [r1, r0]
	.loc	4 360 1 is_stmt 1       @ ../Basic/Source/gd32e23x_dma.c:360:1
	bx	lr
.Ltmp80:
	.p2align	2
@ %bb.1:
	.loc	4 0 1 is_stmt 0         @ ../Basic/Source/gd32e23x_dma.c:0:1
__arm_cp.16_0:
	.long	1073872904              @ 0x40020008
.Lcpi_end15:
	.size	__arm_cp.16_0, .Lcpi_end15-__arm_cp.16_0
.Lfunc_end16:
	.size	dma_memory_increase_enable, .Lfunc_end16-dma_memory_increase_enable
	.cfi_endproc
	.cantunwind
	.fnend
                                        @ -- End function
	.section	.text.dma_memory_increase_disable,"ax",%progbits
	.hidden	dma_memory_increase_disable @ -- Begin function dma_memory_increase_disable
	.globl	dma_memory_increase_disable
	.p2align	2
	.type	dma_memory_increase_disable,%function
	.code	16                      @ @dma_memory_increase_disable
	.thumb_func
dma_memory_increase_disable:
.Lfunc_begin17:
	.loc	4 371 0 is_stmt 1       @ ../Basic/Source/gd32e23x_dma.c:371:0
	.fnstart
	.cfi_startproc
@ %bb.0:
	@DEBUG_VALUE: dma_memory_increase_disable:channelx <- $r0
	@DEBUG_VALUE: dma_memory_increase_disable:channelx <- $r0
	movs	r1, #20
.Ltmp81:
	.loc	4 372 5 prologue_end    @ ../Basic/Source/gd32e23x_dma.c:372:5
	muls	r1, r0, r1
	ldr	r0, __arm_cp.17_0
.Ltmp82:
	.loc	4 372 25 is_stmt 0      @ ../Basic/Source/gd32e23x_dma.c:372:25
	ldr	r2, [r1, r0]
	movs	r3, #128
	bics	r2, r3
	str	r2, [r1, r0]
	.loc	4 373 1 is_stmt 1       @ ../Basic/Source/gd32e23x_dma.c:373:1
	bx	lr
.Ltmp83:
	.p2align	2
@ %bb.1:
	.loc	4 0 1 is_stmt 0         @ ../Basic/Source/gd32e23x_dma.c:0:1
__arm_cp.17_0:
	.long	1073872904              @ 0x40020008
.Lcpi_end16:
	.size	__arm_cp.17_0, .Lcpi_end16-__arm_cp.17_0
.Lfunc_end17:
	.size	dma_memory_increase_disable, .Lfunc_end17-dma_memory_increase_disable
	.cfi_endproc
	.cantunwind
	.fnend
                                        @ -- End function
	.section	.text.dma_periph_increase_enable,"ax",%progbits
	.hidden	dma_periph_increase_enable @ -- Begin function dma_periph_increase_enable
	.globl	dma_periph_increase_enable
	.p2align	2
	.type	dma_periph_increase_enable,%function
	.code	16                      @ @dma_periph_increase_enable
	.thumb_func
dma_periph_increase_enable:
.Lfunc_begin18:
	.loc	4 384 0 is_stmt 1       @ ../Basic/Source/gd32e23x_dma.c:384:0
	.fnstart
	.cfi_startproc
@ %bb.0:
	@DEBUG_VALUE: dma_periph_increase_enable:channelx <- $r0
	@DEBUG_VALUE: dma_periph_increase_enable:channelx <- $r0
	movs	r1, #20
.Ltmp84:
	.loc	4 385 5 prologue_end    @ ../Basic/Source/gd32e23x_dma.c:385:5
	muls	r1, r0, r1
	ldr	r0, __arm_cp.18_0
.Ltmp85:
	.loc	4 385 25 is_stmt 0      @ ../Basic/Source/gd32e23x_dma.c:385:25
	ldr	r2, [r1, r0]
	movs	r3, #64
	orrs	r3, r2
	str	r3, [r1, r0]
	.loc	4 386 1 is_stmt 1       @ ../Basic/Source/gd32e23x_dma.c:386:1
	bx	lr
.Ltmp86:
	.p2align	2
@ %bb.1:
	.loc	4 0 1 is_stmt 0         @ ../Basic/Source/gd32e23x_dma.c:0:1
__arm_cp.18_0:
	.long	1073872904              @ 0x40020008
.Lcpi_end17:
	.size	__arm_cp.18_0, .Lcpi_end17-__arm_cp.18_0
.Lfunc_end18:
	.size	dma_periph_increase_enable, .Lfunc_end18-dma_periph_increase_enable
	.cfi_endproc
	.cantunwind
	.fnend
                                        @ -- End function
	.section	.text.dma_periph_increase_disable,"ax",%progbits
	.hidden	dma_periph_increase_disable @ -- Begin function dma_periph_increase_disable
	.globl	dma_periph_increase_disable
	.p2align	2
	.type	dma_periph_increase_disable,%function
	.code	16                      @ @dma_periph_increase_disable
	.thumb_func
dma_periph_increase_disable:
.Lfunc_begin19:
	.loc	4 397 0 is_stmt 1       @ ../Basic/Source/gd32e23x_dma.c:397:0
	.fnstart
	.cfi_startproc
@ %bb.0:
	@DEBUG_VALUE: dma_periph_increase_disable:channelx <- $r0
	@DEBUG_VALUE: dma_periph_increase_disable:channelx <- $r0
	movs	r1, #20
.Ltmp87:
	.loc	4 398 5 prologue_end    @ ../Basic/Source/gd32e23x_dma.c:398:5
	muls	r1, r0, r1
	ldr	r0, __arm_cp.19_0
.Ltmp88:
	.loc	4 398 25 is_stmt 0      @ ../Basic/Source/gd32e23x_dma.c:398:25
	ldr	r2, [r1, r0]
	movs	r3, #64
	bics	r2, r3
	str	r2, [r1, r0]
	.loc	4 399 1 is_stmt 1       @ ../Basic/Source/gd32e23x_dma.c:399:1
	bx	lr
.Ltmp89:
	.p2align	2
@ %bb.1:
	.loc	4 0 1 is_stmt 0         @ ../Basic/Source/gd32e23x_dma.c:0:1
__arm_cp.19_0:
	.long	1073872904              @ 0x40020008
.Lcpi_end18:
	.size	__arm_cp.19_0, .Lcpi_end18-__arm_cp.19_0
.Lfunc_end19:
	.size	dma_periph_increase_disable, .Lfunc_end19-dma_periph_increase_disable
	.cfi_endproc
	.cantunwind
	.fnend
                                        @ -- End function
	.section	.text.dma_transfer_direction_config,"ax",%progbits
	.hidden	dma_transfer_direction_config @ -- Begin function dma_transfer_direction_config
	.globl	dma_transfer_direction_config
	.p2align	2
	.type	dma_transfer_direction_config,%function
	.code	16                      @ @dma_transfer_direction_config
	.thumb_func
dma_transfer_direction_config:
.Lfunc_begin20:
	.loc	4 414 0 is_stmt 1       @ ../Basic/Source/gd32e23x_dma.c:414:0
	.fnstart
	.cfi_startproc
@ %bb.0:
	@DEBUG_VALUE: dma_transfer_direction_config:channelx <- $r0
	@DEBUG_VALUE: dma_transfer_direction_config:channelx <- $r0
	@DEBUG_VALUE: dma_transfer_direction_config:direction <- $r1
	@DEBUG_VALUE: dma_transfer_direction_config:direction <- $r1
	.save	{r4, lr}
	push	{r4, lr}
	.cfi_def_cfa_offset 8
	.cfi_offset lr, -4
	.cfi_offset r4, -8
	movs	r2, #20
.Ltmp90:
	.loc	4 0 0 prologue_end      @ ../Basic/Source/gd32e23x_dma.c:0:0
	muls	r2, r0, r2
	ldr	r0, __arm_cp.20_0
.Ltmp91:
	ldr	r3, [r2, r0]
	movs	r4, #16
.Ltmp92:
	.loc	4 415 8                 @ ../Basic/Source/gd32e23x_dma.c:415:8
	cbz	r1, .LBB20_2
.Ltmp93:
@ %bb.1:
	@DEBUG_VALUE: dma_transfer_direction_config:direction <- $r1
	.loc	4 0 8 is_stmt 0         @ ../Basic/Source/gd32e23x_dma.c:0:8
	orrs	r3, r4
	b	.LBB20_3
.Ltmp94:
.LBB20_2:
	@DEBUG_VALUE: dma_transfer_direction_config:direction <- $r1
	bics	r3, r4
.Ltmp95:
.LBB20_3:
	@DEBUG_VALUE: dma_transfer_direction_config:direction <- $r1
	str	r3, [r2, r0]
.Ltmp96:
	.loc	4 420 1 is_stmt 1       @ ../Basic/Source/gd32e23x_dma.c:420:1
	pop	{r4, pc}
.Ltmp97:
	.p2align	2
@ %bb.4:
	.loc	4 0 1 is_stmt 0         @ ../Basic/Source/gd32e23x_dma.c:0:1
__arm_cp.20_0:
	.long	1073872904              @ 0x40020008
.Lcpi_end19:
	.size	__arm_cp.20_0, .Lcpi_end19-__arm_cp.20_0
.Lfunc_end20:
	.size	dma_transfer_direction_config, .Lfunc_end20-dma_transfer_direction_config
	.cfi_endproc
	.cantunwind
	.fnend
                                        @ -- End function
	.section	.text.dma_flag_get,"ax",%progbits
	.hidden	dma_flag_get            @ -- Begin function dma_flag_get
	.globl	dma_flag_get
	.p2align	2
	.type	dma_flag_get,%function
	.code	16                      @ @dma_flag_get
	.thumb_func
dma_flag_get:
.Lfunc_begin21:
	.loc	4 437 0 is_stmt 1       @ ../Basic/Source/gd32e23x_dma.c:437:0
	.fnstart
	.cfi_startproc
@ %bb.0:
	@DEBUG_VALUE: dma_flag_get:channelx <- $r0
	@DEBUG_VALUE: dma_flag_get:channelx <- $r0
	@DEBUG_VALUE: dma_flag_get:flag <- $r1
	@DEBUG_VALUE: dma_flag_get:flag <- $r1
	.loc	4 440 29 prologue_end   @ ../Basic/Source/gd32e23x_dma.c:440:29
	lsls	r0, r0, #2
.Ltmp98:
	lsls	r1, r0
.Ltmp99:
	.loc	4 0 29 is_stmt 0        @ ../Basic/Source/gd32e23x_dma.c:0:29
	ldr	r0, __arm_cp.21_0
	.loc	4 440 18                @ ../Basic/Source/gd32e23x_dma.c:440:18
	ldr	r0, [r0]
	.loc	4 440 27                @ ../Basic/Source/gd32e23x_dma.c:440:27
	ands	r0, r1
	.loc	4 440 14                @ ../Basic/Source/gd32e23x_dma.c:440:14
	subs	r1, r0, #1
	sbcs	r0, r1
.Ltmp100:
	@DEBUG_VALUE: dma_flag_get:reval <- undef
	.loc	4 446 5 is_stmt 1       @ ../Basic/Source/gd32e23x_dma.c:446:5
	bx	lr
.Ltmp101:
	.p2align	2
@ %bb.1:
	.loc	4 0 5 is_stmt 0         @ ../Basic/Source/gd32e23x_dma.c:0:5
__arm_cp.21_0:
	.long	1073872896              @ 0x40020000
.Lcpi_end20:
	.size	__arm_cp.21_0, .Lcpi_end20-__arm_cp.21_0
.Lfunc_end21:
	.size	dma_flag_get, .Lfunc_end21-dma_flag_get
	.cfi_endproc
	.cantunwind
	.fnend
                                        @ -- End function
	.section	.text.dma_flag_clear,"ax",%progbits
	.hidden	dma_flag_clear          @ -- Begin function dma_flag_clear
	.globl	dma_flag_clear
	.p2align	2
	.type	dma_flag_clear,%function
	.code	16                      @ @dma_flag_clear
	.thumb_func
dma_flag_clear:
.Lfunc_begin22:
	.loc	4 464 0 is_stmt 1       @ ../Basic/Source/gd32e23x_dma.c:464:0
	.fnstart
	.cfi_startproc
@ %bb.0:
	@DEBUG_VALUE: dma_flag_clear:channelx <- $r0
	@DEBUG_VALUE: dma_flag_clear:channelx <- $r0
	@DEBUG_VALUE: dma_flag_clear:flag <- $r1
	@DEBUG_VALUE: dma_flag_clear:flag <- $r1
	.loc	4 465 17 prologue_end   @ ../Basic/Source/gd32e23x_dma.c:465:17
	lsls	r0, r0, #2
.Ltmp102:
	lsls	r1, r0
.Ltmp103:
	.loc	4 0 17 is_stmt 0        @ ../Basic/Source/gd32e23x_dma.c:0:17
	ldr	r0, __arm_cp.22_0
	.loc	4 465 14                @ ../Basic/Source/gd32e23x_dma.c:465:14
	ldr	r2, [r0]
	orrs	r2, r1
	str	r2, [r0]
	.loc	4 466 1 is_stmt 1       @ ../Basic/Source/gd32e23x_dma.c:466:1
	bx	lr
.Ltmp104:
	.p2align	2
@ %bb.1:
	.loc	4 0 1 is_stmt 0         @ ../Basic/Source/gd32e23x_dma.c:0:1
__arm_cp.22_0:
	.long	1073872900              @ 0x40020004
.Lcpi_end21:
	.size	__arm_cp.22_0, .Lcpi_end21-__arm_cp.22_0
.Lfunc_end22:
	.size	dma_flag_clear, .Lfunc_end22-dma_flag_clear
	.cfi_endproc
	.cantunwind
	.fnend
                                        @ -- End function
	.section	.text.dma_interrupt_flag_get,"ax",%progbits
	.hidden	dma_interrupt_flag_get  @ -- Begin function dma_interrupt_flag_get
	.globl	dma_interrupt_flag_get
	.p2align	2
	.type	dma_interrupt_flag_get,%function
	.code	16                      @ @dma_interrupt_flag_get
	.thumb_func
dma_interrupt_flag_get:
.Lfunc_begin23:
	.loc	4 482 0 is_stmt 1       @ ../Basic/Source/gd32e23x_dma.c:482:0
	.fnstart
	.cfi_startproc
@ %bb.0:
	@DEBUG_VALUE: dma_interrupt_flag_get:channelx <- $r0
	@DEBUG_VALUE: dma_interrupt_flag_get:flag <- $r1
	@DEBUG_VALUE: dma_interrupt_flag_get:flag <- $r1
	.save	{r4, lr}
	push	{r4, lr}
	.cfi_def_cfa_offset 8
	.cfi_offset lr, -4
	.cfi_offset r4, -8
	mov	r2, r0
.Ltmp105:
	@DEBUG_VALUE: dma_interrupt_flag_get:channelx <- $r2
	movs	r0, #0
.Ltmp106:
	@DEBUG_VALUE: dma_interrupt_flag_get:interrupt_flag <- 0
	@DEBUG_VALUE: dma_interrupt_flag_get:interrupt_enable <- 0
	.loc	4 485 5 prologue_end    @ ../Basic/Source/gd32e23x_dma.c:485:5
	cmp	r1, #8
	bhi	.LBB23_4
.Ltmp107:
@ %bb.1:
	@DEBUG_VALUE: dma_interrupt_flag_get:interrupt_enable <- 0
	@DEBUG_VALUE: dma_interrupt_flag_get:interrupt_flag <- 0
	@DEBUG_VALUE: dma_interrupt_flag_get:channelx <- $r2
	@DEBUG_VALUE: dma_interrupt_flag_get:flag <- $r1
	.loc	4 0 5 is_stmt 0         @ ../Basic/Source/gd32e23x_dma.c:0:5
	movs	r3, #1
	lsls	r3, r1
	movw	r4, #276
	tst	r3, r4
	mov	r3, r0
	beq	.LBB23_3
.Ltmp108:
@ %bb.2:
	@DEBUG_VALUE: dma_interrupt_flag_get:interrupt_enable <- 0
	@DEBUG_VALUE: dma_interrupt_flag_get:interrupt_flag <- 0
	@DEBUG_VALUE: dma_interrupt_flag_get:channelx <- $r2
	@DEBUG_VALUE: dma_interrupt_flag_get:flag <- $r1
	lsls	r0, r2, #2
	mov	r4, r1
	lsls	r4, r0
	ldr	r0, __arm_cp.23_0
	ldr	r3, [r0]
	ands	r3, r4
.Ltmp109:
	.loc	4 502 8 is_stmt 1       @ ../Basic/Source/gd32e23x_dma.c:502:8
	subs	r4, r3, #1
	sbcs	r3, r4
	movs	r4, #20
.Ltmp110:
	.loc	4 0 0 is_stmt 0         @ ../Basic/Source/gd32e23x_dma.c:0:0
	muls	r4, r2, r4
	adds	r0, r4, r0
	ldr	r0, [r0, #8]
	ands	r0, r1
.Ltmp111:
	.loc	4 502 8                 @ ../Basic/Source/gd32e23x_dma.c:502:8
	subs	r1, r0, #1
.Ltmp112:
	sbcs	r0, r1
.Ltmp113:
.LBB23_3:
	@DEBUG_VALUE: dma_interrupt_flag_get:interrupt_enable <- 0
	@DEBUG_VALUE: dma_interrupt_flag_get:interrupt_flag <- 0
	@DEBUG_VALUE: dma_interrupt_flag_get:channelx <- $r2
	@DEBUG_VALUE: dma_interrupt_flag_get:interrupt_enable <- undef
	@DEBUG_VALUE: dma_interrupt_flag_get:interrupt_flag <- undef
	.loc	4 502 23                @ ../Basic/Source/gd32e23x_dma.c:502:23
	ands	r0, r3
.Ltmp114:
	.loc	4 507 1 is_stmt 1       @ ../Basic/Source/gd32e23x_dma.c:507:1
	pop	{r4, pc}
.Ltmp115:
.LBB23_4:
	@DEBUG_VALUE: dma_interrupt_flag_get:interrupt_enable <- 0
	@DEBUG_VALUE: dma_interrupt_flag_get:interrupt_flag <- 0
	@DEBUG_VALUE: dma_interrupt_flag_get:channelx <- $r2
	@DEBUG_VALUE: dma_interrupt_flag_get:flag <- $r1
	.loc	4 0 1 is_stmt 0         @ ../Basic/Source/gd32e23x_dma.c:0:1
	mov	r3, r0
	b	.LBB23_3
.Ltmp116:
	.p2align	2
@ %bb.5:
__arm_cp.23_0:
	.long	1073872896              @ 0x40020000
.Lcpi_end22:
	.size	__arm_cp.23_0, .Lcpi_end22-__arm_cp.23_0
.Lfunc_end23:
	.size	dma_interrupt_flag_get, .Lfunc_end23-dma_interrupt_flag_get
	.cfi_endproc
	.cantunwind
	.fnend
                                        @ -- End function
	.section	.text.dma_interrupt_flag_clear,"ax",%progbits
	.hidden	dma_interrupt_flag_clear @ -- Begin function dma_interrupt_flag_clear
	.globl	dma_interrupt_flag_clear
	.p2align	2
	.type	dma_interrupt_flag_clear,%function
	.code	16                      @ @dma_interrupt_flag_clear
	.thumb_func
dma_interrupt_flag_clear:
.Lfunc_begin24:
	.loc	4 524 0 is_stmt 1       @ ../Basic/Source/gd32e23x_dma.c:524:0
	.fnstart
	.cfi_startproc
@ %bb.0:
	@DEBUG_VALUE: dma_interrupt_flag_clear:channelx <- $r0
	@DEBUG_VALUE: dma_interrupt_flag_clear:channelx <- $r0
	@DEBUG_VALUE: dma_interrupt_flag_clear:flag <- $r1
	@DEBUG_VALUE: dma_interrupt_flag_clear:flag <- $r1
	.loc	4 525 17 prologue_end   @ ../Basic/Source/gd32e23x_dma.c:525:17
	lsls	r0, r0, #2
.Ltmp117:
	lsls	r1, r0
.Ltmp118:
	.loc	4 0 17 is_stmt 0        @ ../Basic/Source/gd32e23x_dma.c:0:17
	ldr	r0, __arm_cp.24_0
	.loc	4 525 14                @ ../Basic/Source/gd32e23x_dma.c:525:14
	ldr	r2, [r0]
	orrs	r2, r1
	str	r2, [r0]
	.loc	4 526 1 is_stmt 1       @ ../Basic/Source/gd32e23x_dma.c:526:1
	bx	lr
.Ltmp119:
	.p2align	2
@ %bb.1:
	.loc	4 0 1 is_stmt 0         @ ../Basic/Source/gd32e23x_dma.c:0:1
__arm_cp.24_0:
	.long	1073872900              @ 0x40020004
.Lcpi_end23:
	.size	__arm_cp.24_0, .Lcpi_end23-__arm_cp.24_0
.Lfunc_end24:
	.size	dma_interrupt_flag_clear, .Lfunc_end24-dma_interrupt_flag_clear
	.cfi_endproc
	.cantunwind
	.fnend
                                        @ -- End function
	.section	.text.dma_interrupt_enable,"ax",%progbits
	.hidden	dma_interrupt_enable    @ -- Begin function dma_interrupt_enable
	.globl	dma_interrupt_enable
	.p2align	2
	.type	dma_interrupt_enable,%function
	.code	16                      @ @dma_interrupt_enable
	.thumb_func
dma_interrupt_enable:
.Lfunc_begin25:
	.loc	4 542 0 is_stmt 1       @ ../Basic/Source/gd32e23x_dma.c:542:0
	.fnstart
	.cfi_startproc
@ %bb.0:
	@DEBUG_VALUE: dma_interrupt_enable:channelx <- $r0
	@DEBUG_VALUE: dma_interrupt_enable:channelx <- $r0
	@DEBUG_VALUE: dma_interrupt_enable:source <- $r1
	@DEBUG_VALUE: dma_interrupt_enable:source <- $r1
	movs	r2, #20
.Ltmp120:
	.loc	4 543 5 prologue_end    @ ../Basic/Source/gd32e23x_dma.c:543:5
	muls	r2, r0, r2
	ldr	r0, __arm_cp.25_0
.Ltmp121:
	.loc	4 543 25 is_stmt 0      @ ../Basic/Source/gd32e23x_dma.c:543:25
	ldr	r3, [r2, r0]
	orrs	r3, r1
	str	r3, [r2, r0]
	.loc	4 544 1 is_stmt 1       @ ../Basic/Source/gd32e23x_dma.c:544:1
	bx	lr
.Ltmp122:
	.p2align	2
@ %bb.1:
	.loc	4 0 1 is_stmt 0         @ ../Basic/Source/gd32e23x_dma.c:0:1
__arm_cp.25_0:
	.long	1073872904              @ 0x40020008
.Lcpi_end24:
	.size	__arm_cp.25_0, .Lcpi_end24-__arm_cp.25_0
.Lfunc_end25:
	.size	dma_interrupt_enable, .Lfunc_end25-dma_interrupt_enable
	.cfi_endproc
	.cantunwind
	.fnend
                                        @ -- End function
	.section	.text.dma_interrupt_disable,"ax",%progbits
	.hidden	dma_interrupt_disable   @ -- Begin function dma_interrupt_disable
	.globl	dma_interrupt_disable
	.p2align	2
	.type	dma_interrupt_disable,%function
	.code	16                      @ @dma_interrupt_disable
	.thumb_func
dma_interrupt_disable:
.Lfunc_begin26:
	.loc	4 560 0 is_stmt 1       @ ../Basic/Source/gd32e23x_dma.c:560:0
	.fnstart
	.cfi_startproc
@ %bb.0:
	@DEBUG_VALUE: dma_interrupt_disable:channelx <- $r0
	@DEBUG_VALUE: dma_interrupt_disable:channelx <- $r0
	@DEBUG_VALUE: dma_interrupt_disable:source <- $r1
	@DEBUG_VALUE: dma_interrupt_disable:source <- $r1
	movs	r2, #20
.Ltmp123:
	.loc	4 561 5 prologue_end    @ ../Basic/Source/gd32e23x_dma.c:561:5
	muls	r2, r0, r2
	ldr	r0, __arm_cp.26_0
.Ltmp124:
	.loc	4 561 25 is_stmt 0      @ ../Basic/Source/gd32e23x_dma.c:561:25
	ldr	r3, [r2, r0]
	bics	r3, r1
	str	r3, [r2, r0]
	.loc	4 562 1 is_stmt 1       @ ../Basic/Source/gd32e23x_dma.c:562:1
	bx	lr
.Ltmp125:
	.p2align	2
@ %bb.1:
	.loc	4 0 1 is_stmt 0         @ ../Basic/Source/gd32e23x_dma.c:0:1
__arm_cp.26_0:
	.long	1073872904              @ 0x40020008
.Lcpi_end25:
	.size	__arm_cp.26_0, .Lcpi_end25-__arm_cp.26_0
.Lfunc_end26:
	.size	dma_interrupt_disable, .Lfunc_end26-dma_interrupt_disable
	.cfi_endproc
	.cantunwind
	.fnend
                                        @ -- End function
	.section	".note.GNU-stack","",%progbits
	.eabi_attribute	30, 4	@ Tag_ABI_optimization_goals
	.ARM_attribute	16, 1	@ Tag_AV_eba