	.text
	.syntax unified
	.eabi_attribute	67, "2.09"	@ Tag_conformance
	.cpu	cortex-m23
	.eabi_attribute	6, 16	@ Tag_CPU_arch
	.eabi_attribute	7, 77	@ Tag_CPU_arch_profile
	.eabi_attribute	8, 0	@ Tag_ARM_ISA_use
	.eabi_attribute	9, 3	@ Tag_THUMB_ISA_use
	.eabi_attribute	34, 0	@ Tag_CPU_unaligned_access
	.eabi_attribute	17, 1	@ Tag_ABI_PCS_GOT_use
	.eabi_attribute	20, 2	@ Tag_ABI_FP_denormal
	.eabi_attribute	21, 0	@ Tag_ABI_FP_exceptions
	.eabi_attribute	23, 1	@ Tag_ABI_FP_number_model
	.eabi_attribute	24, 1	@ Tag_ABI_align_needed
	.eabi_attribute	25, 1	@ Tag_ABI_align_preserved
	.eabi_attribute	38, 1	@ Tag_ABI_FP_16bit_format
	.eabi_attribute	18, 2	@ Tag_ABI_PCS_wchar_t
	.eabi_attribute	26, 1	@ Tag_ABI_enum_size
	.eabi_attribute	14, 0	@ Tag_ABI_PCS_R9_use
	.file	"gd32e23x_adc.c"
	.file	1 "C:\\Users\\13728\\Desktop\\general igniter\\Project" "../Basic/Include\\gd32e23x_rcu.h"
	.file	2 "C:\\Users\\13728\\Desktop\\general igniter\\Project" "../CMSIS/Include\\gd32e23x.h"
	.file	3 "D:\\ProgramFile\\Keil5\\ARM\\ARMCLANG\\Bin\\..\\include" "stdint.h"
	.section	.text.adc_deinit,"ax",%progbits
	.hidden	adc_deinit              @ -- Begin function adc_deinit
	.globl	adc_deinit
	.p2align	2
	.type	adc_deinit,%function
	.code	16                      @ @adc_deinit
	.thumb_func
adc_deinit:
.Lfunc_begin0:
	.file	4 "C:\\Users\\13728\\Desktop\\general igniter\\Project" "../Basic/Source/gd32e23x_adc.c"
	.loc	4 46 0                  @ ../Basic/Source/gd32e23x_adc.c:46:0
	.fnstart
	.cfi_sections .debug_frame
	.cfi_startproc
@ %bb.0:
	.save	{r4, lr}
	push	{r4, lr}
	.cfi_def_cfa_offset 8
	.cfi_offset lr, -4
	.cfi_offset r4, -8
	ldr	r4, __arm_cp.0_0
.Ltmp0:
	.loc	4 47 5 prologue_end     @ ../Basic/Source/gd32e23x_adc.c:47:5
	mov	r0, r4
	bl	rcu_periph_reset_enable
	.loc	4 48 5                  @ ../Basic/Source/gd32e23x_adc.c:48:5
	mov	r0, r4
	pop	{r4}
	pop	{r1}
	mov	lr, r1
	b	rcu_periph_reset_disable
.Ltmp1:
	.p2align	2
@ %bb.1:
	.loc	4 0 5 is_stmt 0         @ ../Basic/Source/gd32e23x_adc.c:0:5
__arm_cp.0_0:
	.long	777                     @ 0x309
.Lcpi_end0:
	.size	__arm_cp.0_0, .Lcpi_end0-__arm_cp.0_0
.Lfunc_end0:
	.size	adc_deinit, .Lfunc_end0-adc_deinit
	.cfi_endproc
	.cantunwind
	.fnend
                                        @ -- End function
	.section	.text.adc_enable,"ax",%progbits
	.hidden	adc_enable              @ -- Begin function adc_enable
	.globl	adc_enable
	.p2align	2
	.type	adc_enable,%function
	.code	16                      @ @adc_enable
	.thumb_func
adc_enable:
.Lfunc_begin1:
	.loc	4 58 0 is_stmt 1        @ ../Basic/Source/gd32e23x_adc.c:58:0
	.fnstart
	.cfi_startproc
@ %bb.0:
	ldr	r0, __arm_cp.1_0
.Ltmp2:
	.loc	4 59 18 prologue_end    @ ../Basic/Source/gd32e23x_adc.c:59:18
	ldr	r1, [r0]
.Ltmp3:
	.loc	4 59 8 is_stmt 0        @ ../Basic/Source/gd32e23x_adc.c:59:8
	lsls	r1, r1, #31
	bne	.LBB1_2
@ %bb.1:
.Ltmp4:
	.loc	4 60 18 is_stmt 1       @ ../Basic/Source/gd32e23x_adc.c:60:18
	ldr	r1, [r0]
	movs	r2, #1
	orrs	r2, r1
	str	r2, [r0]
.Ltmp5:
.LBB1_2:
	.loc	4 62 1                  @ ../Basic/Source/gd32e23x_adc.c:62:1
	bx	lr
.Ltmp6:
	.p2align	2
@ %bb.3:
	.loc	4 0 1 is_stmt 0         @ ../Basic/Source/gd32e23x_adc.c:0:1
__arm_cp.1_0:
	.long	1073816584              @ 0x40012408
.Lcpi_end1:
	.size	__arm_cp.1_0, .Lcpi_end1-__arm_cp.1_0
.Lfunc_end1:
	.size	adc_enable, .Lfunc_end1-adc_enable
	.cfi_endproc
	.cantunwind
	.fnend
                                        @ -- End function
	.section	.text.adc_disable,"ax",%progbits
	.hidden	adc_disable             @ -- Begin function adc_disable
	.globl	adc_disable
	.p2align	2
	.type	adc_disable,%function
	.code	16                      @ @adc_disable
	.thumb_func
adc_disable:
.Lfunc_begin2:
	.loc	4 71 0 is_stmt 1        @ ../Basic/Source/gd32e23x_adc.c:71:0
	.fnstart
	.cfi_startproc
@ %bb.0:
	ldr	r0, __arm_cp.2_0
.Ltmp7:
	.loc	4 72 14 prologue_end    @ ../Basic/Source/gd32e23x_adc.c:72:14
	ldr	r1, [r0]
	movs	r2, #1
	bics	r1, r2
	str	r1, [r0]
	.loc	4 73 1                  @ ../Basic/Source/gd32e23x_adc.c:73:1
	bx	lr
.Ltmp8:
	.p2align	2
@ %bb.1:
	.loc	4 0 1 is_stmt 0         @ ../Basic/Source/gd32e23x_adc.c:0:1
__arm_cp.2_0:
	.long	1073816584              @ 0x40012408
.Lcpi_end2:
	.size	__arm_cp.2_0, .Lcpi_end2-__arm_cp.2_0
.Lfunc_end2:
	.size	adc_disable, .Lfunc_end2-adc_disable
	.cfi_endproc
	.cantunwind
	.fnend
                                        @ -- End function
	.section	.text.adc_calibration_enable,"ax",%progbits
	.hidden	adc_calibration_enable  @ -- Begin function adc_calibration_enable
	.globl	adc_calibration_enable
	.p2align	2
	.type	adc_calibration_enable,%function
	.code	16                      @ @adc_calibration_enable
	.thumb_func
adc_calibration_enable:
.Lfunc_begin3:
	.loc	4 82 0 is_stmt 1        @ ../Basic/Source/gd32e23x_adc.c:82:0
	.fnstart
	.cfi_startproc
@ %bb.0:
	ldr	r0, __arm_cp.3_0
.Ltmp9:
	.loc	4 84 14 prologue_end    @ ../Basic/Source/gd32e23x_adc.c:84:14
	ldr	r1, [r0]
	movs	r2, #8
	orrs	r2, r1
	str	r2, [r0]
.LBB3_1:                                @ =>This Inner Loop Header: Depth=1
	.loc	4 86 12                 @ ../Basic/Source/gd32e23x_adc.c:86:12
	ldr	r1, [r0]
	.loc	4 86 5 is_stmt 0        @ ../Basic/Source/gd32e23x_adc.c:86:5
	lsls	r1, r1, #28
	bmi	.LBB3_1
@ %bb.2:
	.loc	4 90 14 is_stmt 1       @ ../Basic/Source/gd32e23x_adc.c:90:14
	ldr	r1, [r0]
	movs	r2, #4
	orrs	r2, r1
	str	r2, [r0]
.LBB3_3:                                @ =>This Inner Loop Header: Depth=1
	.loc	4 92 12                 @ ../Basic/Source/gd32e23x_adc.c:92:12
	ldr	r1, [r0]
	.loc	4 92 5 is_stmt 0        @ ../Basic/Source/gd32e23x_adc.c:92:5
	lsls	r1, r1, #29
	bmi	.LBB3_3
@ %bb.4:
	.loc	4 94 1 is_stmt 1        @ ../Basic/Source/gd32e23x_adc.c:94:1
	bx	lr
.Ltmp10:
	.p2align	2
@ %bb.5:
	.loc	4 0 1 is_stmt 0         @ ../Basic/Source/gd32e23x_adc.c:0:1
__arm_cp.3_0:
	.long	1073816584              @ 0x40012408
.Lcpi_end3:
	.size	__arm_cp.3_0, .Lcpi_end3-__arm_cp.3_0
.Lfunc_end3:
	.size	adc_calibration_enable, .Lfunc_end3-adc_calibration_enable
	.cfi_endproc
	.cantunwind
	.fnend
                                        @ -- End function
	.section	.text.adc_dma_mode_enable,"ax",%progbits
	.hidden	adc_dma_mode_enable     @ -- Begin function adc_dma_mode_enable
	.globl	adc_dma_mode_enable
	.p2align	2
	.type	adc_dma_mode_enable,%function
	.code	16                      @ @adc_dma_mode_enable
	.thumb_func
adc_dma_mode_enable:
.Lfunc_begin4:
	.loc	4 103 0 is_stmt 1       @ ../Basic/Source/gd32e23x_adc.c:103:0
	.fnstart
	.cfi_startproc
@ %bb.0:
	ldr	r0, __arm_cp.4_0
.Ltmp11:
	.loc	4 104 14 prologue_end   @ ../Basic/Source/gd32e23x_adc.c:104:14
	ldr	r1, [r0]
	movw	r2, #256
	orrs	r2, r1
	str	r2, [r0]
	.loc	4 105 1                 @ ../Basic/Source/gd32e23x_adc.c:105:1
	bx	lr
.Ltmp12:
	.p2align	2
@ %bb.1:
	.loc	4 0 1 is_stmt 0         @ ../Basic/Source/gd32e23x_adc.c:0:1
__arm_cp.4_0:
	.long	1073816584              @ 0x40012408
.Lcpi_end4:
	.size	__arm_cp.4_0, .Lcpi_end4-__arm_cp.4_0
.Lfunc_end4:
	.size	adc_dma_mode_enable, .Lfunc_end4-adc_dma_mode_enable
	.cfi_endproc
	.cantunwind
	.fnend
                                        @ -- End function
	.section	.text.adc_dma_mode_disable,"ax",%progbits
	.hidden	adc_dma_mode_disable    @ -- Begin function adc_dma_mode_disable
	.globl	adc_dma_mode_disable
	.p2align	2
	.type	adc_dma_mode_disable,%function
	.code	16                      @ @adc_dma_mode_disable
	.thumb_func
adc_dma_mode_disable:
.Lfunc_begin5:
	.loc	4 114 0 is_stmt 1       @ ../Basic/Source/gd32e23x_adc.c:114:0
	.fnstart
	.cfi_startproc
@ %bb.0:
	ldr	r0, __arm_cp.5_0
.Ltmp13:
	.loc	4 115 14 prologue_end   @ ../Basic/Source/gd32e23x_adc.c:115:14
	ldr	r1, [r0]
	movw	r2, #256
	bics	r1, r2
	str	r1, [r0]
	.loc	4 116 1                 @ ../Basic/Source/gd32e23x_adc.c:116:1
	bx	lr
.Ltmp14:
	.p2align	2
@ %bb.1:
	.loc	4 0 1 is_stmt 0         @ ../Basic/Source/gd32e23x_adc.c:0:1
__arm_cp.5_0:
	.long	1073816584              @ 0x40012408
.Lcpi_end5:
	.size	__arm_cp.5_0, .Lcpi_end5-__arm_cp.5_0
.Lfunc_end5:
	.size	adc_dma_mode_disable, .Lfunc_end5-adc_dma_mode_disable
	.cfi_endproc
	.cantunwind
	.fnend
                                        @ -- End function
	.section	.text.adc_tempsensor_vrefint_enable,"ax",%progbits
	.hidden	adc_tempsensor_vrefint_enable @ -- Begin function adc_tempsensor_vrefint_enable
	.globl	adc_tempsensor_vrefint_enable
	.p2align	2
	.type	adc_tempsensor_vrefint_enable,%function
	.code	16                      @ @adc_tempsensor_vrefint_enable
	.thumb_func
adc_tempsensor_vrefint_enable:
.Lfunc_begin6:
	.loc	4 125 0 is_stmt 1       @ ../Basic/Source/gd32e23x_adc.c:125:0
	.fnstart
	.cfi_startproc
@ %bb.0:
	movs	r0, #1
	lsls	r0, r0, #23
	ldr	r1, __arm_cp.6_0
.Ltmp15:
	.loc	4 127 14 prologue_end   @ ../Basic/Source/gd32e23x_adc.c:127:14
	ldr	r2, [r1]
	orrs	r2, r0
	str	r2, [r1]
	.loc	4 128 1                 @ ../Basic/Source/gd32e23x_adc.c:128:1
	bx	lr
.Ltmp16:
	.p2align	2
@ %bb.1:
	.loc	4 0 1 is_stmt 0         @ ../Basic/Source/gd32e23x_adc.c:0:1
__arm_cp.6_0:
	.long	1073816584              @ 0x40012408
.Lcpi_end6:
	.size	__arm_cp.6_0, .Lcpi_end6-__arm_cp.6_0
.Lfunc_end6:
	.size	adc_tempsensor_vrefint_enable, .Lfunc_end6-adc_tempsensor_vrefint_enable
	.cfi_endproc
	.cantunwind
	.fnend
                                        @ -- End function
	.section	.text.adc_tempsensor_vrefint_disable,"ax",%progbits
	.hidden	adc_tempsensor_vrefint_disable @ -- Begin function adc_tempsensor_vrefint_disable
	.globl	adc_tempsensor_vrefint_disable
	.p2align	2
	.type	adc_tempsensor_vrefint_disable,%function
	.code	16                      @ @adc_tempsensor_vrefint_disable
	.thumb_func
adc_tempsensor_vrefint_disable:
.Lfunc_begin7:
	.loc	4 137 0 is_stmt 1       @ ../Basic/Source/gd32e23x_adc.c:137:0
	.fnstart
	.cfi_startproc
@ %bb.0:
	movs	r0, #1
	lsls	r0, r0, #23
	ldr	r1, __arm_cp.7_0
.Ltmp17:
	.loc	4 139 14 prologue_end   @ ../Basic/Source/gd32e23x_adc.c:139:14
	ldr	r2, [r1]
	bics	r2, r0
	str	r2, [r1]
	.loc	4 140 1                 @ ../Basic/Source/gd32e23x_adc.c:140:1
	bx	lr
.Ltmp18:
	.p2align	2
@ %bb.1:
	.loc	4 0 1 is_stmt 0         @ ../Basic/Source/gd32e23x_adc.c:0:1
__arm_cp.7_0:
	.long	1073816584              @ 0x40012408
.Lcpi_end7:
	.size	__arm_cp.7_0, .Lcpi_end7-__arm_cp.7_0
.Lfunc_end7:
	.size	adc_tempsensor_vrefint_disable, .Lfunc_end7-adc_tempsensor_vrefint_disable
	.cfi_endproc
	.cantunwind
	.fnend
                                        @ -- End function
	.section	.text.adc_discontinuous_mode_config,"ax",%progbits
	.hidden	adc_discontinuous_mode_config @ -- Begin function adc_discontinuous_mode_config
	.globl	adc_discontinuous_mode_config
	.p2align	2
	.type	adc_discontinuous_mode_config,%function
	.code	16                      @ @adc_discontinuous_mode_config
	.thumb_func
adc_discontinuous_mode_config:
.Lfunc_begin8:
	.loc	4 155 0 is_stmt 1       @ ../Basic/Source/gd32e23x_adc.c:155:0
	.fnstart
	.cfi_startproc
@ %bb.0:
	@DEBUG_VALUE: adc_discontinuous_mode_config:channel_group <- $r0
	@DEBUG_VALUE: adc_discontinuous_mode_config:channel_group <- $r0
	@DEBUG_VALUE: adc_discontinuous_mode_config:length <- $r1
	@DEBUG_VALUE: adc_discontinuous_mode_config:length <- $r1
	.save	{r4, lr}
	push	{r4, lr}
	.cfi_def_cfa_offset 8
	.cfi_offset lr, -4
	.cfi_offset r4, -8
	ldr	r2, __arm_cp.8_0
.Ltmp19:
	.loc	4 156 14 prologue_end   @ ../Basic/Source/gd32e23x_adc.c:156:14
	ldr	r3, [r2]
	movw	r4, #6144
	bics	r3, r4
	str	r3, [r2]
	.loc	4 158 5                 @ ../Basic/Source/gd32e23x_adc.c:158:5
	cmp	r0, #2
	beq	.LBB8_3
.Ltmp20:
@ %bb.1:
	@DEBUG_VALUE: adc_discontinuous_mode_config:length <- $r1
	@DEBUG_VALUE: adc_discontinuous_mode_config:channel_group <- $r0
	cmp	r0, #1
	bne	.LBB8_5
.Ltmp21:
@ %bb.2:
	@DEBUG_VALUE: adc_discontinuous_mode_config:length <- $r1
	@DEBUG_VALUE: adc_discontinuous_mode_config:channel_group <- $r0
	.loc	4 161 18                @ ../Basic/Source/gd32e23x_adc.c:161:18
	ldr	r0, [r2]
.Ltmp22:
	.loc	4 0 18 is_stmt 0        @ ../Basic/Source/gd32e23x_adc.c:0:18
	movw	r3, #57344
	.loc	4 161 18                @ ../Basic/Source/gd32e23x_adc.c:161:18
	bics	r0, r3
	str	r0, [r2]
	.loc	4 162 21 is_stmt 1      @ ../Basic/Source/gd32e23x_adc.c:162:21
	lsls	r0, r1, #13
	adds	r0, r0, r3
	uxth	r0, r0
	.loc	4 162 18 is_stmt 0      @ ../Basic/Source/gd32e23x_adc.c:162:18
	ldr	r1, [r2]
.Ltmp23:
	orrs	r1, r0
	str	r1, [r2]
	movw	r0, #2048
	b	.LBB8_4
.LBB8_3:
.Ltmp24:
	@DEBUG_VALUE: adc_discontinuous_mode_config:length <- $r1
	@DEBUG_VALUE: adc_discontinuous_mode_config:channel_group <- $r0
	.loc	4 0 18                  @ ../Basic/Source/gd32e23x_adc.c:0:18
	movw	r0, #4096
.Ltmp25:
.LBB8_4:
	ldr	r1, [r2]
	orrs	r1, r0
	str	r1, [r2]
.Ltmp26:
.LBB8_5:
	.loc	4 172 1 is_stmt 1       @ ../Basic/Source/gd32e23x_adc.c:172:1
	pop	{r4, pc}
.Ltmp27:
	.p2align	2
@ %bb.6:
	.loc	4 0 1 is_stmt 0         @ ../Basic/Source/gd32e23x_adc.c:0:1
__arm_cp.8_0:
	.long	1073816580              @ 0x40012404
.Lcpi_end8:
	.size	__arm_cp.8_0, .Lcpi_end8-__arm_cp.8_0
.Lfunc_end8:
	.size	adc_discontinuous_mode_config, .Lfunc_end8-adc_discontinuous_mode_config
	.cfi_endproc
	.cantunwind
	.fnend
                                        @ -- End function
	.section	.text.adc_special_function_config,"ax",%progbits
	.hidden	adc_special_function_config @ -- Begin function adc_special_function_config
	.globl	adc_special_function_config
	.p2align	2
	.type	adc_special_function_config,%function
	.code	16                      @ @adc_special_function_config
	.thumb_func
adc_special_function_config:
.Lfunc_begin9:
	.loc	4 186 0 is_stmt 1       @ ../Basic/Source/gd32e23x_adc.c:186:0
	.fnstart
	.cfi_startproc
@ %bb.0:
	@DEBUG_VALUE: adc_special_function_config:function <- $r0
	@DEBUG_VALUE: adc_special_function_config:function <- $r0
	@DEBUG_VALUE: adc_special_function_config:newvalue <- $r1
	@DEBUG_VALUE: adc_special_function_config:newvalue <- $r1
	movw	r2, #256
.Ltmp28:
	.loc	4 0 0 prologue_end      @ ../Basic/Source/gd32e23x_adc.c:0:0
	mov	r3, r0
	ands	r3, r2
.Ltmp29:
	.loc	4 187 8                 @ ../Basic/Source/gd32e23x_adc.c:187:8
	cbz	r1, .LBB9_7
.Ltmp30:
@ %bb.1:
	@DEBUG_VALUE: adc_special_function_config:newvalue <- $r1
	@DEBUG_VALUE: adc_special_function_config:function <- $r0
	.loc	4 0 8 is_stmt 0         @ ../Basic/Source/gd32e23x_adc.c:0:8
	ldr	r1, __arm_cp.9_0
.Ltmp31:
	.loc	4 189 12 is_stmt 1      @ ../Basic/Source/gd32e23x_adc.c:189:12
	cbz	r3, .LBB9_3
.Ltmp32:
@ %bb.2:
	@DEBUG_VALUE: adc_special_function_config:function <- $r0
	.loc	4 190 22                @ ../Basic/Source/gd32e23x_adc.c:190:22
	ldr	r3, [r1]
	orrs	r3, r2
	str	r3, [r1]
.Ltmp33:
.LBB9_3:
	@DEBUG_VALUE: adc_special_function_config:function <- $r0
	.loc	4 193 12                @ ../Basic/Source/gd32e23x_adc.c:193:12
	lsls	r2, r0, #21
	bpl	.LBB9_5
.Ltmp34:
@ %bb.4:
	@DEBUG_VALUE: adc_special_function_config:function <- $r0
	.loc	4 0 12 is_stmt 0        @ ../Basic/Source/gd32e23x_adc.c:0:12
	movw	r2, #1024
.Ltmp35:
	.loc	4 194 22 is_stmt 1      @ ../Basic/Source/gd32e23x_adc.c:194:22
	ldr	r3, [r1]
	orrs	r3, r2
	str	r3, [r1]
.Ltmp36:
.LBB9_5:
	@DEBUG_VALUE: adc_special_function_config:function <- $r0
	.loc	4 197 12                @ ../Basic/Source/gd32e23x_adc.c:197:12
	lsls	r0, r0, #30
.Ltmp37:
	bpl	.LBB9_13
@ %bb.6:
.Ltmp38:
	.loc	4 198 22                @ ../Basic/Source/gd32e23x_adc.c:198:22
	ldr	r0, [r1, #4]
	movs	r2, #2
	orrs	r2, r0
	str	r2, [r1, #4]
.Ltmp39:
	.loc	4 214 1                 @ ../Basic/Source/gd32e23x_adc.c:214:1
	bx	lr
.LBB9_7:
.Ltmp40:
	@DEBUG_VALUE: adc_special_function_config:newvalue <- $r1
	@DEBUG_VALUE: adc_special_function_config:function <- $r0
	.loc	4 0 1 is_stmt 0         @ ../Basic/Source/gd32e23x_adc.c:0:1
	ldr	r1, __arm_cp.9_0
.Ltmp41:
	.loc	4 202 12 is_stmt 1      @ ../Basic/Source/gd32e23x_adc.c:202:12
	cbz	r3, .LBB9_9
.Ltmp42:
@ %bb.8:
	@DEBUG_VALUE: adc_special_function_config:function <- $r0
	.loc	4 203 22                @ ../Basic/Source/gd32e23x_adc.c:203:22
	ldr	r2, [r1]
	movw	r3, #256
	bics	r2, r3
	str	r2, [r1]
.Ltmp43:
.LBB9_9:
	@DEBUG_VALUE: adc_special_function_config:function <- $r0
	.loc	4 206 12                @ ../Basic/Source/gd32e23x_adc.c:206:12
	lsls	r2, r0, #21
	bpl	.LBB9_11
.Ltmp44:
@ %bb.10:
	@DEBUG_VALUE: adc_special_function_config:function <- $r0
	.loc	4 207 22                @ ../Basic/Source/gd32e23x_adc.c:207:22
	ldr	r2, [r1]
	movw	r3, #1024
	bics	r2, r3
	str	r2, [r1]
.Ltmp45:
.LBB9_11:
	@DEBUG_VALUE: adc_special_function_config:function <- $r0
	.loc	4 210 12                @ ../Basic/Source/gd32e23x_adc.c:210:12
	lsls	r0, r0, #30
.Ltmp46:
	bpl	.LBB9_13
@ %bb.12:
.Ltmp47:
	.loc	4 211 22                @ ../Basic/Source/gd32e23x_adc.c:211:22
	ldr	r0, [r1, #4]
	movs	r2, #2
	bics	r0, r2
	str	r0, [r1, #4]
.Ltmp48:
.LBB9_13:
	.loc	4 214 1                 @ ../Basic/Source/gd32e23x_adc.c:214:1
	bx	lr
.Ltmp49:
	.p2align	2
@ %bb.14:
	.loc	4 0 1 is_stmt 0         @ ../Basic/Source/gd32e23x_adc.c:0:1
__arm_cp.9_0:
	.long	1073816580              @ 0x40012404
.Lcpi_end9:
	.size	__arm_cp.9_0, .Lcpi_end9-__arm_cp.9_0
.Lfunc_end9:
	.size	adc_special_function_config, .Lfunc_end9-adc_special_function_config
	.cfi_endproc
	.cantunwind
	.fnend
                                        @ -- End function
	.section	.text.adc_data_alignment_config,"ax",%progbits
	.hidden	adc_data_alignment_config @ -- Begin function adc_data_alignment_config
	.globl	adc_data_alignment_config
	.p2align	2
	.type	adc_data_alignment_config,%function
	.code	16                      @ @adc_data_alignment_config
	.thumb_func
adc_data_alignment_config:
.Lfunc_begin10:
	.loc	4 226 0 is_stmt 1       @ ../Basic/Source/gd32e23x_adc.c:226:0
	.fnstart
	.cfi_startproc
@ %bb.0:
	@DEBUG_VALUE: adc_data_alignment_config:data_alignment <- $r0
	@DEBUG_VALUE: adc_data_alignment_config:data_alignment <- $r0
	ldr	r1, __arm_cp.10_0
.Ltmp50:
	.loc	4 0 0 prologue_end      @ ../Basic/Source/gd32e23x_adc.c:0:0
	ldr	r2, [r1]
	movw	r3, #2048
.Ltmp51:
	.loc	4 227 8                 @ ../Basic/Source/gd32e23x_adc.c:227:8
	cbz	r0, .LBB10_2
.Ltmp52:
@ %bb.1:
	@DEBUG_VALUE: adc_data_alignment_config:data_alignment <- $r0
	.loc	4 0 8 is_stmt 0         @ ../Basic/Source/gd32e23x_adc.c:0:8
	orrs	r2, r3
	b	.LBB10_3
.Ltmp53:
.LBB10_2:
	@DEBUG_VALUE: adc_data_alignment_config:data_alignment <- $r0
	bics	r2, r3
.Ltmp54:
.LBB10_3:
	@DEBUG_VALUE: adc_data_alignment_config:data_alignment <- $r0
	str	r2, [r1]
.Ltmp55:
	.loc	4 232 1 is_stmt 1       @ ../Basic/Source/gd32e23x_adc.c:232:1
	bx	lr
.Ltmp56:
	.p2align	2
@ %bb.4:
	.loc	4 0 1 is_stmt 0         @ ../Basic/Source/gd32e23x_adc.c:0:1
__arm_cp.10_0:
	.long	1073816584              @ 0x40012408
.Lcpi_end10:
	.size	__arm_cp.10_0, .Lcpi_end10-__arm_cp.10_0
.Lfunc_end10:
	.size	adc_data_alignment_config, .Lfunc_end10-adc_data_alignment_config
	.cfi_endproc
	.cantunwind
	.fnend
                                        @ -- End function
	.section	.text.adc_channel_length_config,"ax",%progbits
	.hidden	adc_channel_length_config @ -- Begin function adc_channel_length_config
	.globl	adc_channel_length_config
	.p2align	2
	.type	adc_channel_length_config,%function
	.code	16                      @ @adc_channel_length_config
	.thumb_func
adc_channel_length_config:
.Lfunc_begin11:
	.loc	4 247 0 is_stmt 1       @ ../Basic/Source/gd32e23x_adc.c:247:0
	.fnstart
	.cfi_startproc
@ %bb.0:
	@DEBUG_VALUE: adc_channel_length_config:channel_group <- $r0
	@DEBUG_VALUE: adc_channel_length_config:channel_group <- $r0
	@DEBUG_VALUE: adc_channel_length_config:length <- $r1
	@DEBUG_VALUE: adc_channel_length_config:length <- $r1
	.loc	4 248 5 prologue_end    @ ../Basic/Source/gd32e23x_adc.c:248:5
	cmp	r0, #2
	beq	.LBB11_3
.Ltmp57:
@ %bb.1:
	@DEBUG_VALUE: adc_channel_length_config:length <- $r1
	@DEBUG_VALUE: adc_channel_length_config:channel_group <- $r0
	cmp	r0, #1
	bne	.LBB11_4
.Ltmp58:
@ %bb.2:
	@DEBUG_VALUE: adc_channel_length_config:length <- $r1
	@DEBUG_VALUE: adc_channel_length_config:channel_group <- $r0
	.loc	4 0 5 is_stmt 0         @ ../Basic/Source/gd32e23x_adc.c:0:5
	movs	r0, #15
.Ltmp59:
	lsls	r0, r0, #20
	ldr	r2, __arm_cp.11_0
.Ltmp60:
	.loc	4 251 18 is_stmt 1      @ ../Basic/Source/gd32e23x_adc.c:251:18
	ldr	r3, [r2]
	bics	r3, r0
	str	r3, [r2]
	.loc	4 252 21                @ ../Basic/Source/gd32e23x_adc.c:252:21
	lsls	r1, r1, #20
.Ltmp61:
	adds	r1, r1, r0
	ands	r1, r0
	.loc	4 252 18 is_stmt 0      @ ../Basic/Source/gd32e23x_adc.c:252:18
	ldr	r0, [r2]
	orrs	r0, r1
	str	r0, [r2]
.Ltmp62:
	.loc	4 262 1 is_stmt 1       @ ../Basic/Source/gd32e23x_adc.c:262:1
	bx	lr
.LBB11_3:
.Ltmp63:
	@DEBUG_VALUE: adc_channel_length_config:length <- $r1
	@DEBUG_VALUE: adc_channel_length_config:channel_group <- $r0
	.loc	4 0 1 is_stmt 0         @ ../Basic/Source/gd32e23x_adc.c:0:1
	movs	r0, #3
.Ltmp64:
	lsls	r0, r0, #20
	ldr	r2, __arm_cp.11_0
.Ltmp65:
	.loc	4 256 17 is_stmt 1      @ ../Basic/Source/gd32e23x_adc.c:256:17
	ldr	r3, [r2, #12]
	bics	r3, r0
	str	r3, [r2, #12]
	.loc	4 257 20                @ ../Basic/Source/gd32e23x_adc.c:257:20
	lsls	r1, r1, #20
.Ltmp66:
	adds	r1, r1, r0
	ands	r1, r0
	.loc	4 257 17 is_stmt 0      @ ../Basic/Source/gd32e23x_adc.c:257:17
	ldr	r0, [r2, #12]
	orrs	r0, r1
	str	r0, [r2, #12]
.Ltmp67:
.LBB11_4:
	.loc	4 262 1 is_stmt 1       @ ../Basic/Source/gd32e23x_adc.c:262:1
	bx	lr
.Ltmp68:
	.p2align	2
@ %bb.5:
	.loc	4 0 1 is_stmt 0         @ ../Basic/Source/gd32e23x_adc.c:0:1
__arm_cp.11_0:
	.long	1073816620              @ 0x4001242c
.Lcpi_end11:
	.size	__arm_cp.11_0, .Lcpi_end11-__arm_cp.11_0
.Lfunc_end11:
	.size	adc_channel_length_config, .Lfunc_end11-adc_channel_length_config
	.cfi_endproc
	.cantunwind
	.fnend
                                        @ -- End function
	.section	.text.adc_regular_channel_config,"ax",%progbits
	.hidden	adc_regular_channel_config @ -- Begin function adc_regular_channel_config
	.globl	adc_regular_channel_config
	.p2align	2
	.type	adc_regular_channel_config,%function
	.code	16                      @ @adc_regular_channel_config
	.thumb_func
adc_regular_channel_config:
.Lfunc_begin12:
	.loc	4 284 0 is_stmt 1       @ ../Basic/Source/gd32e23x_adc.c:284:0
	.fnstart
	.cfi_startproc
@ %bb.0:
	@DEBUG_VALUE: adc_regular_channel_config:rank <- $r0
	@DEBUG_VALUE: adc_regular_channel_config:rank <- $r0
	@DEBUG_VALUE: adc_regular_channel_config:channel <- $r1
	@DEBUG_VALUE: adc_regular_channel_config:channel <- $r1
	@DEBUG_VALUE: adc_regular_channel_config:sample_time <- $r2
	@DEBUG_VALUE: adc_regular_channel_config:sample_time <- $r2
	.save	{r4, r5, r7, lr}
	push	{r4, r5, r7, lr}
	.cfi_def_cfa_offset 16
	.cfi_offset lr, -4
	.cfi_offset r7, -8
	.cfi_offset r5, -12
	.cfi_offset r4, -16
	ldr	r3, __arm_cp.12_0
.Ltmp69:
	.loc	4 288 8 prologue_end    @ ../Basic/Source/gd32e23x_adc.c:288:8
	cmp	r0, #5
	bhi	.LBB12_2
.Ltmp70:
@ %bb.1:
	@DEBUG_VALUE: adc_regular_channel_config:sample_time <- $r2
	@DEBUG_VALUE: adc_regular_channel_config:channel <- $r1
	@DEBUG_VALUE: adc_regular_channel_config:rank <- $r0
	.loc	4 0 8 is_stmt 0         @ ../Basic/Source/gd32e23x_adc.c:0:8
	movs	r4, #5
.Ltmp71:
	.loc	4 290 50 is_stmt 1      @ ../Basic/Source/gd32e23x_adc.c:290:50
	muls	r4, r0, r4
	.loc	4 291 35                @ ../Basic/Source/gd32e23x_adc.c:291:35
	mov	r0, r1
.Ltmp72:
	lsls	r0, r4
	movs	r5, #31
	.loc	4 290 44                @ ../Basic/Source/gd32e23x_adc.c:290:44
	lsls	r5, r4
	.loc	4 289 15                @ ../Basic/Source/gd32e23x_adc.c:289:15
	ldr	r4, [r3, #40]
.Ltmp73:
	@DEBUG_VALUE: adc_regular_channel_config:rsq <- $r4
	.loc	4 290 13                @ ../Basic/Source/gd32e23x_adc.c:290:13
	bics	r4, r5
.Ltmp74:
	@DEBUG_VALUE: adc_regular_channel_config:rsq <- $r4
	.loc	4 291 13                @ ../Basic/Source/gd32e23x_adc.c:291:13
	orrs	r4, r0
.Ltmp75:
	@DEBUG_VALUE: adc_regular_channel_config:rsq <- $r4
	.loc	4 292 18                @ ../Basic/Source/gd32e23x_adc.c:292:18
	str	r4, [r3, #40]
	b	.LBB12_6
.Ltmp76:
.LBB12_2:
	@DEBUG_VALUE: adc_regular_channel_config:sample_time <- $r2
	@DEBUG_VALUE: adc_regular_channel_config:channel <- $r1
	@DEBUG_VALUE: adc_regular_channel_config:rank <- $r0
	.loc	4 293 14                @ ../Basic/Source/gd32e23x_adc.c:293:14
	cmp	r0, #11
	bhi	.LBB12_4
.Ltmp77:
@ %bb.3:
	@DEBUG_VALUE: adc_regular_channel_config:sample_time <- $r2
	@DEBUG_VALUE: adc_regular_channel_config:channel <- $r1
	@DEBUG_VALUE: adc_regular_channel_config:rank <- $r0
	.loc	4 0 14 is_stmt 0        @ ../Basic/Source/gd32e23x_adc.c:0:14
	movs	r4, #5
.Ltmp78:
	.loc	4 295 49 is_stmt 1      @ ../Basic/Source/gd32e23x_adc.c:295:49
	muls	r4, r0, r4
	subs	r4, #30
	.loc	4 296 35                @ ../Basic/Source/gd32e23x_adc.c:296:35
	mov	r0, r1
.Ltmp79:
	lsls	r0, r4
	movs	r5, #31
	.loc	4 295 43                @ ../Basic/Source/gd32e23x_adc.c:295:43
	lsls	r5, r4
	.loc	4 294 15                @ ../Basic/Source/gd32e23x_adc.c:294:15
	ldr	r4, [r3, #36]
.Ltmp80:
	@DEBUG_VALUE: adc_regular_channel_config:rsq <- $r4
	.loc	4 295 13                @ ../Basic/Source/gd32e23x_adc.c:295:13
	bics	r4, r5
.Ltmp81:
	@DEBUG_VALUE: adc_regular_channel_config:rsq <- $r4
	.loc	4 296 13                @ ../Basic/Source/gd32e23x_adc.c:296:13
	orrs	r4, r0
.Ltmp82:
	@DEBUG_VALUE: adc_regular_channel_config:rsq <- $r4
	.loc	4 297 18                @ ../Basic/Source/gd32e23x_adc.c:297:18
	str	r4, [r3, #36]
	b	.LBB12_6
.Ltmp83:
.LBB12_4:
	@DEBUG_VALUE: adc_regular_channel_config:sample_time <- $r2
	@DEBUG_VALUE: adc_regular_channel_config:channel <- $r1
	@DEBUG_VALUE: adc_regular_channel_config:rank <- $r0
	.loc	4 298 14                @ ../Basic/Source/gd32e23x_adc.c:298:14
	cmp	r0, #16
	bhs	.LBB12_6
.Ltmp84:
@ %bb.5:
	@DEBUG_VALUE: adc_regular_channel_config:sample_time <- $r2
	@DEBUG_VALUE: adc_regular_channel_config:channel <- $r1
	@DEBUG_VALUE: adc_regular_channel_config:rank <- $r0
	.loc	4 0 14 is_stmt 0        @ ../Basic/Source/gd32e23x_adc.c:0:14
	movs	r4, #5
.Ltmp85:
	.loc	4 300 49 is_stmt 1      @ ../Basic/Source/gd32e23x_adc.c:300:49
	muls	r4, r0, r4
	subs	r4, #60
	.loc	4 301 35                @ ../Basic/Source/gd32e23x_adc.c:301:35
	mov	r0, r1
.Ltmp86:
	lsls	r0, r4
	movs	r5, #31
	.loc	4 300 43                @ ../Basic/Source/gd32e23x_adc.c:300:43
	lsls	r5, r4
	.loc	4 299 15                @ ../Basic/Source/gd32e23x_adc.c:299:15
	ldr	r4, [r3, #32]
.Ltmp87:
	@DEBUG_VALUE: adc_regular_channel_config:rsq <- $r4
	.loc	4 300 13                @ ../Basic/Source/gd32e23x_adc.c:300:13
	bics	r4, r5
.Ltmp88:
	@DEBUG_VALUE: adc_regular_channel_config:rsq <- $r4
	.loc	4 301 13                @ ../Basic/Source/gd32e23x_adc.c:301:13
	orrs	r4, r0
.Ltmp89:
	@DEBUG_VALUE: adc_regular_channel_config:rsq <- $r4
	.loc	4 302 18                @ ../Basic/Source/gd32e23x_adc.c:302:18
	str	r4, [r3, #32]
.Ltmp90:
.LBB12_6:
	@DEBUG_VALUE: adc_regular_channel_config:sample_time <- $r2
	@DEBUG_VALUE: adc_regular_channel_config:channel <- $r1
	.loc	4 307 8                 @ ../Basic/Source/gd32e23x_adc.c:307:8
	cmp	r1, #9
	bhi	.LBB12_8
.Ltmp91:
@ %bb.7:
	@DEBUG_VALUE: adc_regular_channel_config:sample_time <- $r2
	@DEBUG_VALUE: adc_regular_channel_config:channel <- $r1
	.loc	4 0 8 is_stmt 0         @ ../Basic/Source/gd32e23x_adc.c:0:8
	movs	r0, #3
.Ltmp92:
	.loc	4 309 53 is_stmt 1      @ ../Basic/Source/gd32e23x_adc.c:309:53
	muls	r0, r1, r0
	.loc	4 310 41                @ ../Basic/Source/gd32e23x_adc.c:310:41
	lsls	r2, r0
.Ltmp93:
	.loc	4 0 41 is_stmt 0        @ ../Basic/Source/gd32e23x_adc.c:0:41
	movs	r1, #7
.Ltmp94:
	.loc	4 309 47 is_stmt 1      @ ../Basic/Source/gd32e23x_adc.c:309:47
	lsls	r1, r0
	.loc	4 308 17                @ ../Basic/Source/gd32e23x_adc.c:308:17
	ldr	r0, [r3, #4]
.Ltmp95:
	@DEBUG_VALUE: adc_regular_channel_config:sampt <- $r0
	.loc	4 309 15                @ ../Basic/Source/gd32e23x_adc.c:309:15
	bics	r0, r1
.Ltmp96:
	@DEBUG_VALUE: adc_regular_channel_config:sampt <- $r0
	.loc	4 310 15                @ ../Basic/Source/gd32e23x_adc.c:310:15
	orrs	r0, r2
.Ltmp97:
	@DEBUG_VALUE: adc_regular_channel_config:sampt <- $r0
	.loc	4 311 20                @ ../Basic/Source/gd32e23x_adc.c:311:20
	str	r0, [r3, #4]
.Ltmp98:
	.loc	4 320 1                 @ ../Basic/Source/gd32e23x_adc.c:320:1
	pop	{r4, r5, r7, pc}
.Ltmp99:
.LBB12_8:
	@DEBUG_VALUE: adc_regular_channel_config:sample_time <- $r2
	@DEBUG_VALUE: adc_regular_channel_config:channel <- $r1
	.loc	4 312 14                @ ../Basic/Source/gd32e23x_adc.c:312:14
	cmp	r1, #18
	bhi	.LBB12_10
.Ltmp100:
@ %bb.9:
	@DEBUG_VALUE: adc_regular_channel_config:sample_time <- $r2
	@DEBUG_VALUE: adc_regular_channel_config:channel <- $r1
	.loc	4 0 14 is_stmt 0        @ ../Basic/Source/gd32e23x_adc.c:0:14
	movs	r0, #3
.Ltmp101:
	.loc	4 314 53 is_stmt 1      @ ../Basic/Source/gd32e23x_adc.c:314:53
	muls	r0, r1, r0
	subs	r0, #30
	.loc	4 315 41                @ ../Basic/Source/gd32e23x_adc.c:315:41
	lsls	r2, r0
.Ltmp102:
	.loc	4 0 41 is_stmt 0        @ ../Basic/Source/gd32e23x_adc.c:0:41
	movs	r1, #7
.Ltmp103:
	.loc	4 314 47 is_stmt 1      @ ../Basic/Source/gd32e23x_adc.c:314:47
	lsls	r1, r0
	.loc	4 313 17                @ ../Basic/Source/gd32e23x_adc.c:313:17
	ldr	r0, [r3]
.Ltmp104:
	@DEBUG_VALUE: adc_regular_channel_config:sampt <- $r0
	.loc	4 314 15                @ ../Basic/Source/gd32e23x_adc.c:314:15
	bics	r0, r1
.Ltmp105:
	@DEBUG_VALUE: adc_regular_channel_config:sampt <- $r0
	.loc	4 315 15                @ ../Basic/Source/gd32e23x_adc.c:315:15
	orrs	r0, r2
.Ltmp106:
	@DEBUG_VALUE: adc_regular_channel_config:sampt <- $r0
	.loc	4 316 20                @ ../Basic/Source/gd32e23x_adc.c:316:20
	str	r0, [r3]
.Ltmp107:
.LBB12_10:
	.loc	4 320 1                 @ ../Basic/Source/gd32e23x_adc.c:320:1
	pop	{r4, r5, r7, pc}
.Ltmp108:
	.p2align	2
@ %bb.11:
	.loc	4 0 1 is_stmt 0         @ ../Basic/Source/gd32e23x_adc.c:0:1
__arm_cp.12_0:
	.long	1073816588              @ 0x4001240c
.Lcpi_end12:
	.size	__arm_cp.12_0, .Lcpi_end12-__arm_cp.12_0
.Lfunc_end12:
	.size	adc_regular_channel_config, .Lfunc_end12-adc_regular_channel_config
	.cfi_endproc
	.cantunwind
	.fnend
                                        @ -- End function
	.section	.text.adc_inserted_channel_config,"ax",%progbits
	.hidden	adc_inserted_channel_config @ -- Begin function adc_inserted_channel_config
	.globl	adc_inserted_channel_config
	.p2align	2
	.type	adc_inserted_channel_config,%function
	.code	16                      @ @adc_inserted_channel_config
	.thumb_func
adc_inserted_channel_config:
.Lfunc_begin13:
	.loc	4 342 0 is_stmt 1       @ ../Basic/Source/gd32e23x_adc.c:342:0
	.fnstart
	.cfi_startproc
@ %bb.0:
	@DEBUG_VALUE: adc_inserted_channel_config:rank <- $r0
	@DEBUG_VALUE: adc_inserted_channel_config:rank <- $r0
	@DEBUG_VALUE: adc_inserted_channel_config:channel <- $r1
	@DEBUG_VALUE: adc_inserted_channel_config:channel <- $r1
	@DEBUG_VALUE: adc_inserted_channel_config:sample_time <- $r2
	@DEBUG_VALUE: adc_inserted_channel_config:sample_time <- $r2
	.save	{r4, r5, r7, lr}
	push	{r4, r5, r7, lr}
	.cfi_def_cfa_offset 16
	.cfi_offset lr, -4
	.cfi_offset r7, -8
	.cfi_offset r5, -12
	.cfi_offset r4, -16
	ldr	r3, __arm_cp.13_0
.Ltmp109:
	.loc	4 346 32 prologue_end   @ ../Basic/Source/gd32e23x_adc.c:346:32
	ldr	r4, [r3, #44]
	.loc	4 346 23 is_stmt 0      @ ../Basic/Source/gd32e23x_adc.c:346:23
	lsls	r4, r4, #10
	lsrs	r4, r4, #30
	.loc	4 349 65 is_stmt 1      @ ../Basic/Source/gd32e23x_adc.c:349:65
	subs	r0, r4, r0
.Ltmp110:
	.loc	4 0 65 is_stmt 0        @ ../Basic/Source/gd32e23x_adc.c:0:65
	movs	r4, #4
	mvns	r4, r4
	.loc	4 349 46                @ ../Basic/Source/gd32e23x_adc.c:349:46
	muls	r4, r0, r4
	adds	r4, #15
	.loc	4 350 31 is_stmt 1      @ ../Basic/Source/gd32e23x_adc.c:350:31
	mov	r0, r1
	lsls	r0, r4
	movs	r5, #31
	.loc	4 349 38                @ ../Basic/Source/gd32e23x_adc.c:349:38
	lsls	r5, r4
.Ltmp111:
	@DEBUG_VALUE: adc_inserted_channel_config:inserted_length <- [DW_OP_LLVM_convert 32 7, DW_OP_LLVM_convert 8 7, DW_OP_constu 3, DW_OP_and, DW_OP_stack_value] undef
	.loc	4 348 11                @ ../Basic/Source/gd32e23x_adc.c:348:11
	ldr	r4, [r3, #44]
.Ltmp112:
	@DEBUG_VALUE: adc_inserted_channel_config:isq <- $r4
	.loc	4 349 9                 @ ../Basic/Source/gd32e23x_adc.c:349:9
	bics	r4, r5
.Ltmp113:
	@DEBUG_VALUE: adc_inserted_channel_config:isq <- $r4
	.loc	4 350 9                 @ ../Basic/Source/gd32e23x_adc.c:350:9
	orrs	r4, r0
.Ltmp114:
	@DEBUG_VALUE: adc_inserted_channel_config:isq <- $r4
	.loc	4 351 13                @ ../Basic/Source/gd32e23x_adc.c:351:13
	str	r4, [r3, #44]
	.loc	4 354 8                 @ ../Basic/Source/gd32e23x_adc.c:354:8
	cmp	r1, #9
	bhi	.LBB13_2
.Ltmp115:
@ %bb.1:
	@DEBUG_VALUE: adc_inserted_channel_config:isq <- $r4
	@DEBUG_VALUE: adc_inserted_channel_config:sample_time <- $r2
	@DEBUG_VALUE: adc_inserted_channel_config:channel <- $r1
	.loc	4 0 8 is_stmt 0         @ ../Basic/Source/gd32e23x_adc.c:0:8
	movs	r0, #3
.Ltmp116:
	.loc	4 356 53 is_stmt 1      @ ../Basic/Source/gd32e23x_adc.c:356:53
	muls	r0, r1, r0
	.loc	4 357 41                @ ../Basic/Source/gd32e23x_adc.c:357:41
	lsls	r2, r0
.Ltmp117:
	.loc	4 0 41 is_stmt 0        @ ../Basic/Source/gd32e23x_adc.c:0:41
	movs	r1, #7
.Ltmp118:
	.loc	4 356 47 is_stmt 1      @ ../Basic/Source/gd32e23x_adc.c:356:47
	lsls	r1, r0
	.loc	4 355 17                @ ../Basic/Source/gd32e23x_adc.c:355:17
	ldr	r0, [r3, #4]
.Ltmp119:
	@DEBUG_VALUE: adc_inserted_channel_config:sampt <- $r0
	.loc	4 356 15                @ ../Basic/Source/gd32e23x_adc.c:356:15
	bics	r0, r1
.Ltmp120:
	@DEBUG_VALUE: adc_inserted_channel_config:sampt <- $r0
	.loc	4 357 15                @ ../Basic/Source/gd32e23x_adc.c:357:15
	orrs	r0, r2
.Ltmp121:
	@DEBUG_VALUE: adc_inserted_channel_config:sampt <- $r0
	.loc	4 358 20                @ ../Basic/Source/gd32e23x_adc.c:358:20
	str	r0, [r3, #4]
.Ltmp122:
	.loc	4 367 1                 @ ../Basic/Source/gd32e23x_adc.c:367:1
	pop	{r4, r5, r7, pc}
.Ltmp123:
.LBB13_2:
	@DEBUG_VALUE: adc_inserted_channel_config:isq <- $r4
	@DEBUG_VALUE: adc_inserted_channel_config:sample_time <- $r2
	@DEBUG_VALUE: adc_inserted_channel_config:channel <- $r1
	.loc	4 359 14                @ ../Basic/Source/gd32e23x_adc.c:359:14
	cmp	r1, #18
	bhi	.LBB13_4
.Ltmp124:
@ %bb.3:
	@DEBUG_VALUE: adc_inserted_channel_config:isq <- $r4
	@DEBUG_VALUE: adc_inserted_channel_config:sample_time <- $r2
	@DEBUG_VALUE: adc_inserted_channel_config:channel <- $r1
	.loc	4 0 14 is_stmt 0        @ ../Basic/Source/gd32e23x_adc.c:0:14
	movs	r0, #3
.Ltmp125:
	.loc	4 361 53 is_stmt 1      @ ../Basic/Source/gd32e23x_adc.c:361:53
	muls	r0, r1, r0
	subs	r0, #30
	.loc	4 362 41                @ ../Basic/Source/gd32e23x_adc.c:362:41
	lsls	r2, r0
.Ltmp126:
	.loc	4 0 41 is_stmt 0        @ ../Basic/Source/gd32e23x_adc.c:0:41
	movs	r1, #7
.Ltmp127:
	.loc	4 361 47 is_stmt 1      @ ../Basic/Source/gd32e23x_adc.c:361:47
	lsls	r1, r0
	.loc	4 360 17                @ ../Basic/Source/gd32e23x_adc.c:360:17
	ldr	r0, [r3]
.Ltmp128:
	@DEBUG_VALUE: adc_inserted_channel_config:sampt <- $r0
	.loc	4 361 15                @ ../Basic/Source/gd32e23x_adc.c:361:15
	bics	r0, r1
.Ltmp129:
	@DEBUG_VALUE: adc_inserted_channel_config:sampt <- $r0
	.loc	4 362 15                @ ../Basic/Source/gd32e23x_adc.c:362:15
	orrs	r0, r2
.Ltmp130:
	@DEBUG_VALUE: adc_inserted_channel_config:sampt <- $r0
	.loc	4 363 20                @ ../Basic/Source/gd32e23x_adc.c:363:20
	str	r0, [r3]
.Ltmp131:
.LBB13_4:
	@DEBUG_VALUE: adc_inserted_channel_config:isq <- $r4
	.loc	4 367 1                 @ ../Basic/Source/gd32e23x_adc.c:367:1
	pop	{r4, r5, r7, pc}
.Ltmp132:
	.p2align	2
@ %bb.5:
	.loc	4 0 1 is_stmt 0         @ ../Basic/Source/gd32e23x_adc.c:0:1
__arm_cp.13_0:
	.long	1073816588              @ 0x4001240c
.Lcpi_end13:
	.size	__arm_cp.13_0, .Lcpi_end13-__arm_cp.13_0
.Lfunc_end13:
	.size	adc_inserted_channel_config, .Lfunc_end13-adc_inserted_channel_config
	.cfi_endproc
	.cantunwind
	.fnend
                                        @ -- End function
	.section	.text.adc_inserted_channel_offset_config,"ax",%progbits
	.hidden	adc_inserted_channel_offset_config @ -- Begin function adc_inserted_channel_offset_config
	.globl	adc_inserted_channel_offset_config
	.p2align	2
	.type	adc_inserted_channel_offset_config,%function
	.code	16                      @ @adc_inserted_channel_offset_config
	.thumb_func
adc_inserted_channel_offset_config:
.Lfunc_begin14:
	.loc	4 382 0 is_stmt 1       @ ../Basic/Source/gd32e23x_adc.c:382:0
	.fnstart
	.cfi_startproc
@ %bb.0:
	@DEBUG_VALUE: adc_inserted_channel_offset_config:inserted_channel <- $r0
	@DEBUG_VALUE: adc_inserted_channel_offset_config:inserted_channel <- $r0
	@DEBUG_VALUE: adc_inserted_channel_offset_config:offset <- $r1
	@DEBUG_VALUE: adc_inserted_channel_offset_config:offset <- $r1
	ldr	r2, __arm_cp.14_0
.Ltmp133:
	@DEBUG_VALUE: adc_inserted_channel_offset_config:num <- 0
	.loc	4 386 32 prologue_end   @ ../Basic/Source/gd32e23x_adc.c:386:32
	ldr	r3, [r2, #36]
	.loc	4 386 23 is_stmt 0      @ ../Basic/Source/gd32e23x_adc.c:386:23
	lsls	r3, r3, #10
	lsrs	r3, r3, #30
.Ltmp134:
	@DEBUG_VALUE: adc_inserted_channel_offset_config:inserted_length <- $r3
	.loc	4 387 14 is_stmt 1      @ ../Basic/Source/gd32e23x_adc.c:387:14
	subs	r0, r0, r3
.Ltmp135:
	adds	r0, r0, #3
.Ltmp136:
	@DEBUG_VALUE: adc_inserted_channel_offset_config:num <- $r0
	.loc	4 389 8                 @ ../Basic/Source/gd32e23x_adc.c:389:8
	cmp	r0, #3
	bhi	.LBB14_2
.Ltmp137:
@ %bb.1:
	@DEBUG_VALUE: adc_inserted_channel_offset_config:num <- $r0
	@DEBUG_VALUE: adc_inserted_channel_offset_config:inserted_length <- $r3
	@DEBUG_VALUE: adc_inserted_channel_offset_config:offset <- $r1
	.loc	4 0 8 is_stmt 0         @ ../Basic/Source/gd32e23x_adc.c:0:8
	ldr	r3, __arm_cp.14_1
.Ltmp138:
	.loc	4 393 38 is_stmt 1      @ ../Basic/Source/gd32e23x_adc.c:393:38
	ands	r1, r3
.Ltmp139:
	.loc	4 391 19                @ ../Basic/Source/gd32e23x_adc.c:391:19
	lsls	r0, r0, #2
.Ltmp140:
	@DEBUG_VALUE: adc_inserted_channel_offset_config:num <- $r0
	.loc	4 393 36                @ ../Basic/Source/gd32e23x_adc.c:393:36
	str	r1, [r0, r2]
.Ltmp141:
.LBB14_2:
	@DEBUG_VALUE: adc_inserted_channel_offset_config:num <- $r0
	.loc	4 395 1                 @ ../Basic/Source/gd32e23x_adc.c:395:1
	bx	lr
.Ltmp142:
	.p2align	2
@ %bb.3:
	.loc	4 0 1 is_stmt 0         @ ../Basic/Source/gd32e23x_adc.c:0:1
__arm_cp.14_0:
	.long	1073816596              @ 0x40012414
.Lcpi_end14:
	.size	__arm_cp.14_0, .Lcpi_end14-__arm_cp.14_0
__arm_cp.14_1:
	.long	4095                    @ 0xfff
.Lcpi_end15:
	.size	__arm_cp.14_1, .Lcpi_end15-__arm_cp.14_1
.Lfunc_end14:
	.size	adc_inserted_channel_offset_config, .Lfunc_end14-adc_inserted_channel_offset_config
	.cfi_endproc
	.cantunwind
	.fnend
                                        @ -- End function
	.section	.text.adc_external_trigger_config,"ax",%progbits
	.hidden	adc_external_trigger_config @ -- Begin function adc_external_trigger_config
	.globl	adc_external_trigger_config
	.p2align	2
	.type	adc_external_trigger_config,%function
	.code	16                      @ @adc_external_trigger_config
	.thumb_func
adc_external_trigger_config:
.Lfunc_begin15:
	.loc	4 408 0 is_stmt 1       @ ../Basic/Source/gd32e23x_adc.c:408:0
	.fnstart
	.cfi_startproc
@ %bb.0:
	@DEBUG_VALUE: adc_external_trigger_config:channel_group <- $r0
	@DEBUG_VALUE: adc_external_trigger_config:channel_group <- $r0
	@DEBUG_VALUE: adc_external_trigger_config:newvalue <- $r1
	@DEBUG_VALUE: adc_external_trigger_config:newvalue <- $r1
	movs	r2, #1
.Ltmp143:
	.loc	4 0 0 prologue_end      @ ../Basic/Source/gd32e23x_adc.c:0:0
	mov	r3, r0
	ands	r3, r2
.Ltmp144:
	.loc	4 409 8                 @ ../Basic/Source/gd32e23x_adc.c:409:8
	cbz	r1, .LBB15_5
.Ltmp145:
@ %bb.1:
	@DEBUG_VALUE: adc_external_trigger_config:newvalue <- $r1
	@DEBUG_VALUE: adc_external_trigger_config:channel_group <- $r0
	.loc	4 0 8 is_stmt 0         @ ../Basic/Source/gd32e23x_adc.c:0:8
	ldr	r1, __arm_cp.15_0
.Ltmp146:
	.loc	4 411 12 is_stmt 1      @ ../Basic/Source/gd32e23x_adc.c:411:12
	cbz	r3, .LBB15_3
.Ltmp147:
@ %bb.2:
	@DEBUG_VALUE: adc_external_trigger_config:channel_group <- $r0
	.loc	4 0 12 is_stmt 0        @ ../Basic/Source/gd32e23x_adc.c:0:12
	lsls	r2, r2, #20
.Ltmp148:
	.loc	4 412 22 is_stmt 1      @ ../Basic/Source/gd32e23x_adc.c:412:22
	ldr	r3, [r1]
	orrs	r3, r2
	str	r3, [r1]
.Ltmp149:
.LBB15_3:
	@DEBUG_VALUE: adc_external_trigger_config:channel_group <- $r0
	.loc	4 415 12                @ ../Basic/Source/gd32e23x_adc.c:415:12
	lsls	r0, r0, #30
.Ltmp150:
	bpl	.LBB15_9
@ %bb.4:
.Ltmp151:
	.loc	4 416 22                @ ../Basic/Source/gd32e23x_adc.c:416:22
	ldr	r0, [r1]
	movw	r2, #32768
	orrs	r2, r0
	str	r2, [r1]
.Ltmp152:
	.loc	4 428 1                 @ ../Basic/Source/gd32e23x_adc.c:428:1
	bx	lr
.LBB15_5:
.Ltmp153:
	@DEBUG_VALUE: adc_external_trigger_config:newvalue <- $r1
	@DEBUG_VALUE: adc_external_trigger_config:channel_group <- $r0
	.loc	4 0 1 is_stmt 0         @ ../Basic/Source/gd32e23x_adc.c:0:1
	ldr	r1, __arm_cp.15_0
.Ltmp154:
	.loc	4 420 12 is_stmt 1      @ ../Basic/Source/gd32e23x_adc.c:420:12
	cbz	r3, .LBB15_7
.Ltmp155:
@ %bb.6:
	@DEBUG_VALUE: adc_external_trigger_config:channel_group <- $r0
	.loc	4 0 12 is_stmt 0        @ ../Basic/Source/gd32e23x_adc.c:0:12
	lsls	r2, r2, #20
.Ltmp156:
	.loc	4 421 22 is_stmt 1      @ ../Basic/Source/gd32e23x_adc.c:421:22
	ldr	r3, [r1]
	bics	r3, r2
	str	r3, [r1]
.Ltmp157:
.LBB15_7:
	@DEBUG_VALUE: adc_external_trigger_config:channel_group <- $r0
	.loc	4 424 12                @ ../Basic/Source/gd32e23x_adc.c:424:12
	lsls	r0, r0, #30
.Ltmp158:
	bpl	.LBB15_9
@ %bb.8:
.Ltmp159:
	.loc	4 425 22                @ ../Basic/Source/gd32e23x_adc.c:425:22
	ldr	r0, [r1]
	movw	r2, #32768
	bics	r0, r2
	str	r0, [r1]
.Ltmp160:
.LBB15_9:
	.loc	4 428 1                 @ ../Basic/Source/gd32e23x_adc.c:428:1
	bx	lr
.Ltmp161:
	.p2align	2
@ %bb.10:
	.loc	4 0 1 is_stmt 0         @ ../Basic/Source/gd32e23x_adc.c:0:1
__arm_cp.15_0:
	.long	1073816584              @ 0x40012408
.Lcpi_end16:
	.size	__arm_cp.15_0, .Lcpi_end16-__arm_cp.15_0
.Lfunc_end15:
	.size	adc_external_trigger_config, .Lfunc_end15-adc_external_trigger_config
	.cfi_endproc
	.cantunwind
	.fnend
                                        @ -- End function
	.section	.text.adc_external_trigger_source_config,"ax",%progbits
	.hidden	adc_external_trigger_source_config @ -- Begin function adc_external_trigger_source_config
	.globl	adc_external_trigger_source_config
	.p2align	2
	.type	adc_external_trigger_source_config,%function
	.code	16                      @ @adc_external_trigger_source_config
	.thumb_func
adc_external_trigger_source_config:
.Lfunc_begin16:
	.loc	4 457 0 is_stmt 1       @ ../Basic/Source/gd32e23x_adc.c:457:0
	.fnstart
	.cfi_startproc
@ %bb.0:
	@DEBUG_VALUE: adc_external_trigger_source_config:channel_group <- $r0
	@DEBUG_VALUE: adc_external_trigger_source_config:channel_group <- $r0
	@DEBUG_VALUE: adc_external_trigger_source_config:external_trigger_source <- $r1
	@DEBUG_VALUE: adc_external_trigger_source_config:external_trigger_source <- $r1
	.loc	4 458 5 prologue_end    @ ../Basic/Source/gd32e23x_adc.c:458:5
	cmp	r0, #1
	beq	.LBB16_3
.Ltmp162:
@ %bb.1:
	@DEBUG_VALUE: adc_external_trigger_source_config:external_trigger_source <- $r1
	@DEBUG_VALUE: adc_external_trigger_source_config:channel_group <- $r0
	cmp	r0, #2
	bne	.LBB16_5
.Ltmp163:
@ %bb.2:
	@DEBUG_VALUE: adc_external_trigger_source_config:external_trigger_source <- $r1
	@DEBUG_VALUE: adc_external_trigger_source_config:channel_group <- $r0
	.loc	4 0 5 is_stmt 0         @ ../Basic/Source/gd32e23x_adc.c:0:5
	ldr	r0, __arm_cp.16_1
.Ltmp164:
	b	.LBB16_4
.Ltmp165:
.LBB16_3:
	@DEBUG_VALUE: adc_external_trigger_source_config:external_trigger_source <- $r1
	@DEBUG_VALUE: adc_external_trigger_source_config:channel_group <- $r0
	ldr	r0, __arm_cp.16_0
.Ltmp166:
.LBB16_4:
	@DEBUG_VALUE: adc_external_trigger_source_config:external_trigger_source <- $r1
	ldr	r2, __arm_cp.16_2
.Ltmp167:
	ldr	r3, [r2]
	ands	r3, r0
	str	r3, [r2]
	ldr	r0, [r2]
	orrs	r0, r1
	str	r0, [r2]
.Ltmp168:
.LBB16_5:
	@DEBUG_VALUE: adc_external_trigger_source_config:external_trigger_source <- $r1
	.loc	4 472 1 is_stmt 1       @ ../Basic/Source/gd32e23x_adc.c:472:1
	bx	lr
.Ltmp169:
	.p2align	2
@ %bb.6:
	.loc	4 0 1 is_stmt 0         @ ../Basic/Source/gd32e23x_adc.c:0:1
__arm_cp.16_0:
	.long	4294049791              @ 0xfff1ffff
.Lcpi_end17:
	.size	__arm_cp.16_0, .Lcpi_end17-__arm_cp.16_0
__arm_cp.16_1:
	.long	4294938623              @ 0xffff8fff
.Lcpi_end18:
	.size	__arm_cp.16_1, .Lcpi_end18-__arm_cp.16_1
__arm_cp.16_2:
	.long	1073816584              @ 0x40012408
.Lcpi_end19:
	.size	__arm_cp.16_2, .Lcpi_end19-__arm_cp.16_2
.Lfunc_end16:
	.size	adc_external_trigger_source_config, .Lfunc_end16-adc_external_trigger_source_config
	.cfi_endproc
	.cantunwind
	.fnend
                                        @ -- End function
	.section	.text.adc_software_trigger_enable,"ax",%progbits
	.hidden	adc_software_trigger_enable @ -- Begin function adc_software_trigger_enable
	.globl	adc_software_trigger_enable
	.p2align	2
	.type	adc_software_trigger_enable,%function
	.code	16                      @ @adc_software_trigger_enable
	.thumb_func
adc_software_trigger_enable:
.Lfunc_begin17:
	.loc	4 484 0 is_stmt 1       @ ../Basic/Source/gd32e23x_adc.c:484:0
	.fnstart
	.cfi_startproc
@ %bb.0:
	@DEBUG_VALUE: adc_software_trigger_enable:channel_group <- $r0
	@DEBUG_VALUE: adc_software_trigger_enable:channel_group <- $r0
	.loc	4 486 8 prologue_end    @ ../Basic/Source/gd32e23x_adc.c:486:8
	lsls	r1, r0, #31
	ldr	r1, __arm_cp.17_0
	beq	.LBB17_2
.Ltmp170:
@ %bb.1:
	@DEBUG_VALUE: adc_software_trigger_enable:channel_group <- $r0
	.loc	4 0 8 is_stmt 0         @ ../Basic/Source/gd32e23x_adc.c:0:8
	movs	r2, #1
	lsls	r2, r2, #22
.Ltmp171:
	.loc	4 487 18 is_stmt 1      @ ../Basic/Source/gd32e23x_adc.c:487:18
	ldr	r3, [r1]
	orrs	r3, r2
	str	r3, [r1]
.Ltmp172:
.LBB17_2:
	@DEBUG_VALUE: adc_software_trigger_enable:channel_group <- $r0
	.loc	4 490 8                 @ ../Basic/Source/gd32e23x_adc.c:490:8
	lsls	r0, r0, #30
.Ltmp173:
	bpl	.LBB17_4
@ %bb.3:
	.loc	4 0 8 is_stmt 0         @ ../Basic/Source/gd32e23x_adc.c:0:8
	movs	r0, #1
	lsls	r0, r0, #21
.Ltmp174:
	.loc	4 491 18 is_stmt 1      @ ../Basic/Source/gd32e23x_adc.c:491:18
	ldr	r2, [r1]
	orrs	r2, r0
	str	r2, [r1]
.Ltmp175:
.LBB17_4:
	.loc	4 493 1                 @ ../Basic/Source/gd32e23x_adc.c:493:1
	bx	lr
.Ltmp176:
	.p2align	2
@ %bb.5:
	.loc	4 0 1 is_stmt 0         @ ../Basic/Source/gd32e23x_adc.c:0:1
__arm_cp.17_0:
	.long	1073816584              @ 0x40012408
.Lcpi_end20:
	.size	__arm_cp.17_0, .Lcpi_end20-__arm_cp.17_0
.Lfunc_end17:
	.size	adc_software_trigger_enable, .Lfunc_end17-adc_software_trigger_enable
	.cfi_endproc
	.cantunwind
	.fnend
                                        @ -- End function
	.section	.text.adc_regular_data_read,"ax",%progbits
	.hidden	adc_regular_data_read   @ -- Begin function adc_regular_data_read
	.globl	adc_regular_data_read
	.p2align	2
	.type	adc_regular_data_read,%function
	.code	16                      @ @adc_regular_data_read
	.thumb_func
adc_regular_data_read:
.Lfunc_begin18:
	.loc	4 502 0 is_stmt 1       @ ../Basic/Source/gd32e23x_adc.c:502:0
	.fnstart
	.cfi_startproc
@ %bb.0:
	ldr	r0, __arm_cp.18_0
.Ltmp177:
	.loc	4 503 23 prologue_end   @ ../Basic/Source/gd32e23x_adc.c:503:23
	ldr	r0, [r0]
	.loc	4 503 5 is_stmt 0       @ ../Basic/Source/gd32e23x_adc.c:503:5
	uxth	r0, r0
	bx	lr
.Ltmp178:
	.p2align	2
@ %bb.1:
	.loc	4 0 5                   @ ../Basic/Source/gd32e23x_adc.c:0:5
__arm_cp.18_0:
	.long	1073816652              @ 0x4001244c
.Lcpi_end21:
	.size	__arm_cp.18_0, .Lcpi_end21-__arm_cp.18_0
.Lfunc_end18:
	.size	adc_regular_data_read, .Lfunc_end18-adc_regular_data_read
	.cfi_endproc
	.cantunwind
	.fnend
                                        @ -- End function
	.section	.text.adc_inserted_data_read,"ax",%progbits
	.hidden	adc_inserted_data_read  @ -- Begin function adc_inserted_data_read
	.globl	adc_inserted_data_read
	.p2align	2
	.type	adc_inserted_data_read,%function
	.code	16                      @ @adc_inserted_data_read
	.thumb_func
adc_inserted_data_read:
.Lfunc_begin19:
	.loc	4 518 0 is_stmt 1       @ ../Basic/Source/gd32e23x_adc.c:518:0
	.fnstart
	.cfi_startproc
@ %bb.0:
	@DEBUG_VALUE: adc_inserted_data_read:inserted_channel <- $r0
	@DEBUG_VALUE: adc_inserted_data_read:inserted_channel <- $r0
	.loc	4 521 5 prologue_end    @ ../Basic/Source/gd32e23x_adc.c:521:5
	cmp	r0, #3
	bhi	.LBB19_4
.Ltmp179:
@ %bb.1:
	@DEBUG_VALUE: adc_inserted_data_read:inserted_channel <- $r0
	.loc	4 0 5 is_stmt 0         @ ../Basic/Source/gd32e23x_adc.c:0:5
	lsls	r1, r0, #2
	adr	r2, .LJTI19_0
	adds	r1, r2, r1
	mov	pc, r1
.Ltmp180:
@ %bb.2:
	.p2align	2
.LJTI19_0:
	b.w	.LBB19_3
	b.w	.LBB19_5
	b.w	.LBB19_6
	b.w	.LBB19_7
.LBB19_3:
.Ltmp181:
	@DEBUG_VALUE: adc_inserted_data_read:inserted_channel <- $r0
	ldr	r0, __arm_cp.19_0
.Ltmp182:
	.loc	4 523 17 is_stmt 1      @ ../Basic/Source/gd32e23x_adc.c:523:17
	ldr	r0, [r0]
.Ltmp183:
	@DEBUG_VALUE: adc_inserted_data_read:idata <- $r0
	.loc	4 0 17 is_stmt 0        @ ../Basic/Source/gd32e23x_adc.c:0:17
	b	.LBB19_8
.Ltmp184:
.LBB19_4:
	@DEBUG_VALUE: adc_inserted_data_read:inserted_channel <- $r0
	movs	r0, #0
.Ltmp185:
	b	.LBB19_8
.LBB19_5:
.Ltmp186:
	@DEBUG_VALUE: adc_inserted_data_read:inserted_channel <- $r0
	ldr	r0, __arm_cp.19_0
.Ltmp187:
	.loc	4 526 17 is_stmt 1      @ ../Basic/Source/gd32e23x_adc.c:526:17
	ldr	r0, [r0, #4]
.Ltmp188:
	@DEBUG_VALUE: adc_inserted_data_read:idata <- $r0
	.loc	4 0 17 is_stmt 0        @ ../Basic/Source/gd32e23x_adc.c:0:17
	b	.LBB19_8
.Ltmp189:
.LBB19_6:
	@DEBUG_VALUE: adc_inserted_data_read:inserted_channel <- $r0
	ldr	r0, __arm_cp.19_0
.Ltmp190:
	.loc	4 529 17 is_stmt 1      @ ../Basic/Source/gd32e23x_adc.c:529:17
	ldr	r0, [r0, #8]
.Ltmp191:
	@DEBUG_VALUE: adc_inserted_data_read:idata <- $r0
	.loc	4 0 17 is_stmt 0        @ ../Basic/Source/gd32e23x_adc.c:0:17
	b	.LBB19_8
.Ltmp192:
.LBB19_7:
	@DEBUG_VALUE: adc_inserted_data_read:inserted_channel <- $r0
	ldr	r0, __arm_cp.19_0
.Ltmp193:
	.loc	4 532 17 is_stmt 1      @ ../Basic/Source/gd32e23x_adc.c:532:17
	ldr	r0, [r0, #12]
.Ltmp194:
	@DEBUG_VALUE: adc_inserted_data_read:idata <- $r0
.LBB19_8:
	@DEBUG_VALUE: adc_inserted_data_read:idata <- $r0
	.loc	4 538 5                 @ ../Basic/Source/gd32e23x_adc.c:538:5
	uxth	r0, r0
.Ltmp195:
	bx	lr
.Ltmp196:
	.p2align	2
@ %bb.9:
	.loc	4 0 5 is_stmt 0         @ ../Basic/Source/gd32e23x_adc.c:0:5
__arm_cp.19_0:
	.long	1073816636              @ 0x4001243c
.Lcpi_end22:
	.size	__arm_cp.19_0, .Lcpi_end22-__arm_cp.19_0
.Lfunc_end19:
	.size	adc_inserted_data_read, .Lfunc_end19-adc_inserted_data_read
	.cfi_endproc
	.cantunwind
	.fnend
                                        @ -- End function
	.section	.text.adc_flag_get,"ax",%progbits
	.hidden	adc_flag_get            @ -- Begin function adc_flag_get
	.globl	adc_flag_get
	.p2align	2
	.type	adc_flag_get,%function
	.code	16                      @ @adc_flag_get
	.thumb_func
adc_flag_get:
.Lfunc_begin20:
	.loc	4 554 0 is_stmt 1       @ ../Basic/Source/gd32e23x_adc.c:554:0
	.fnstart
	.cfi_startproc
@ %bb.0:
	@DEBUG_VALUE: adc_flag_get:flag <- $r0
	@DEBUG_VALUE: adc_flag_get:flag <- $r0
	@DEBUG_VALUE: adc_flag_get:reval <- 0
	ldr	r1, __arm_cp.20_0
.Ltmp197:
	.loc	4 557 8 prologue_end    @ ../Basic/Source/gd32e23x_adc.c:557:8
	ldr	r1, [r1]
	.loc	4 557 17 is_stmt 0      @ ../Basic/Source/gd32e23x_adc.c:557:17
	ands	r1, r0
	subs	r0, r1, #1
.Ltmp198:
	sbcs	r1, r0
.Ltmp199:
	@DEBUG_VALUE: adc_flag_get:reval <- undef
	.loc	4 560 5 is_stmt 1       @ ../Basic/Source/gd32e23x_adc.c:560:5
	mov	r0, r1
	bx	lr
.Ltmp200:
	.p2align	2
@ %bb.1:
	.loc	4 0 5 is_stmt 0         @ ../Basic/Source/gd32e23x_adc.c:0:5
__arm_cp.20_0:
	.long	1073816576              @ 0x40012400
.Lcpi_end23:
	.size	__arm_cp.20_0, .Lcpi_end23-__arm_cp.20_0
.Lfunc_end20:
	.size	adc_flag_get, .Lfunc_end20-adc_flag_get
	.cfi_endproc
	.cantunwind
	.fnend
                                        @ -- End function
	.section	.text.adc_flag_clear,"ax",%progbits
	.hidden	adc_flag_clear          @ -- Begin function adc_flag_clear
	.globl	adc_flag_clear
	.p2align	2
	.type	adc_flag_clear,%function
	.code	16                      @ @adc_flag_clear
	.thumb_func
adc_flag_clear:
.Lfunc_begin21:
	.loc	4 576 0 is_stmt 1       @ ../Basic/Source/gd32e23x_adc.c:576:0
	.fnstart
	.cfi_startproc
@ %bb.0:
	@DEBUG_VALUE: adc_flag_clear:flag <- $r0
	@DEBUG_VALUE: adc_flag_clear:flag <- $r0
	ldr	r1, __arm_cp.21_0
.Ltmp201:
	.loc	4 577 14 prologue_end   @ ../Basic/Source/gd32e23x_adc.c:577:14
	ldr	r2, [r1]
	bics	r2, r0
	str	r2, [r1]
	.loc	4 578 1                 @ ../Basic/Source/gd32e23x_adc.c:578:1
	bx	lr
.Ltmp202:
	.p2align	2
@ %bb.1:
	.loc	4 0 1 is_stmt 0         @ ../Basic/Source/gd32e23x_adc.c:0:1
__arm_cp.21_0:
	.long	1073816576              @ 0x40012400
.Lcpi_end24:
	.size	__arm_cp.21_0, .Lcpi_end24-__arm_cp.21_0
.Lfunc_end21:
	.size	adc_flag_clear, .Lfunc_end21-adc_flag_clear
	.cfi_endproc
	.cantunwind
	.fnend
                                        @ -- End function
	.section	.text.adc_interrupt_flag_get,"ax",%progbits
	.hidden	adc_interrupt_flag_get  @ -- Begin function adc_interrupt_flag_get
	.globl	adc_interrupt_flag_get
	.p2align	2
	.type	adc_interrupt_flag_get,%function
	.code	16                      @ @adc_interrupt_flag_get
	.thumb_func
adc_interrupt_flag_get:
.Lfunc_begin22:
	.loc	4 591 0 is_stmt 1       @ ../Basic/Source/gd32e23x_adc.c:591:0
	.fnstart
	.cfi_startproc
@ %bb.0:
	@DEBUG_VALUE: adc_interrupt_flag_get:flag <- $r0
	@DEBUG_VALUE: adc_interrupt_flag_get:flag <- $r0
	@DEBUG_VALUE: adc_interrupt_flag_get:interrupt_flag <- 0
	.loc	4 596 5 prologue_end    @ ../Basic/Source/gd32e23x_adc.c:596:5
	cmp	r0, #4
	beq	.LBB22_4
.Ltmp203:
@ %bb.1:
	@DEBUG_VALUE: adc_interrupt_flag_get:interrupt_flag <- 0
	@DEBUG_VALUE: adc_interrupt_flag_get:flag <- $r0
	cmp	r0, #2
	beq	.LBB22_5
.Ltmp204:
@ %bb.2:
	@DEBUG_VALUE: adc_interrupt_flag_get:interrupt_flag <- 0
	@DEBUG_VALUE: adc_interrupt_flag_get:flag <- $r0
	cmp	r0, #1
	bne	.LBB22_7
.Ltmp205:
@ %bb.3:
	@DEBUG_VALUE: adc_interrupt_flag_get:interrupt_flag <- 0
	@DEBUG_VALUE: adc_interrupt_flag_get:flag <- $r0
	.loc	4 0 5 is_stmt 0         @ ../Basic/Source/gd32e23x_adc.c:0:5
	ldr	r0, __arm_cp.22_0
.Ltmp206:
	.loc	4 598 17 is_stmt 1      @ ../Basic/Source/gd32e23x_adc.c:598:17
	ldr	r1, [r0]
.Ltmp207:
	@DEBUG_VALUE: adc_interrupt_flag_get:state <- undef
	.loc	4 599 13                @ ../Basic/Source/gd32e23x_adc.c:599:13
	ldr	r0, [r0, #4]
	movs	r2, #64
	.loc	4 599 22 is_stmt 0      @ ../Basic/Source/gd32e23x_adc.c:599:22
	ands	r2, r0
	lsrs	r0, r2, #6
.Ltmp208:
	.loc	4 598 26 is_stmt 1      @ ../Basic/Source/gd32e23x_adc.c:598:26
	ands	r0, r1
.Ltmp209:
	.loc	4 599 40                @ ../Basic/Source/gd32e23x_adc.c:599:40
	bx	lr
.Ltmp210:
.LBB22_4:
	@DEBUG_VALUE: adc_interrupt_flag_get:interrupt_flag <- 0
	@DEBUG_VALUE: adc_interrupt_flag_get:flag <- $r0
	.loc	4 0 40 is_stmt 0        @ ../Basic/Source/gd32e23x_adc.c:0:40
	movs	r1, #128
	b	.LBB22_6
.Ltmp211:
.LBB22_5:
	@DEBUG_VALUE: adc_interrupt_flag_get:interrupt_flag <- 0
	@DEBUG_VALUE: adc_interrupt_flag_get:flag <- $r0
	movs	r1, #32
.Ltmp212:
.LBB22_6:
	@DEBUG_VALUE: adc_interrupt_flag_get:interrupt_flag <- 0
	@DEBUG_VALUE: adc_interrupt_flag_get:flag <- $r0
	ldr	r2, __arm_cp.22_0
	ldr	r3, [r2]
	ands	r3, r0
.Ltmp213:
	@DEBUG_VALUE: adc_interrupt_flag_get:state <- $r3
	subs	r0, r3, #1
.Ltmp214:
	sbcs	r3, r0
.Ltmp215:
	ldr	r0, [r2, #4]
	ands	r0, r1
	subs	r1, r0, #1
	sbcs	r0, r1
	ands	r0, r3
.Ltmp216:
	@DEBUG_VALUE: adc_interrupt_flag_get:interrupt_flag <- $r0
	.loc	4 618 5 is_stmt 1       @ ../Basic/Source/gd32e23x_adc.c:618:5
	bx	lr
.Ltmp217:
.LBB22_7:
	@DEBUG_VALUE: adc_interrupt_flag_get:interrupt_flag <- 0
	@DEBUG_VALUE: adc_interrupt_flag_get:flag <- $r0
	.loc	4 0 5 is_stmt 0         @ ../Basic/Source/gd32e23x_adc.c:0:5
	movs	r0, #0
.Ltmp218:
	@DEBUG_VALUE: adc_interrupt_flag_get:interrupt_flag <- $r0
	.loc	4 618 5                 @ ../Basic/Source/gd32e23x_adc.c:618:5
	bx	lr
.Ltmp219:
	.p2align	2
@ %bb.8:
	.loc	4 0 5                   @ ../Basic/Source/gd32e23x_adc.c:0:5
__arm_cp.22_0:
	.long	1073816576              @ 0x40012400
.Lcpi_end25:
	.size	__arm_cp.22_0, .Lcpi_end25-__arm_cp.22_0
.Lfunc_end22:
	.size	adc_interrupt_flag_get, .Lfunc_end22-adc_interrupt_flag_get
	.cfi_endproc
	.cantunwind
	.fnend
                                        @ -- End function
	.section	.text.adc_interrupt_flag_clear,"ax",%progbits
	.hidden	adc_interrupt_flag_clear @ -- Begin function adc_interrupt_flag_clear
	.globl	adc_interrupt_flag_clear
	.p2align	2
	.type	adc_interrupt_flag_clear,%function
	.code	16                      @ @adc_interrupt_flag_clear
	.thumb_func
adc_interrupt_flag_clear:
.Lfunc_begin23:
	.loc	4 632 0 is_stmt 1       @ ../Basic/Source/gd32e23x_adc.c:632:0
	.fnstart
	.cfi_startproc
@ %bb.0:
	@DEBUG_VALUE: adc_interrupt_flag_clear:flag <- $r0
	@DEBUG_VALUE: adc_interrupt_flag_clear:flag <- $r0
	ldr	r1, __arm_cp.23_0
.Ltmp220:
	.loc	4 633 14 prologue_end   @ ../Basic/Source/gd32e23x_adc.c:633:14
	ldr	r2, [r1]
	bics	r2, r0
	str	r2, [r1]
	.loc	4 634 1                 @ ../Basic/Source/gd32e23x_adc.c:634:1
	bx	lr
.Ltmp221:
	.p2align	2
@ %bb.1:
	.loc	4 0 1 is_stmt 0         @ ../Basic/Source/gd32e23x_adc.c:0:1
__arm_cp.23_0:
	.long	1073816576              @ 0x40012400
.Lcpi_end26:
	.size	__arm_cp.23_0, .Lcpi_end26-__arm_cp.23_0
.Lfunc_end23:
	.size	adc_interrupt_flag_clear, .Lfunc_end23-adc_interrupt_flag_clear
	.cfi_endproc
	.cantunwind
	.fnend
                                        @ -- End function
	.section	.text.adc_interrupt_enable,"ax",%progbits
	.hidden	adc_interrupt_enable    @ -- Begin function adc_interrupt_enable
	.globl	adc_interrupt_enable
	.p2align	2
	.type	adc_interrupt_enable,%function
	.code	16                      @ @adc_interrupt_enable
	.thumb_func
adc_interrupt_enable:
.Lfunc_begin24:
	.loc	4 647 0 is_stmt 1       @ ../Basic/Source/gd32e23x_adc.c:647:0
	.fnstart
	.cfi_startproc
@ %bb.0:
	@DEBUG_VALUE: adc_interrupt_enable:interrupt <- $r0
	@DEBUG_VALUE: adc_interrupt_enable:interrupt <- $r0
	.loc	4 649 8 prologue_end    @ ../Basic/Source/gd32e23x_adc.c:649:8
	lsls	r1, r0, #31
	ldr	r1, __arm_cp.24_0
	beq	.LBB24_2
.Ltmp222:
@ %bb.1:
	@DEBUG_VALUE: adc_interrupt_enable:interrupt <- $r0
	.loc	4 650 18                @ ../Basic/Source/gd32e23x_adc.c:650:18
	ldr	r2, [r1]
	movs	r3, #64
	orrs	r3, r2
	str	r3, [r1]
.Ltmp223:
.LBB24_2:
	@DEBUG_VALUE: adc_interrupt_enable:interrupt <- $r0
	.loc	4 654 8                 @ ../Basic/Source/gd32e23x_adc.c:654:8
	lsls	r2, r0, #30
	bpl	.LBB24_4
.Ltmp224:
@ %bb.3:
	@DEBUG_VALUE: adc_interrupt_enable:interrupt <- $r0
	.loc	4 655 18                @ ../Basic/Source/gd32e23x_adc.c:655:18
	ldr	r2, [r1]
	movs	r3, #32
	orrs	r3, r2
	str	r3, [r1]
.Ltmp225:
.LBB24_4:
	@DEBUG_VALUE: adc_interrupt_enable:interrupt <- $r0
	.loc	4 659 8                 @ ../Basic/Source/gd32e23x_adc.c:659:8
	lsls	r0, r0, #29
.Ltmp226:
	bpl	.LBB24_6
@ %bb.5:
.Ltmp227:
	.loc	4 660 18                @ ../Basic/Source/gd32e23x_adc.c:660:18
	ldr	r0, [r1]
	movs	r2, #128
	orrs	r2, r0
	str	r2, [r1]
.Ltmp228:
.LBB24_6:
	.loc	4 662 1                 @ ../Basic/Source/gd32e23x_adc.c:662:1
	bx	lr
.Ltmp229:
	.p2align	2
@ %bb.7:
	.loc	4 0 1 is_stmt 0         @ ../Basic/Source/gd32e23x_adc.c:0:1
__arm_cp.24_0:
	.long	1073816580              @ 0x40012404
.Lcpi_end27:
	.size	__arm_cp.24_0, .Lcpi_end27-__arm_cp.24_0
.Lfunc_end24:
	.size	adc_interrupt_enable, .Lfunc_end24-adc_interrupt_enable
	.cfi_endproc
	.cantunwind
	.fnend
                                        @ -- End function
	.section	.text.adc_interrupt_disable,"ax",%progbits
	.hidden	adc_interrupt_disable   @ -- Begin function adc_interrupt_disable
	.globl	adc_interrupt_disable
	.p2align	2
	.type	adc_interrupt_disable,%function
	.code	16                      @ @adc_interrupt_disable
	.thumb_func
adc_interrupt_disable:
.Lfunc_begin25:
	.loc	4 675 0 is_stmt 1       @ ../Basic/Source/gd32e23x_adc.c:675:0
	.fnstart
	.cfi_startproc
@ %bb.0:
	@DEBUG_VALUE: adc_interrupt_disable:interrupt <- $r0
	@DEBUG_VALUE: adc_interrupt_disable:interrupt <- $r0
	.loc	4 677 8 prologue_end    @ ../Basic/Source/gd32e23x_adc.c:677:8
	lsls	r1, r0, #31
	ldr	r1, __arm_cp.25_0
	beq	.LBB25_2
.Ltmp230:
@ %bb.1:
	@DEBUG_VALUE: adc_interrupt_disable:interrupt <- $r0
	.loc	4 678 18                @ ../Basic/Source/gd32e23x_adc.c:678:18
	ldr	r2, [r1]
	movs	r3, #64
	bics	r2, r3
	str	r2, [r1]
.Ltmp231:
.LBB25_2:
	@DEBUG_VALUE: adc_interrupt_disable:interrupt <- $r0
	.loc	4 682 8                 @ ../Basic/Source/gd32e23x_adc.c:682:8
	lsls	r2, r0, #30
	bpl	.LBB25_4
.Ltmp232:
@ %bb.3:
	@DEBUG_VALUE: adc_interrupt_disable:interrupt <- $r0
	.loc	4 683 18                @ ../Basic/Source/gd32e23x_adc.c:683:18
	ldr	r2, [r1]
	movs	r3, #32
	bics	r2, r3
	str	r2, [r1]
.Ltmp233:
.LBB25_4:
	@DEBUG_VALUE: adc_interrupt_disable:interrupt <- $r0
	.loc	4 687 8                 @ ../Basic/Source/gd32e23x_adc.c:687:8
	lsls	r0, r0, #29
.Ltmp234:
	bpl	.LBB25_6
@ %bb.5:
.Ltmp235:
	.loc	4 688 18                @ ../Basic/Source/gd32e23x_adc.c:688:18
	ldr	r0, [r1]
	movs	r2, #128
	bics	r0, r2
	str	r0, [r1]
.Ltmp236:
.LBB25_6:
	.loc	4 690 1                 @ ../Basic/Source/gd32e23x_adc.c:690:1
	bx	lr
.Ltmp237:
	.p2align	2
@ %bb.7:
	.loc	4 0 1 is_stmt 0         @ ../Basic/Source/gd32e23x_adc.c:0:1
__arm_cp.25_0:
	.long	1073816580              @ 0x40012404
.Lcpi_end28:
	.size	__arm_cp.25_0, .Lcpi_end28-__arm_cp.25_0
.Lfunc_end25:
	.size	adc_interrupt_disable, .Lfunc_end25-adc_interrupt_disable
	.cfi_endproc
	.cantunwind
	.fnend
                                        @ -- End function
	.section	.text.adc_watchdog_single_channel_enable,"ax",%progbits
	.hidden	adc_watchdog_single_channel_enable @ -- Begin function adc_watchdog_single_channel_enable
	.globl	adc_watchdog_single_channel_enable
	.p2align	2
	.type	adc_watchdog_single_channel_enable,%function
	.code	16                      @ @adc_watchdog_single_channel_enable
	.thumb_func
adc_watchdog_single_channel_enable:
.Lfunc_begin26:
	.loc	4 701 0 is_stmt 1       @ ../Basic/Source/gd32e23x_adc.c:701:0
	.fnstart
	.cfi_startproc
@ %bb.0:
	@DEBUG_VALUE: adc_watchdog_single_channel_enable:channel <- $r0
	@DEBUG_VALUE: adc_watchdog_single_channel_enable:channel <- $r0
	ldr	r1, __arm_cp.26_0
.Ltmp238:
	.loc	4 702 14 prologue_end   @ ../Basic/Source/gd32e23x_adc.c:702:14
	ldr	r2, [r1]
	ldr	r3, __arm_cp.26_1
	ands	r3, r2
	str	r3, [r1]
	.loc	4 704 14                @ ../Basic/Source/gd32e23x_adc.c:704:14
	ldr	r2, [r1]
	orrs	r2, r0
	str	r2, [r1]
	.loc	4 705 14                @ ../Basic/Source/gd32e23x_adc.c:705:14
	ldr	r0, [r1]
.Ltmp239:
	.loc	4 0 14 is_stmt 0        @ ../Basic/Source/gd32e23x_adc.c:0:14
	ldr	r2, __arm_cp.26_2
	.loc	4 705 14                @ ../Basic/Source/gd32e23x_adc.c:705:14
	orrs	r2, r0
	str	r2, [r1]
	.loc	4 706 1 is_stmt 1       @ ../Basic/Source/gd32e23x_adc.c:706:1
	bx	lr
.Ltmp240:
	.p2align	2
@ %bb.1:
	.loc	4 0 1 is_stmt 0         @ ../Basic/Source/gd32e23x_adc.c:0:1
__arm_cp.26_0:
	.long	1073816580              @ 0x40012404
.Lcpi_end29:
	.size	__arm_cp.26_0, .Lcpi_end29-__arm_cp.26_0
__arm_cp.26_1:
	.long	4282383840              @ 0xff3ffde0
.Lcpi_end30:
	.size	__arm_cp.26_1, .Lcpi_end30-__arm_cp.26_1
__arm_cp.26_2:
	.long	12583424                @ 0xc00200
.Lcpi_end31:
	.size	__arm_cp.26_2, .Lcpi_end31-__arm_cp.26_2
.Lfunc_end26:
	.size	adc_watchdog_single_channel_enable, .Lfunc_end26-adc_watchdog_single_channel_enable
	.cfi_endproc
	.cantunwind
	.fnend
                                        @ -- End function
	.section	.text.adc_watchdog_group_channel_enable,"ax",%progbits
	.hidden	adc_watchdog_group_channel_enable @ -- Begin function adc_watchdog_group_channel_enable
	.globl	adc_watchdog_group_channel_enable
	.p2align	2
	.type	adc_watchdog_group_channel_enable,%function
	.code	16                      @ @adc_watchdog_group_channel_enable
	.thumb_func
adc_watchdog_group_channel_enable:
.Lfunc_begin27:
	.loc	4 719 0 is_stmt 1       @ ../Basic/Source/gd32e23x_adc.c:719:0
	.fnstart
	.cfi_startproc
@ %bb.0:
	@DEBUG_VALUE: adc_watchdog_group_channel_enable:channel_group <- $r0
	@DEBUG_VALUE: adc_watchdog_group_channel_enable:channel_group <- $r0
	ldr	r1, __arm_cp.27_0
.Ltmp241:
	.loc	4 720 14 prologue_end   @ ../Basic/Source/gd32e23x_adc.c:720:14
	ldr	r2, [r1]
	ldr	r3, __arm_cp.27_1
	ands	r3, r2
	str	r3, [r1]
	.loc	4 723 5                 @ ../Basic/Source/gd32e23x_adc.c:723:5
	subs	r0, r0, #1
.Ltmp242:
	uxtb	r2, r0
	cmp	r2, #2
	bhi	.LBB27_2
@ %bb.1:
	sxtb	r0, r0
	lsls	r0, r0, #2
	adr	r2, .LCPI27_2
	ldr	r0, [r2, r0]
.Ltmp243:
	.loc	4 0 0 is_stmt 0         @ ../Basic/Source/gd32e23x_adc.c:0:0
	ldr	r2, [r1]
	orrs	r2, r0
	str	r2, [r1]
.Ltmp244:
.LBB27_2:
	.loc	4 736 1 is_stmt 1       @ ../Basic/Source/gd32e23x_adc.c:736:1
	bx	lr
.Ltmp245:
	.p2align	2
@ %bb.3:
	.loc	4 0 1 is_stmt 0         @ ../Basic/Source/gd32e23x_adc.c:0:1
__arm_cp.27_0:
	.long	1073816580              @ 0x40012404
.Lcpi_end32:
	.size	__arm_cp.27_0, .Lcpi_end32-__arm_cp.27_0
__arm_cp.27_1:
	.long	4282383871              @ 0xff3ffdff
.Lcpi_end33:
	.size	__arm_cp.27_1, .Lcpi_end33-__arm_cp.27_1
.LCPI27_2:
.Lswitch.table.adc_watchdog_group_channel_enable:
	.long	8388608                 @ 0x800000
	.long	4194304                 @ 0x400000
	.long	12582912                @ 0xc00000
.Lfunc_end27:
	.size	adc_watchdog_group_channel_enable, .Lfunc_end27-adc_watchdog_group_channel_enable
	.cfi_endproc
	.cantunwind
	.fnend
                                        @ -- End function
	.section	.text.adc_watchdog_disable,"ax",%progbits
	.hidden	adc_watchdog_disable    @ -- Begin function adc_watchdog_disable
	.globl	adc_watchdog_disable
	.p2align	2
	.type	adc_watchdog_disable,%function
	.code	16                      @ @adc_watchdog_disable
	.thumb_func
adc_watchdog_disable:
.Lfunc_begin28:
	.loc	4 745 0 is_stmt 1       @ ../Basic/Source/gd32e23x_adc.c:745:0
	.fnstart
	.cfi_startproc
@ %bb.0:
	ldr	r0, __arm_cp.28_0
.Ltmp246:
	.loc	4 746 14 prologue_end   @ ../Basic/Source/gd32e23x_adc.c:746:14
	ldr	r1, [r0]
	ldr	r2, __arm_cp.28_1
	ands	r2, r1
	str	r2, [r0]
	.loc	4 747 1                 @ ../Basic/Source/gd32e23x_adc.c:747:1
	bx	lr
.Ltmp247:
	.p2align	2
@ %bb.1:
	.loc	4 0 1 is_stmt 0         @ ../Basic/Source/gd32e23x_adc.c:0:1
__arm_cp.28_0:
	.long	1073816580              @ 0x40012404
.Lcpi_end34:
	.size	__arm_cp.28_0, .Lcpi_end34-__arm_cp.28_0
__arm_cp.28_1:
	.long	4282383840              @ 0xff3ffde0
.Lcpi_end35:
	.size	__arm_cp.28_1, .Lcpi_end35-__arm_cp.28_1
.Lfunc_end28:
	.size	adc_watchdog_disable, .Lfunc_end28-adc_watchdog_disable
	.cfi_endproc
	.cantunwind
	.fnend
                                        @ -- End function
	.section	.text.adc_watchdog_threshold_config,"ax",%progbits
	.hidden	adc_watchdog_threshold_config @ -- Begin function adc_watchdog_threshold_config
	.globl	adc_watchdog_threshold_config
	.p2align	2
	.type	adc_watchdog_threshold_config,%function
	.code	16                      @ @adc_watchdog_threshold_config
	.thumb_func
adc_watchdog_threshold_config:
.Lfunc_begin29:
	.loc	4 757 0 is_stmt 1       @ ../Basic/Source/gd32e23x_adc.c:757:0
	.fnstart
	.cfi_startproc
@ %bb.0:
	@DEBUG_VALUE: adc_watchdog_threshold_config:low_threshold <- $r0
	@DEBUG_VALUE: adc_watchdog_threshold_config:low_threshold <- $r0
	@DEBUG_VALUE: adc_watchdog_threshold_config:high_threshold <- $r1
	@DEBUG_VALUE: adc_watchdog_threshold_config:high_threshold <- $r1
	ldr	r2, __arm_cp.29_0
.Ltmp248:
	.loc	4 758 26 prologue_end   @ ../Basic/Source/gd32e23x_adc.c:758:26
	ands	r0, r2
.Ltmp249:
	.loc	4 0 26 is_stmt 0        @ ../Basic/Source/gd32e23x_adc.c:0:26
	ldr	r3, __arm_cp.29_1
	.loc	4 758 14                @ ../Basic/Source/gd32e23x_adc.c:758:14
	str	r0, [r3, #4]
	.loc	4 759 26 is_stmt 1      @ ../Basic/Source/gd32e23x_adc.c:759:26
	ands	r1, r2
.Ltmp250:
	.loc	4 759 14 is_stmt 0      @ ../Basic/Source/gd32e23x_adc.c:759:14
	str	r1, [r3]
	.loc	4 760 1 is_stmt 1       @ ../Basic/Source/gd32e23x_adc.c:760:1
	bx	lr
.Ltmp251:
	.p2align	2
@ %bb.1:
	.loc	4 0 1 is_stmt 0         @ ../Basic/Source/gd32e23x_adc.c:0:1
__arm_cp.29_0:
	.long	4095                    @ 0xfff
.Lcpi_end36:
	.size	__arm_cp.29_0, .Lcpi_end36-__arm_cp.29_0
__arm_cp.29_1:
	.long	1073816612              @ 0x40012424
.Lcpi_end37:
	.size	__arm_cp.29_1, .Lcpi_end37-__arm_cp.29_1
.Lfunc_end29:
	.size	adc_watchdog_threshold_config, .Lfunc_end29-adc_watchdog_threshold_config
	.cfi_endproc
	.cantunwind
	.fnend
                                        @ -- End function
	.section	.text.adc_resolution_config,"ax",%progbits
	.hidden	adc_resolution_config   @ -- Begin function adc_resolution_config
	.globl	adc_resolution_config
	.p2align	2
	.type	adc_resolution_config,%function
	.code	16                      @ @adc_resolution_config
	.thumb_func
adc_resolution_config:
.Lfunc_begin30:
	.loc	4 775 0 is_stmt 1       @ ../Basic/Source/gd32e23x_adc.c:775:0
	.fnstart
	.cfi_startproc
@ %bb.0:
	@DEBUG_VALUE: adc_resolution_config:resolution <- $r0
	@DEBUG_VALUE: adc_resolution_config:resolution <- $r0
	movs	r1, #3
	lsls	r1, r1, #24
	ldr	r2, __arm_cp.30_0
.Ltmp252:
	.loc	4 776 14 prologue_end   @ ../Basic/Source/gd32e23x_adc.c:776:14
	ldr	r3, [r2]
	bics	r3, r1
	str	r3, [r2]
	.loc	4 777 14                @ ../Basic/Source/gd32e23x_adc.c:777:14
	ldr	r1, [r2]
	orrs	r1, r0
	str	r1, [r2]
	.loc	4 778 1                 @ ../Basic/Source/gd32e23x_adc.c:778:1
	bx	lr
.Ltmp253:
	.p2align	2
@ %bb.1:
	.loc	4 0 1 is_stmt 0         @ ../Basic/Source/gd32e23x_adc.c:0:1
__arm_cp.30_0:
	.long	1073816580              @ 0x40012404
.Lcpi_end38:
	.size	__arm_cp.30_0, .Lcpi_end38-__arm_cp.30_0
.Lfunc_end30:
	.size	adc_resolution_config, .Lfunc_end30-adc_resolution_config
	.cfi_endproc
	.cantunwind
	.fnend
                                        @ -- End function
	.section	.text.adc_oversample_mode_config,"ax",%progbits
	.hidden	adc_oversample_mode_config @ -- Begin function adc_oversample_mode_config
	.globl	adc_oversample_mode_config
	.p2align	2
	.type	adc_oversample_mode_config,%function
	.code	16                      @ @adc_oversample_mode_config
	.thumb_func
adc_oversample_mode_config:
.Lfunc_begin31:
	.loc	4 811 0 is_stmt 1       @ ../Basic/Source/gd32e23x_adc.c:811:0
	.fnstart
	.cfi_startproc
@ %bb.0:
	@DEBUG_VALUE: adc_oversample_mode_config:mode <- $r0
	@DEBUG_VALUE: adc_oversample_mode_config:mode <- $r0
	@DEBUG_VALUE: adc_oversample_mode_config:shift <- $r1
	@DEBUG_VALUE: adc_oversample_mode_config:shift <- $r1
	@DEBUG_VALUE: adc_oversample_mode_config:ratio <- $r2
	@DEBUG_VALUE: adc_oversample_mode_config:ratio <- $r2
	.save	{r4, r5, r7, lr}
	push	{r4, r5, r7, lr}
	.cfi_def_cfa_offset 16
	.cfi_offset lr, -4
	.cfi_offset r7, -8
	.cfi_offset r5, -12
	.cfi_offset r4, -16
	ldr	r3, __arm_cp.31_0
.Ltmp254:
	.loc	4 0 0 prologue_end      @ ../Basic/Source/gd32e23x_adc.c:0:0
	ldr	r5, [r3]
	ldr	r4, __arm_cp.31_1
.Ltmp255:
	.loc	4 813 8                 @ ../Basic/Source/gd32e23x_adc.c:813:8
	cmp	r0, #1
	beq	.LBB31_2
.Ltmp256:
@ %bb.1:
	@DEBUG_VALUE: adc_oversample_mode_config:ratio <- $r2
	@DEBUG_VALUE: adc_oversample_mode_config:shift <- $r1
	@DEBUG_VALUE: adc_oversample_mode_config:mode <- $r0
	.loc	4 0 8 is_stmt 0         @ ../Basic/Source/gd32e23x_adc.c:0:8
	ands	r5, r4
	b	.LBB31_3
.Ltmp257:
.LBB31_2:
	@DEBUG_VALUE: adc_oversample_mode_config:ratio <- $r2
	@DEBUG_VALUE: adc_oversample_mode_config:shift <- $r1
	@DEBUG_VALUE: adc_oversample_mode_config:mode <- $r0
	movw	r0, #512
.Ltmp258:
	orrs	r5, r0
.Ltmp259:
.LBB31_3:
	@DEBUG_VALUE: adc_oversample_mode_config:ratio <- $r2
	@DEBUG_VALUE: adc_oversample_mode_config:shift <- $r1
	str	r5, [r3]
.Ltmp260:
	.loc	4 820 19 is_stmt 1      @ ../Basic/Source/gd32e23x_adc.c:820:19
	adds	r0, r4, #4
	ldr	r4, [r3]
	ands	r4, r0
	str	r4, [r3]
	.loc	4 821 39                @ ../Basic/Source/gd32e23x_adc.c:821:39
	orrs	r2, r1
.Ltmp261:
	.loc	4 821 19 is_stmt 0      @ ../Basic/Source/gd32e23x_adc.c:821:19
	ldr	r0, [r3]
	orrs	r0, r2
	str	r0, [r3]
	.loc	4 822 1 is_stmt 1       @ ../Basic/Source/gd32e23x_adc.c:822:1
	pop	{r4, r5, r7, pc}
.Ltmp262:
	.p2align	2
@ %bb.4:
	.loc	4 0 1 is_stmt 0         @ ../Basic/Source/gd32e23x_adc.c:0:1
__arm_cp.31_0:
	.long	1073816704              @ 0x40012480
.Lcpi_end39:
	.size	__arm_cp.31_0, .Lcpi_end39-__arm_cp.31_0
__arm_cp.31_1:
	.long	4294966783              @ 0xfffffdff
.Lcpi_end40:
	.size	__arm_cp.31_1, .Lcpi_end40-__arm_cp.31_1
.Lfunc_end31:
	.size	adc_oversample_mode_config, .Lfunc_end31-adc_oversample_mode_config
	.cfi_endproc
	.cantunwind
	.fnend
                                        @ -- End function
	.section	.text.adc_oversample_mode_enable,"ax",%progbits
	.hidden	adc_oversample_mode_enable @ -- Begin function adc_oversample_mode_enable
	.globl	adc_oversample_mode_enable
	.p2align	2
	.type	adc_oversample_mode_enable,%function
	.code	16                      @ @adc_oversample_mode_enable
	.thumb_func
adc_oversample_mode_enable:
.Lfunc_begin32:
	.loc	4 831 0 is_stmt 1       @ ../Basic/Source/gd32e23x_adc.c:831:0
	.fnstart
	.cfi_startproc
@ %bb.0:
	ldr	r0, __arm_cp.32_0
.Ltmp263:
	.loc	4 832 19 prologue_end   @ ../Basic/Source/gd32e23x_adc.c:832:19
	ldr	r1, [r0]
	movs	r2, #1
	orrs	r2, r1
	str	r2, [r0]
	.loc	4 833 1                 @ ../Basic/Source/gd32e23x_adc.c:833:1
	bx	lr
.Ltmp264:
	.p2align	2
@ %bb.1:
	.loc	4 0 1 is_stmt 0         @ ../Basic/Source/gd32e23x_adc.c:0:1
__arm_cp.32_0:
	.long	1073816704              @ 0x40012480
.Lcpi_end41:
	.size	__arm_cp.32_0, .Lcpi_end41-__arm_cp.32_0
.Lfunc_end32:
	.size	adc_oversample_mode_enable, .Lfunc_end32-adc_oversample_mode_enable
	.cfi_endproc
	.cantunwind
	.fnend
                                        @ -- End function
	.section	.text.adc_oversample_mode_disable,"ax",%progbits
	.hidden	adc_oversample_mode_disable @ -- Begin function adc_oversample_mode_disable
	.globl	adc_oversample_mode_disable
	.p2align	2
	.type	adc_oversample_mode_disable,%function
	.code	16                      @ @adc_oversample_mode_disable
	.thumb_func
adc_oversample_mode_disable:
.Lfunc_begin33:
	.loc	4 842 0 is_stmt 1       @ ../Basic/Source/gd32e23x_adc.c:842:0
	.fnstart
	.cfi_startproc
@ %bb.0:
	ldr	r0, __arm_cp.33_0
.Ltmp265:
	.loc	4 843 19 prologue_end   @ ../Basic/Source/gd32e23x_adc.c:843:19
	ldr	r1, [r0]
	movs	r2, #1
	bics	r1, r2
	str	r1, [r0]
	.loc	4 844 1                 @ ../Basic/Source/gd32e23x_adc.c:844:1
	bx	lr
.Ltmp266:
	.p2align	2
@ %bb.1:
	.loc	4 0 1 is_stmt 0         @ ../Basic/Source/gd32e23x_adc.c:0:1
__arm_cp.33_0:
	.long	1073816704              @ 0x40012480
.Lcpi_end42:
	.size	__arm_cp.33_0, .Lcpi_end42-__arm_cp.33_0
.Lfunc_end33:
	.size	adc_oversample_mode_disable, .Lfunc_end33-adc_oversample_mode_disable
	.cfi_endproc
	.cantunwind
	.fnend
                                        @ -- End function
	.section	".note.GNU-stack","",%progbits
	.eabi_attribute	30, 4	@ Tag_ABI_optimization_goals
	.ARM_attribute	16, 1	@ Tag_AV_eba