	.text
	.syntax unified
	.eabi_attribute	67, "2.09"	@ Tag_conformance
	.cpu	cortex-m23
	.eabi_attribute	6, 16	@ Tag_CPU_arch
	.eabi_attribute	7, 77	@ Tag_CPU_arch_profile
	.eabi_attribute	8, 0	@ Tag_ARM_ISA_use
	.eabi_attribute	9, 3	@ Tag_THUMB_ISA_use
	.eabi_attribute	34, 0	@ Tag_CPU_unaligned_access
	.eabi_attribute	17, 1	@ Tag_ABI_PCS_GOT_use
	.eabi_attribute	20, 2	@ Tag_ABI_FP_denormal
	.eabi_attribute	21, 0	@ Tag_ABI_FP_exceptions
	.eabi_attribute	23, 1	@ Tag_ABI_FP_number_model
	.eabi_attribute	24, 1	@ Tag_ABI_align_needed
	.eabi_attribute	25, 1	@ Tag_ABI_align_preserved
	.eabi_attribute	38, 1	@ Tag_ABI_FP_16bit_format
	.eabi_attribute	18, 2	@ Tag_ABI_PCS_wchar_t
	.eabi_attribute	26, 1	@ Tag_ABI_enum_size
	.eabi_attribute	14, 0	@ Tag_ABI_PCS_R9_use
	.file	"gd32e23x_rcu.c"
	.file	1 "C:\\Users\\13728\\Desktop\\general igniter\\Project" "../Basic/Include\\gd32e23x_rcu.h"
	.file	2 "C:\\Users\\13728\\Desktop\\general igniter\\Project" "../CMSIS/Include\\gd32e23x.h"
	.file	3 "D:\\ProgramFile\\Keil5\\ARM\\ARMCLANG\\Bin\\..\\include" "stdint.h"
	.section	.text.rcu_deinit,"ax",%progbits
	.hidden	rcu_deinit              @ -- Begin function rcu_deinit
	.globl	rcu_deinit
	.p2align	2
	.type	rcu_deinit,%function
	.code	16                      @ @rcu_deinit
	.thumb_func
rcu_deinit:
.Lfunc_begin0:
	.file	4 "C:\\Users\\13728\\Desktop\\general igniter\\Project" "../Basic/Source/gd32e23x_rcu.c"
	.loc	4 55 0                  @ ../Basic/Source/gd32e23x_rcu.c:55:0
	.fnstart
	.cfi_sections .debug_frame
	.cfi_startproc
@ %bb.0:
	ldr	r0, __arm_cp.0_0
.Ltmp0:
	.loc	4 57 14 prologue_end    @ ../Basic/Source/gd32e23x_rcu.c:57:14
	ldr	r2, [r0]
	movs	r1, #1
	orrs	r2, r1
	str	r2, [r0]
.LBB0_1:                                @ =>This Inner Loop Header: Depth=1
	.loc	4 58 18                 @ ../Basic/Source/gd32e23x_rcu.c:58:18
	ldr	r2, [r0]
	.loc	4 58 5 is_stmt 0        @ ../Basic/Source/gd32e23x_rcu.c:58:5
	lsls	r2, r2, #30
	bpl	.LBB0_1
@ %bb.2:
	.loc	4 61 14 is_stmt 1       @ ../Basic/Source/gd32e23x_rcu.c:61:14
	ldr	r2, [r0, #4]
	ldr	r3, __arm_cp.0_1
	ands	r3, r2
	str	r3, [r0, #4]
	.loc	4 63 14                 @ ../Basic/Source/gd32e23x_rcu.c:63:14
	ldr	r2, [r0, #4]
	ldr	r3, __arm_cp.0_2
	ands	r3, r2
	str	r3, [r0, #4]
	.loc	4 64 14                 @ ../Basic/Source/gd32e23x_rcu.c:64:14
	ldr	r2, [r0]
	ldr	r3, __arm_cp.0_3
	ands	r3, r2
	str	r3, [r0]
	.loc	4 65 14                 @ ../Basic/Source/gd32e23x_rcu.c:65:14
	ldr	r2, [r0, #44]
	movs	r3, #15
	bics	r2, r3
	str	r2, [r0, #44]
	.loc	4 66 14                 @ ../Basic/Source/gd32e23x_rcu.c:66:14
	ldr	r2, [r0, #48]
	movw	r3, #259
	bics	r2, r3
	str	r2, [r0, #48]
	lsls	r2, r1, #16
	.loc	4 67 14                 @ ../Basic/Source/gd32e23x_rcu.c:67:14
	ldr	r3, [r0, #48]
	bics	r3, r2
	str	r3, [r0, #48]
	lsls	r2, r1, #31
	.loc	4 68 14                 @ ../Basic/Source/gd32e23x_rcu.c:68:14
	ldr	r3, [r0, #48]
	bics	r3, r2
	str	r3, [r0, #48]
	.loc	4 69 14                 @ ../Basic/Source/gd32e23x_rcu.c:69:14
	ldr	r2, [r0, #52]
	bics	r2, r1
	str	r2, [r0, #52]
	movs	r1, #0
	.loc	4 70 13                 @ ../Basic/Source/gd32e23x_rcu.c:70:13
	str	r1, [r0, #8]
	.loc	4 71 1                  @ ../Basic/Source/gd32e23x_rcu.c:71:1
	bx	lr
.Ltmp1:
	.p2align	2
@ %bb.3:
	.loc	4 0 1 is_stmt 0         @ ../Basic/Source/gd32e23x_rcu.c:0:1
__arm_cp.0_0:
	.long	1073876992              @ 0x40021000
.Lcpi_end0:
	.size	__arm_cp.0_0, .Lcpi_end0-__arm_cp.0_0
__arm_cp.0_1:
	.long	150929420               @ 0x8ff000c
.Lcpi_end1:
	.size	__arm_cp.0_1, .Lcpi_end1-__arm_cp.0_1
__arm_cp.0_2:
	.long	2009268223              @ 0x77c2ffff
.Lcpi_end2:
	.size	__arm_cp.0_2, .Lcpi_end2-__arm_cp.0_2
__arm_cp.0_3:
	.long	4277338111              @ 0xfef2ffff
.Lcpi_end3:
	.size	__arm_cp.0_3, .Lcpi_end3-__arm_cp.0_3
.Lfunc_end0:
	.size	rcu_deinit, .Lfunc_end0-rcu_deinit
	.cfi_endproc
	.cantunwind
	.fnend
                                        @ -- End function
	.section	.text.rcu_periph_clock_enable,"ax",%progbits
	.hidden	rcu_periph_clock_enable @ -- Begin function rcu_periph_clock_enable
	.globl	rcu_periph_clock_enable
	.p2align	2
	.type	rcu_periph_clock_enable,%function
	.code	16                      @ @rcu_periph_clock_enable
	.thumb_func
rcu_periph_clock_enable:
.Lfunc_begin1:
	.loc	4 94 0 is_stmt 1        @ ../Basic/Source/gd32e23x_rcu.c:94:0
	.fnstart
	.cfi_startproc
@ %bb.0:
	@DEBUG_VALUE: rcu_periph_clock_enable:periph <- $r0
	@DEBUG_VALUE: rcu_periph_clock_enable:periph <- $r0
	movs	r1, #31
.Ltmp2:
	.loc	4 95 28 prologue_end    @ ../Basic/Source/gd32e23x_rcu.c:95:28
	ands	r1, r0
	movs	r2, #1
	lsls	r2, r1
	.loc	4 95 5 is_stmt 0        @ ../Basic/Source/gd32e23x_rcu.c:95:5
	lsrs	r0, r0, #6
.Ltmp3:
	.loc	4 0 5                   @ ../Basic/Source/gd32e23x_rcu.c:0:5
	ldr	r1, __arm_cp.1_0
	.loc	4 95 25                 @ ../Basic/Source/gd32e23x_rcu.c:95:25
	ldr	r3, [r0, r1]
	orrs	r3, r2
	str	r3, [r0, r1]
	.loc	4 96 1 is_stmt 1        @ ../Basic/Source/gd32e23x_rcu.c:96:1
	bx	lr
.Ltmp4:
	.p2align	2
@ %bb.1:
	.loc	4 0 1 is_stmt 0         @ ../Basic/Source/gd32e23x_rcu.c:0:1
__arm_cp.1_0:
	.long	1073876992              @ 0x40021000
.Lcpi_end4:
	.size	__arm_cp.1_0, .Lcpi_end4-__arm_cp.1_0
.Lfunc_end1:
	.size	rcu_periph_clock_enable, .Lfunc_end1-rcu_periph_clock_enable
	.cfi_endproc
	.cantunwind
	.fnend
                                        @ -- End function
	.section	.text.rcu_periph_clock_disable,"ax",%progbits
	.hidden	rcu_periph_clock_disable @ -- Begin function rcu_periph_clock_disable
	.globl	rcu_periph_clock_disable
	.p2align	2
	.type	rcu_periph_clock_disable,%function
	.code	16                      @ @rcu_periph_clock_disable
	.thumb_func
rcu_periph_clock_disable:
.Lfunc_begin2:
	.loc	4 119 0 is_stmt 1       @ ../Basic/Source/gd32e23x_rcu.c:119:0
	.fnstart
	.cfi_startproc
@ %bb.0:
	@DEBUG_VALUE: rcu_periph_clock_disable:periph <- $r0
	@DEBUG_VALUE: rcu_periph_clock_disable:periph <- $r0
	movs	r1, #31
.Ltmp5:
	.loc	4 120 29 prologue_end   @ ../Basic/Source/gd32e23x_rcu.c:120:29
	ands	r1, r0
	movs	r2, #1
	lsls	r2, r1
	.loc	4 120 5 is_stmt 0       @ ../Basic/Source/gd32e23x_rcu.c:120:5
	lsrs	r0, r0, #6
.Ltmp6:
	.loc	4 0 5                   @ ../Basic/Source/gd32e23x_rcu.c:0:5
	ldr	r1, __arm_cp.2_0
	.loc	4 120 25                @ ../Basic/Source/gd32e23x_rcu.c:120:25
	ldr	r3, [r0, r1]
	bics	r3, r2
	str	r3, [r0, r1]
	.loc	4 121 1 is_stmt 1       @ ../Basic/Source/gd32e23x_rcu.c:121:1
	bx	lr
.Ltmp7:
	.p2align	2
@ %bb.1:
	.loc	4 0 1 is_stmt 0         @ ../Basic/Source/gd32e23x_rcu.c:0:1
__arm_cp.2_0:
	.long	1073876992              @ 0x40021000
.Lcpi_end5:
	.size	__arm_cp.2_0, .Lcpi_end5-__arm_cp.2_0
.Lfunc_end2:
	.size	rcu_periph_clock_disable, .Lfunc_end2-rcu_periph_clock_disable
	.cfi_endproc
	.cantunwind
	.fnend
                                        @ -- End function
	.section	.text.rcu_periph_clock_sleep_enable,"ax",%progbits
	.hidden	rcu_periph_clock_sleep_enable @ -- Begin function rcu_periph_clock_sleep_enable
	.globl	rcu_periph_clock_sleep_enable
	.p2align	2
	.type	rcu_periph_clock_sleep_enable,%function
	.code	16                      @ @rcu_periph_clock_sleep_enable
	.thumb_func
rcu_periph_clock_sleep_enable:
.Lfunc_begin3:
	.loc	4 133 0 is_stmt 1       @ ../Basic/Source/gd32e23x_rcu.c:133:0
	.fnstart
	.cfi_startproc
@ %bb.0:
	@DEBUG_VALUE: rcu_periph_clock_sleep_enable:periph <- $r0
	@DEBUG_VALUE: rcu_periph_clock_sleep_enable:periph <- $r0
	movs	r1, #31
.Ltmp8:
	.loc	4 134 28 prologue_end   @ ../Basic/Source/gd32e23x_rcu.c:134:28
	ands	r1, r0
	movs	r2, #1
	lsls	r2, r1
	.loc	4 134 5 is_stmt 0       @ ../Basic/Source/gd32e23x_rcu.c:134:5
	lsrs	r0, r0, #6
.Ltmp9:
	.loc	4 0 5                   @ ../Basic/Source/gd32e23x_rcu.c:0:5
	ldr	r1, __arm_cp.3_0
	.loc	4 134 25                @ ../Basic/Source/gd32e23x_rcu.c:134:25
	ldr	r3, [r0, r1]
	orrs	r3, r2
	str	r3, [r0, r1]
	.loc	4 135 1 is_stmt 1       @ ../Basic/Source/gd32e23x_rcu.c:135:1
	bx	lr
.Ltmp10:
	.p2align	2
@ %bb.1:
	.loc	4 0 1 is_stmt 0         @ ../Basic/Source/gd32e23x_rcu.c:0:1
__arm_cp.3_0:
	.long	1073876992              @ 0x40021000
.Lcpi_end6:
	.size	__arm_cp.3_0, .Lcpi_end6-__arm_cp.3_0
.Lfunc_end3:
	.size	rcu_periph_clock_sleep_enable, .Lfunc_end3-rcu_periph_clock_sleep_enable
	.cfi_endproc
	.cantunwind
	.fnend
                                        @ -- End function
	.section	.text.rcu_periph_clock_sleep_disable,"ax",%progbits
	.hidden	rcu_periph_clock_sleep_disable @ -- Begin function rcu_periph_clock_sleep_disable
	.globl	rcu_periph_clock_sleep_disable
	.p2align	2
	.type	rcu_periph_clock_sleep_disable,%function
	.code	16                      @ @rcu_periph_clock_sleep_disable
	.thumb_func
rcu_periph_clock_sleep_disable:
.Lfunc_begin4:
	.loc	4 147 0 is_stmt 1       @ ../Basic/Source/gd32e23x_rcu.c:147:0
	.fnstart
	.cfi_startproc
@ %bb.0:
	@DEBUG_VALUE: rcu_periph_clock_sleep_disable:periph <- $r0
	@DEBUG_VALUE: rcu_periph_clock_sleep_disable:periph <- $r0
	movs	r1, #31
.Ltmp11:
	.loc	4 148 29 prologue_end   @ ../Basic/Source/gd32e23x_rcu.c:148:29
	ands	r1, r0
	movs	r2, #1
	lsls	r2, r1
	.loc	4 148 5 is_stmt 0       @ ../Basic/Source/gd32e23x_rcu.c:148:5
	lsrs	r0, r0, #6
.Ltmp12:
	.loc	4 0 5                   @ ../Basic/Source/gd32e23x_rcu.c:0:5
	ldr	r1, __arm_cp.4_0
	.loc	4 148 25                @ ../Basic/Source/gd32e23x_rcu.c:148:25
	ldr	r3, [r0, r1]
	bics	r3, r2
	str	r3, [r0, r1]
	.loc	4 149 1 is_stmt 1       @ ../Basic/Source/gd32e23x_rcu.c:149:1
	bx	lr
.Ltmp13:
	.p2align	2
@ %bb.1:
	.loc	4 0 1 is_stmt 0         @ ../Basic/Source/gd32e23x_rcu.c:0:1
__arm_cp.4_0:
	.long	1073876992              @ 0x40021000
.Lcpi_end7:
	.size	__arm_cp.4_0, .Lcpi_end7-__arm_cp.4_0
.Lfunc_end4:
	.size	rcu_periph_clock_sleep_disable, .Lfunc_end4-rcu_periph_clock_sleep_disable
	.cfi_endproc
	.cantunwind
	.fnend
                                        @ -- End function
	.section	.text.rcu_periph_reset_enable,"ax",%progbits
	.hidden	rcu_periph_reset_enable @ -- Begin function rcu_periph_reset_enable
	.globl	rcu_periph_reset_enable
	.p2align	2
	.type	rcu_periph_reset_enable,%function
	.code	16                      @ @rcu_periph_reset_enable
	.thumb_func
rcu_periph_reset_enable:
.Lfunc_begin5:
	.loc	4 167 0 is_stmt 1       @ ../Basic/Source/gd32e23x_rcu.c:167:0
	.fnstart
	.cfi_startproc
@ %bb.0:
	@DEBUG_VALUE: rcu_periph_reset_enable:periph_reset <- $r0
	@DEBUG_VALUE: rcu_periph_reset_enable:periph_reset <- $r0
	movs	r1, #31
.Ltmp14:
	.loc	4 168 34 prologue_end   @ ../Basic/Source/gd32e23x_rcu.c:168:34
	ands	r1, r0
	movs	r2, #1
	lsls	r2, r1
	.loc	4 168 5 is_stmt 0       @ ../Basic/Source/gd32e23x_rcu.c:168:5
	lsrs	r0, r0, #6
.Ltmp15:
	.loc	4 0 5                   @ ../Basic/Source/gd32e23x_rcu.c:0:5
	ldr	r1, __arm_cp.5_0
	.loc	4 168 31                @ ../Basic/Source/gd32e23x_rcu.c:168:31
	ldr	r3, [r0, r1]
	orrs	r3, r2
	str	r3, [r0, r1]
	.loc	4 169 1 is_stmt 1       @ ../Basic/Source/gd32e23x_rcu.c:169:1
	bx	lr
.Ltmp16:
	.p2align	2
@ %bb.1:
	.loc	4 0 1 is_stmt 0         @ ../Basic/Source/gd32e23x_rcu.c:0:1
__arm_cp.5_0:
	.long	1073876992              @ 0x40021000
.Lcpi_end8:
	.size	__arm_cp.5_0, .Lcpi_end8-__arm_cp.5_0
.Lfunc_end5:
	.size	rcu_periph_reset_enable, .Lfunc_end5-rcu_periph_reset_enable
	.cfi_endproc
	.cantunwind
	.fnend
                                        @ -- End function
	.section	.text.rcu_periph_reset_disable,"ax",%progbits
	.hidden	rcu_periph_reset_disable @ -- Begin function rcu_periph_reset_disable
	.globl	rcu_periph_reset_disable
	.p2align	2
	.type	rcu_periph_reset_disable,%function
	.code	16                      @ @rcu_periph_reset_disable
	.thumb_func
rcu_periph_reset_disable:
.Lfunc_begin6:
	.loc	4 188 0 is_stmt 1       @ ../Basic/Source/gd32e23x_rcu.c:188:0
	.fnstart
	.cfi_startproc
@ %bb.0:
	@DEBUG_VALUE: rcu_periph_reset_disable:periph_reset <- $r0
	@DEBUG_VALUE: rcu_periph_reset_disable:periph_reset <- $r0
	movs	r1, #31
.Ltmp17:
	.loc	4 189 35 prologue_end   @ ../Basic/Source/gd32e23x_rcu.c:189:35
	ands	r1, r0
	movs	r2, #1
	lsls	r2, r1
	.loc	4 189 5 is_stmt 0       @ ../Basic/Source/gd32e23x_rcu.c:189:5
	lsrs	r0, r0, #6
.Ltmp18:
	.loc	4 0 5                   @ ../Basic/Source/gd32e23x_rcu.c:0:5
	ldr	r1, __arm_cp.6_0
	.loc	4 189 31                @ ../Basic/Source/gd32e23x_rcu.c:189:31
	ldr	r3, [r0, r1]
	bics	r3, r2
	str	r3, [r0, r1]
	.loc	4 190 1 is_stmt 1       @ ../Basic/Source/gd32e23x_rcu.c:190:1
	bx	lr
.Ltmp19:
	.p2align	2
@ %bb.1:
	.loc	4 0 1 is_stmt 0         @ ../Basic/Source/gd32e23x_rcu.c:0:1
__arm_cp.6_0:
	.long	1073876992              @ 0x40021000
.Lcpi_end9:
	.size	__arm_cp.6_0, .Lcpi_end9-__arm_cp.6_0
.Lfunc_end6:
	.size	rcu_periph_reset_disable, .Lfunc_end6-rcu_periph_reset_disable
	.cfi_endproc
	.cantunwind
	.fnend
                                        @ -- End function
	.section	.text.rcu_bkp_reset_enable,"ax",%progbits
	.hidden	rcu_bkp_reset_enable    @ -- Begin function rcu_bkp_reset_enable
	.globl	rcu_bkp_reset_enable
	.p2align	2
	.type	rcu_bkp_reset_enable,%function
	.code	16                      @ @rcu_bkp_reset_enable
	.thumb_func
rcu_bkp_reset_enable:
.Lfunc_begin7:
	.loc	4 199 0 is_stmt 1       @ ../Basic/Source/gd32e23x_rcu.c:199:0
	.fnstart
	.cfi_startproc
@ %bb.0:
	movs	r0, #1
	lsls	r0, r0, #16
	ldr	r1, __arm_cp.7_0
.Ltmp20:
	.loc	4 200 15 prologue_end   @ ../Basic/Source/gd32e23x_rcu.c:200:15
	ldr	r2, [r1]
	orrs	r2, r0
	str	r2, [r1]
	.loc	4 201 1                 @ ../Basic/Source/gd32e23x_rcu.c:201:1
	bx	lr
.Ltmp21:
	.p2align	2
@ %bb.1:
	.loc	4 0 1 is_stmt 0         @ ../Basic/Source/gd32e23x_rcu.c:0:1
__arm_cp.7_0:
	.long	1073877024              @ 0x40021020
.Lcpi_end10:
	.size	__arm_cp.7_0, .Lcpi_end10-__arm_cp.7_0
.Lfunc_end7:
	.size	rcu_bkp_reset_enable, .Lfunc_end7-rcu_bkp_reset_enable
	.cfi_endproc
	.cantunwind
	.fnend
                                        @ -- End function
	.section	.text.rcu_bkp_reset_disable,"ax",%progbits
	.hidden	rcu_bkp_reset_disable   @ -- Begin function rcu_bkp_reset_disable
	.globl	rcu_bkp_reset_disable
	.p2align	2
	.type	rcu_bkp_reset_disable,%function
	.code	16                      @ @rcu_bkp_reset_disable
	.thumb_func
rcu_bkp_reset_disable:
.Lfunc_begin8:
	.loc	4 210 0 is_stmt 1       @ ../Basic/Source/gd32e23x_rcu.c:210:0
	.fnstart
	.cfi_startproc
@ %bb.0:
	movs	r0, #1
	lsls	r0, r0, #16
	ldr	r1, __arm_cp.8_0
.Ltmp22:
	.loc	4 211 15 prologue_end   @ ../Basic/Source/gd32e23x_rcu.c:211:15
	ldr	r2, [r1]
	bics	r2, r0
	str	r2, [r1]
	.loc	4 212 1                 @ ../Basic/Source/gd32e23x_rcu.c:212:1
	bx	lr
.Ltmp23:
	.p2align	2
@ %bb.1:
	.loc	4 0 1 is_stmt 0         @ ../Basic/Source/gd32e23x_rcu.c:0:1
__arm_cp.8_0:
	.long	1073877024              @ 0x40021020
.Lcpi_end11:
	.size	__arm_cp.8_0, .Lcpi_end11-__arm_cp.8_0
.Lfunc_end8:
	.size	rcu_bkp_reset_disable, .Lfunc_end8-rcu_bkp_reset_disable
	.cfi_endproc
	.cantunwind
	.fnend
                                        @ -- End function
	.section	.text.rcu_system_clock_source_config,"ax",%progbits
	.hidden	rcu_system_clock_source_config @ -- Begin function rcu_system_clock_source_config
	.globl	rcu_system_clock_source_config
	.p2align	2
	.type	rcu_system_clock_source_config,%function
	.code	16                      @ @rcu_system_clock_source_config
	.thumb_func
rcu_system_clock_source_config:
.Lfunc_begin9:
	.loc	4 225 0 is_stmt 1       @ ../Basic/Source/gd32e23x_rcu.c:225:0
	.fnstart
	.cfi_startproc
@ %bb.0:
	@DEBUG_VALUE: rcu_system_clock_source_config:ck_sys <- $r0
	@DEBUG_VALUE: rcu_system_clock_source_config:ck_sys <- $r0
	@DEBUG_VALUE: rcu_system_clock_source_config:cksys_source <- 0
	ldr	r1, __arm_cp.9_0
.Ltmp24:
	.loc	4 227 20 prologue_end   @ ../Basic/Source/gd32e23x_rcu.c:227:20
	ldr	r2, [r1]
.Ltmp25:
	@DEBUG_VALUE: rcu_system_clock_source_config:cksys_source <- $r2
	.loc	4 0 20 is_stmt 0        @ ../Basic/Source/gd32e23x_rcu.c:0:20
	movs	r3, #3
	.loc	4 229 18 is_stmt 1      @ ../Basic/Source/gd32e23x_rcu.c:229:18
	bics	r2, r3
.Ltmp26:
	@DEBUG_VALUE: rcu_system_clock_source_config:cksys_source <- $r2
	.loc	4 230 24                @ ../Basic/Source/gd32e23x_rcu.c:230:24
	orrs	r2, r0
.Ltmp27:
	.loc	4 230 14 is_stmt 0      @ ../Basic/Source/gd32e23x_rcu.c:230:14
	str	r2, [r1]
	.loc	4 231 1 is_stmt 1       @ ../Basic/Source/gd32e23x_rcu.c:231:1
	bx	lr
.Ltmp28:
	.p2align	2
@ %bb.1:
	.loc	4 0 1 is_stmt 0         @ ../Basic/Source/gd32e23x_rcu.c:0:1
__arm_cp.9_0:
	.long	1073876996              @ 0x40021004
.Lcpi_end12:
	.size	__arm_cp.9_0, .Lcpi_end12-__arm_cp.9_0
.Lfunc_end9:
	.size	rcu_system_clock_source_config, .Lfunc_end9-rcu_system_clock_source_config
	.cfi_endproc
	.cantunwind
	.fnend
                                        @ -- End function
	.section	.text.rcu_system_clock_source_get,"ax",%progbits
	.hidden	rcu_system_clock_source_get @ -- Begin function rcu_system_clock_source_get
	.globl	rcu_system_clock_source_get
	.p2align	2
	.type	rcu_system_clock_source_get,%function
	.code	16                      @ @rcu_system_clock_source_get
	.thumb_func
rcu_system_clock_source_get:
.Lfunc_begin10:
	.loc	4 243 0 is_stmt 1       @ ../Basic/Source/gd32e23x_rcu.c:243:0
	.fnstart
	.cfi_startproc
@ %bb.0:
	ldr	r0, __arm_cp.10_0
.Ltmp29:
	.loc	4 244 13 prologue_end   @ ../Basic/Source/gd32e23x_rcu.c:244:13
	ldr	r1, [r0]
	movs	r0, #12
	.loc	4 244 22 is_stmt 0      @ ../Basic/Source/gd32e23x_rcu.c:244:22
	ands	r0, r1
	.loc	4 244 5                 @ ../Basic/Source/gd32e23x_rcu.c:244:5
	bx	lr
.Ltmp30:
	.p2align	2
@ %bb.1:
	.loc	4 0 5                   @ ../Basic/Source/gd32e23x_rcu.c:0:5
__arm_cp.10_0:
	.long	1073876996              @ 0x40021004
.Lcpi_end13:
	.size	__arm_cp.10_0, .Lcpi_end13-__arm_cp.10_0
.Lfunc_end10:
	.size	rcu_system_clock_source_get, .Lfunc_end10-rcu_system_clock_source_get
	.cfi_endproc
	.cantunwind
	.fnend
                                        @ -- End function
	.section	.text.rcu_ahb_clock_config,"ax",%progbits
	.hidden	rcu_ahb_clock_config    @ -- Begin function rcu_ahb_clock_config
	.globl	rcu_ahb_clock_config
	.p2align	2
	.type	rcu_ahb_clock_config,%function
	.code	16                      @ @rcu_ahb_clock_config
	.thumb_func
rcu_ahb_clock_config:
.Lfunc_begin11:
	.loc	4 256 0 is_stmt 1       @ ../Basic/Source/gd32e23x_rcu.c:256:0
	.fnstart
	.cfi_startproc
@ %bb.0:
	@DEBUG_VALUE: rcu_ahb_clock_config:ck_ahb <- $r0
	@DEBUG_VALUE: rcu_ahb_clock_config:ck_ahb <- $r0
	@DEBUG_VALUE: rcu_ahb_clock_config:ahbpsc <- 0
	ldr	r1, __arm_cp.11_0
.Ltmp31:
	.loc	4 258 14 prologue_end   @ ../Basic/Source/gd32e23x_rcu.c:258:14
	ldr	r2, [r1]
.Ltmp32:
	@DEBUG_VALUE: rcu_ahb_clock_config:ahbpsc <- $r2
	.loc	4 0 14 is_stmt 0        @ ../Basic/Source/gd32e23x_rcu.c:0:14
	movs	r3, #240
	.loc	4 260 12 is_stmt 1      @ ../Basic/Source/gd32e23x_rcu.c:260:12
	bics	r2, r3
.Ltmp33:
	@DEBUG_VALUE: rcu_ahb_clock_config:ahbpsc <- $r2
	.loc	4 261 24                @ ../Basic/Source/gd32e23x_rcu.c:261:24
	orrs	r2, r0
.Ltmp34:
	.loc	4 261 14 is_stmt 0      @ ../Basic/Source/gd32e23x_rcu.c:261:14
	str	r2, [r1]
	.loc	4 262 1 is_stmt 1       @ ../Basic/Source/gd32e23x_rcu.c:262:1
	bx	lr
.Ltmp35:
	.p2align	2
@ %bb.1:
	.loc	4 0 1 is_stmt 0         @ ../Basic/Source/gd32e23x_rcu.c:0:1
__arm_cp.11_0:
	.long	1073876996              @ 0x40021004
.Lcpi_end14:
	.size	__arm_cp.11_0, .Lcpi_end14-__arm_cp.11_0
.Lfunc_end11:
	.size	rcu_ahb_clock_config, .Lfunc_end11-rcu_ahb_clock_config
	.cfi_endproc
	.cantunwind
	.fnend
                                        @ -- End function
	.section	.text.rcu_apb1_clock_config,"ax",%progbits
	.hidden	rcu_apb1_clock_config   @ -- Begin function rcu_apb1_clock_config
	.globl	rcu_apb1_clock_config
	.p2align	2
	.type	rcu_apb1_clock_config,%function
	.code	16                      @ @rcu_apb1_clock_config
	.thumb_func
rcu_apb1_clock_config:
.Lfunc_begin12:
	.loc	4 277 0 is_stmt 1       @ ../Basic/Source/gd32e23x_rcu.c:277:0
	.fnstart
	.cfi_startproc
@ %bb.0:
	@DEBUG_VALUE: rcu_apb1_clock_config:ck_apb1 <- $r0
	@DEBUG_VALUE: rcu_apb1_clock_config:ck_apb1 <- $r0
	@DEBUG_VALUE: rcu_apb1_clock_config:apb1psc <- 0
	ldr	r1, __arm_cp.12_0
.Ltmp36:
	.loc	4 279 15 prologue_end   @ ../Basic/Source/gd32e23x_rcu.c:279:15
	ldr	r2, [r1]
.Ltmp37:
	@DEBUG_VALUE: rcu_apb1_clock_config:apb1psc <- $r2
	.loc	4 0 15 is_stmt 0        @ ../Basic/Source/gd32e23x_rcu.c:0:15
	movw	r3, #1792
	.loc	4 281 13 is_stmt 1      @ ../Basic/Source/gd32e23x_rcu.c:281:13
	bics	r2, r3
.Ltmp38:
	@DEBUG_VALUE: rcu_apb1_clock_config:apb1psc <- $r2
	.loc	4 282 25                @ ../Basic/Source/gd32e23x_rcu.c:282:25
	orrs	r2, r0
.Ltmp39:
	.loc	4 282 14 is_stmt 0      @ ../Basic/Source/gd32e23x_rcu.c:282:14
	str	r2, [r1]
	.loc	4 283 1 is_stmt 1       @ ../Basic/Source/gd32e23x_rcu.c:283:1
	bx	lr
.Ltmp40:
	.p2align	2
@ %bb.1:
	.loc	4 0 1 is_stmt 0         @ ../Basic/Source/gd32e23x_rcu.c:0:1
__arm_cp.12_0:
	.long	1073876996              @ 0x40021004
.Lcpi_end15:
	.size	__arm_cp.12_0, .Lcpi_end15-__arm_cp.12_0
.Lfunc_end12:
	.size	rcu_apb1_clock_config, .Lfunc_end12-rcu_apb1_clock_config
	.cfi_endproc
	.cantunwind
	.fnend
                                        @ -- End function
	.section	.text.rcu_apb2_clock_config,"ax",%progbits
	.hidden	rcu_apb2_clock_config   @ -- Begin function rcu_apb2_clock_config
	.globl	rcu_apb2_clock_config
	.p2align	2
	.type	rcu_apb2_clock_config,%function
	.code	16                      @ @rcu_apb2_clock_config
	.thumb_func
rcu_apb2_clock_config:
.Lfunc_begin13:
	.loc	4 298 0 is_stmt 1       @ ../Basic/Source/gd32e23x_rcu.c:298:0
	.fnstart
	.cfi_startproc
@ %bb.0:
	@DEBUG_VALUE: rcu_apb2_clock_config:ck_apb2 <- $r0
	@DEBUG_VALUE: rcu_apb2_clock_config:ck_apb2 <- $r0
	@DEBUG_VALUE: rcu_apb2_clock_config:apb2psc <- 0
	ldr	r1, __arm_cp.13_0
.Ltmp41:
	.loc	4 300 15 prologue_end   @ ../Basic/Source/gd32e23x_rcu.c:300:15
	ldr	r2, [r1]
.Ltmp42:
	@DEBUG_VALUE: rcu_apb2_clock_config:apb2psc <- $r2
	.loc	4 0 15 is_stmt 0        @ ../Basic/Source/gd32e23x_rcu.c:0:15
	movw	r3, #14336
	.loc	4 302 13 is_stmt 1      @ ../Basic/Source/gd32e23x_rcu.c:302:13
	bics	r2, r3
.Ltmp43:
	@DEBUG_VALUE: rcu_apb2_clock_config:apb2psc <- $r2
	.loc	4 303 25                @ ../Basic/Source/gd32e23x_rcu.c:303:25
	orrs	r2, r0
.Ltmp44:
	.loc	4 303 14 is_stmt 0      @ ../Basic/Source/gd32e23x_rcu.c:303:14
	str	r2, [r1]
	.loc	4 304 1 is_stmt 1       @ ../Basic/Source/gd32e23x_rcu.c:304:1
	bx	lr
.Ltmp45:
	.p2align	2
@ %bb.1:
	.loc	4 0 1 is_stmt 0         @ ../Basic/Source/gd32e23x_rcu.c:0:1
__arm_cp.13_0:
	.long	1073876996              @ 0x40021004
.Lcpi_end16:
	.size	__arm_cp.13_0, .Lcpi_end16-__arm_cp.13_0
.Lfunc_end13:
	.size	rcu_apb2_clock_config, .Lfunc_end13-rcu_apb2_clock_config
	.cfi_endproc
	.cantunwind
	.fnend
                                        @ -- End function
	.section	.text.rcu_adc_clock_config,"ax",%progbits
	.hidden	rcu_adc_clock_config    @ -- Begin function rcu_adc_clock_config
	.globl	rcu_adc_clock_config
	.p2align	2
	.type	rcu_adc_clock_config,%function
	.code	16                      @ @rcu_adc_clock_config
	.thumb_func
rcu_adc_clock_config:
.Lfunc_begin14:
	.loc	4 324 0 is_stmt 1       @ ../Basic/Source/gd32e23x_rcu.c:324:0
	.fnstart
	.cfi_startproc
@ %bb.0:
	@DEBUG_VALUE: rcu_adc_clock_config:ck_adc <- $r0
	@DEBUG_VALUE: rcu_adc_clock_config:ck_adc <- $r0
	ldr	r1, __arm_cp.14_0
.Ltmp46:
	.loc	4 326 14 prologue_end   @ ../Basic/Source/gd32e23x_rcu.c:326:14
	ldr	r2, [r1]
	movw	r3, #49152
	bics	r2, r3
	str	r2, [r1]
	.loc	4 327 14                @ ../Basic/Source/gd32e23x_rcu.c:327:14
	ldr	r2, [r1, #44]
	ldr	r3, __arm_cp.14_1
	ands	r3, r2
	str	r3, [r1, #44]
	.loc	4 330 5                 @ ../Basic/Source/gd32e23x_rcu.c:330:5
	cmp	r0, #9
	bhi	.LBB14_19
.Ltmp47:
@ %bb.1:
	@DEBUG_VALUE: rcu_adc_clock_config:ck_adc <- $r0
	.loc	4 0 5 is_stmt 0         @ ../Basic/Source/gd32e23x_rcu.c:0:5
	lsls	r2, r0, #2
	adr	r3, .LJTI14_0
	adds	r2, r3, r2
	mov	pc, r2
.Ltmp48:
@ %bb.2:
	.p2align	2
.LJTI14_0:
	b.w	.LBB14_3
	b.w	.LBB14_4
	b.w	.LBB14_6
	b.w	.LBB14_7
	b.w	.LBB14_8
	b.w	.LBB14_9
	b.w	.LBB14_10
	b.w	.LBB14_11
	b.w	.LBB14_15
	b.w	.LBB14_12
.LBB14_3:
.Ltmp49:
	@DEBUG_VALUE: rcu_adc_clock_config:ck_adc <- $r0
	movs	r0, #1
.Ltmp50:
	lsls	r0, r0, #16
.Ltmp51:
	.loc	4 332 18 is_stmt 1      @ ../Basic/Source/gd32e23x_rcu.c:332:18
	ldr	r2, [r1, #44]
	bics	r2, r0
	b	.LBB14_5
.LBB14_4:
.Ltmp52:
	@DEBUG_VALUE: rcu_adc_clock_config:ck_adc <- $r0
	.loc	4 0 18 is_stmt 0        @ ../Basic/Source/gd32e23x_rcu.c:0:18
	movs	r0, #1
.Ltmp53:
	lsls	r0, r0, #16
	.loc	4 336 18 is_stmt 1      @ ../Basic/Source/gd32e23x_rcu.c:336:18
	ldr	r2, [r1, #44]
	orrs	r2, r0
.LBB14_5:
	.loc	4 0 0 is_stmt 0         @ ../Basic/Source/gd32e23x_rcu.c:0:0
	str	r2, [r1, #44]
	ldr	r0, [r1, #44]
	movw	r2, #256
	bics	r0, r2
	b	.LBB14_18
.LBB14_6:
.Ltmp54:
	@DEBUG_VALUE: rcu_adc_clock_config:ck_adc <- $r0
	.loc	4 340 18 is_stmt 1      @ ../Basic/Source/gd32e23x_rcu.c:340:18
	ldr	r0, [r1]
.Ltmp55:
	str	r0, [r1]
	b	.LBB14_17
.LBB14_7:
.Ltmp56:
	@DEBUG_VALUE: rcu_adc_clock_config:ck_adc <- $r0
	.loc	4 344 18                @ ../Basic/Source/gd32e23x_rcu.c:344:18
	ldr	r0, [r1]
.Ltmp57:
	str	r0, [r1]
	b	.LBB14_14
.LBB14_8:
.Ltmp58:
	@DEBUG_VALUE: rcu_adc_clock_config:ck_adc <- $r0
	.loc	4 349 18                @ ../Basic/Source/gd32e23x_rcu.c:349:18
	ldr	r0, [r1]
.Ltmp59:
	.loc	4 0 18 is_stmt 0        @ ../Basic/Source/gd32e23x_rcu.c:0:18
	movw	r2, #16384
	b	.LBB14_16
.LBB14_9:
.Ltmp60:
	@DEBUG_VALUE: rcu_adc_clock_config:ck_adc <- $r0
	.loc	4 353 18 is_stmt 1      @ ../Basic/Source/gd32e23x_rcu.c:353:18
	ldr	r0, [r1]
.Ltmp61:
	.loc	4 0 18 is_stmt 0        @ ../Basic/Source/gd32e23x_rcu.c:0:18
	movw	r2, #16384
	b	.LBB14_13
.LBB14_10:
.Ltmp62:
	@DEBUG_VALUE: rcu_adc_clock_config:ck_adc <- $r0
	.loc	4 358 18 is_stmt 1      @ ../Basic/Source/gd32e23x_rcu.c:358:18
	ldr	r0, [r1]
.Ltmp63:
	.loc	4 0 18 is_stmt 0        @ ../Basic/Source/gd32e23x_rcu.c:0:18
	movw	r2, #32768
	b	.LBB14_16
.LBB14_11:
.Ltmp64:
	@DEBUG_VALUE: rcu_adc_clock_config:ck_adc <- $r0
	.loc	4 362 18 is_stmt 1      @ ../Basic/Source/gd32e23x_rcu.c:362:18
	ldr	r0, [r1]
.Ltmp65:
	.loc	4 0 18 is_stmt 0        @ ../Basic/Source/gd32e23x_rcu.c:0:18
	movw	r2, #32768
	b	.LBB14_13
.LBB14_12:
.Ltmp66:
	@DEBUG_VALUE: rcu_adc_clock_config:ck_adc <- $r0
	.loc	4 371 18 is_stmt 1      @ ../Basic/Source/gd32e23x_rcu.c:371:18
	ldr	r0, [r1]
.Ltmp67:
	.loc	4 0 18 is_stmt 0        @ ../Basic/Source/gd32e23x_rcu.c:0:18
	movw	r2, #49152
.LBB14_13:
	orrs	r2, r0
	str	r2, [r1]
.LBB14_14:
	movs	r0, #1
	lsls	r0, r0, #31
	ldr	r2, [r1, #44]
	orrs	r2, r0
	str	r2, [r1, #44]
	b	.LBB14_17
.LBB14_15:
.Ltmp68:
	@DEBUG_VALUE: rcu_adc_clock_config:ck_adc <- $r0
	.loc	4 367 18 is_stmt 1      @ ../Basic/Source/gd32e23x_rcu.c:367:18
	ldr	r0, [r1]
.Ltmp69:
	.loc	4 0 18 is_stmt 0        @ ../Basic/Source/gd32e23x_rcu.c:0:18
	movw	r2, #49152
.LBB14_16:
	orrs	r2, r0
	str	r2, [r1]
.LBB14_17:
	ldr	r2, [r1, #44]
	movw	r0, #256
	orrs	r0, r2
.LBB14_18:
	str	r0, [r1, #44]
.Ltmp70:
.LBB14_19:
	.loc	4 378 1 is_stmt 1       @ ../Basic/Source/gd32e23x_rcu.c:378:1
	bx	lr
.Ltmp71:
	.p2align	2
@ %bb.20:
	.loc	4 0 1 is_stmt 0         @ ../Basic/Source/gd32e23x_rcu.c:0:1
__arm_cp.14_0:
	.long	1073876996              @ 0x40021004
.Lcpi_end17:
	.size	__arm_cp.14_0, .Lcpi_end17-__arm_cp.14_0
__arm_cp.14_1:
	.long	2147417855              @ 0x7ffefeff
.Lcpi_end18:
	.size	__arm_cp.14_1, .Lcpi_end18-__arm_cp.14_1
.Lfunc_end14:
	.size	rcu_adc_clock_config, .Lfunc_end14-rcu_adc_clock_config
	.cfi_endproc
	.cantunwind
	.fnend
                                        @ -- End function
	.section	.text.rcu_ckout_config,"ax",%progbits
	.hidden	rcu_ckout_config        @ -- Begin function rcu_ckout_config
	.globl	rcu_ckout_config
	.p2align	2
	.type	rcu_ckout_config,%function
	.code	16                      @ @rcu_ckout_config
	.thumb_func
rcu_ckout_config:
.Lfunc_begin15:
	.loc	4 399 0 is_stmt 1       @ ../Basic/Source/gd32e23x_rcu.c:399:0
	.fnstart
	.cfi_startproc
@ %bb.0:
	@DEBUG_VALUE: rcu_ckout_config:ckout_src <- $r0
	@DEBUG_VALUE: rcu_ckout_config:ckout_src <- $r0
	@DEBUG_VALUE: rcu_ckout_config:ckout_div <- $r1
	@DEBUG_VALUE: rcu_ckout_config:ckout_div <- $r1
	@DEBUG_VALUE: rcu_ckout_config:ckout <- 0
	.loc	4 404 23 prologue_end   @ ../Basic/Source/gd32e23x_rcu.c:404:23
	orrs	r0, r1
.Ltmp72:
	.loc	4 0 23 is_stmt 0        @ ../Basic/Source/gd32e23x_rcu.c:0:23
	movs	r1, #247
.Ltmp73:
	lsls	r1, r1, #24
	ldr	r2, __arm_cp.15_0
	.loc	4 401 13 is_stmt 1      @ ../Basic/Source/gd32e23x_rcu.c:401:13
	ldr	r3, [r2]
.Ltmp74:
	@DEBUG_VALUE: rcu_ckout_config:ckout <- $r3
	.loc	4 403 11                @ ../Basic/Source/gd32e23x_rcu.c:403:11
	bics	r3, r1
.Ltmp75:
	@DEBUG_VALUE: rcu_ckout_config:ckout <- $r3
	.loc	4 404 35                @ ../Basic/Source/gd32e23x_rcu.c:404:35
	orrs	r3, r0
.Ltmp76:
	.loc	4 404 14 is_stmt 0      @ ../Basic/Source/gd32e23x_rcu.c:404:14
	str	r3, [r2]
	.loc	4 405 1 is_stmt 1       @ ../Basic/Source/gd32e23x_rcu.c:405:1
	bx	lr
.Ltmp77:
	.p2align	2
@ %bb.1:
	.loc	4 0 1 is_stmt 0         @ ../Basic/Source/gd32e23x_rcu.c:0:1
__arm_cp.15_0:
	.long	1073876996              @ 0x40021004
.Lcpi_end19:
	.size	__arm_cp.15_0, .Lcpi_end19-__arm_cp.15_0
.Lfunc_end15:
	.size	rcu_ckout_config, .Lfunc_end15-rcu_ckout_config
	.cfi_endproc
	.cantunwind
	.fnend
                                        @ -- End function
	.section	.text.rcu_pll_config,"ax",%progbits
	.hidden	rcu_pll_config          @ -- Begin function rcu_pll_config
	.globl	rcu_pll_config
	.p2align	2
	.type	rcu_pll_config,%function
	.code	16                      @ @rcu_pll_config
	.thumb_func
rcu_pll_config:
.Lfunc_begin16:
	.loc	4 420 0 is_stmt 1       @ ../Basic/Source/gd32e23x_rcu.c:420:0
	.fnstart
	.cfi_startproc
@ %bb.0:
	@DEBUG_VALUE: rcu_pll_config:pll_src <- $r0
	@DEBUG_VALUE: rcu_pll_config:pll_src <- $r0
	@DEBUG_VALUE: rcu_pll_config:pll_mul <- $r1
	@DEBUG_VALUE: rcu_pll_config:pll_mul <- $r1
	.save	{r4, lr}
	push	{r4, lr}
	.cfi_def_cfa_offset 8
	.cfi_offset lr, -4
	.cfi_offset r4, -8
	ldr	r2, __arm_cp.16_0
.Ltmp78:
	.loc	4 421 14 prologue_end   @ ../Basic/Source/gd32e23x_rcu.c:421:14
	ldr	r3, [r2]
	ldr	r4, __arm_cp.16_1
	ands	r4, r3
	str	r4, [r2]
	.loc	4 422 26                @ ../Basic/Source/gd32e23x_rcu.c:422:26
	orrs	r0, r1
.Ltmp79:
	.loc	4 422 14 is_stmt 0      @ ../Basic/Source/gd32e23x_rcu.c:422:14
	ldr	r1, [r2]
.Ltmp80:
	orrs	r1, r0
	str	r1, [r2]
	.loc	4 423 1 is_stmt 1       @ ../Basic/Source/gd32e23x_rcu.c:423:1
	pop	{r4, pc}
.Ltmp81:
	.p2align	2
@ %bb.1:
	.loc	4 0 1 is_stmt 0         @ ../Basic/Source/gd32e23x_rcu.c:0:1
__arm_cp.16_0:
	.long	1073876996              @ 0x40021004
.Lcpi_end20:
	.size	__arm_cp.16_0, .Lcpi_end20-__arm_cp.16_0
__arm_cp.16_1:
	.long	4156751871              @ 0xf7c2ffff
.Lcpi_end21:
	.size	__arm_cp.16_1, .Lcpi_end21-__arm_cp.16_1
.Lfunc_end16:
	.size	rcu_pll_config, .Lfunc_end16-rcu_pll_config
	.cfi_endproc
	.cantunwind
	.fnend
                                        @ -- End function
	.section	.text.rcu_usart_clock_config,"ax",%progbits
	.hidden	rcu_usart_clock_config  @ -- Begin function rcu_usart_clock_config
	.globl	rcu_usart_clock_config
	.p2align	2
	.type	rcu_usart_clock_config,%function
	.code	16                      @ @rcu_usart_clock_config
	.thumb_func
rcu_usart_clock_config:
.Lfunc_begin17:
	.loc	4 437 0 is_stmt 1       @ ../Basic/Source/gd32e23x_rcu.c:437:0
	.fnstart
	.cfi_startproc
@ %bb.0:
	@DEBUG_VALUE: rcu_usart_clock_config:ck_usart <- $r0
	@DEBUG_VALUE: rcu_usart_clock_config:ck_usart <- $r0
	ldr	r1, __arm_cp.17_0
.Ltmp82:
	.loc	4 439 14 prologue_end   @ ../Basic/Source/gd32e23x_rcu.c:439:14
	ldr	r2, [r1]
	movs	r3, #3
	bics	r2, r3
	str	r2, [r1]
	.loc	4 440 14                @ ../Basic/Source/gd32e23x_rcu.c:440:14
	ldr	r2, [r1]
	orrs	r2, r0
	str	r2, [r1]
	.loc	4 441 1                 @ ../Basic/Source/gd32e23x_rcu.c:441:1
	bx	lr
.Ltmp83:
	.p2align	2
@ %bb.1:
	.loc	4 0 1 is_stmt 0         @ ../Basic/Source/gd32e23x_rcu.c:0:1
__arm_cp.17_0:
	.long	1073877040              @ 0x40021030
.Lcpi_end22:
	.size	__arm_cp.17_0, .Lcpi_end22-__arm_cp.17_0
.Lfunc_end17:
	.size	rcu_usart_clock_config, .Lfunc_end17-rcu_usart_clock_config
	.cfi_endproc
	.cantunwind
	.fnend
                                        @ -- End function
	.section	.text.rcu_rtc_clock_config,"ax",%progbits
	.hidden	rcu_rtc_clock_config    @ -- Begin function rcu_rtc_clock_config
	.globl	rcu_rtc_clock_config
	.p2align	2
	.type	rcu_rtc_clock_config,%function
	.code	16                      @ @rcu_rtc_clock_config
	.thumb_func
rcu_rtc_clock_config:
.Lfunc_begin18:
	.loc	4 455 0 is_stmt 1       @ ../Basic/Source/gd32e23x_rcu.c:455:0
	.fnstart
	.cfi_startproc
@ %bb.0:
	@DEBUG_VALUE: rcu_rtc_clock_config:rtc_clock_source <- $r0
	@DEBUG_VALUE: rcu_rtc_clock_config:rtc_clock_source <- $r0
	ldr	r1, __arm_cp.18_0
.Ltmp84:
	.loc	4 457 15 prologue_end   @ ../Basic/Source/gd32e23x_rcu.c:457:15
	ldr	r2, [r1]
	movw	r3, #768
	bics	r2, r3
	str	r2, [r1]
	.loc	4 458 15                @ ../Basic/Source/gd32e23x_rcu.c:458:15
	ldr	r2, [r1]
	orrs	r2, r0
	str	r2, [r1]
	.loc	4 459 1                 @ ../Basic/Source/gd32e23x_rcu.c:459:1
	bx	lr
.Ltmp85:
	.p2align	2
@ %bb.1:
	.loc	4 0 1 is_stmt 0         @ ../Basic/Source/gd32e23x_rcu.c:0:1
__arm_cp.18_0:
	.long	1073877024              @ 0x40021020
.Lcpi_end23:
	.size	__arm_cp.18_0, .Lcpi_end23-__arm_cp.18_0
.Lfunc_end18:
	.size	rcu_rtc_clock_config, .Lfunc_end18-rcu_rtc_clock_config
	.cfi_endproc
	.cantunwind
	.fnend
                                        @ -- End function
	.section	.text.rcu_hxtal_prediv_config,"ax",%progbits
	.hidden	rcu_hxtal_prediv_config @ -- Begin function rcu_hxtal_prediv_config
	.globl	rcu_hxtal_prediv_config
	.p2align	2
	.type	rcu_hxtal_prediv_config,%function
	.code	16                      @ @rcu_hxtal_prediv_config
	.thumb_func
rcu_hxtal_prediv_config:
.Lfunc_begin19:
	.loc	4 470 0 is_stmt 1       @ ../Basic/Source/gd32e23x_rcu.c:470:0
	.fnstart
	.cfi_startproc
@ %bb.0:
	@DEBUG_VALUE: rcu_hxtal_prediv_config:hxtal_prediv <- $r0
	@DEBUG_VALUE: rcu_hxtal_prediv_config:hxtal_prediv <- $r0
	@DEBUG_VALUE: rcu_hxtal_prediv_config:prediv <- 0
	ldr	r1, __arm_cp.19_0
.Ltmp86:
	.loc	4 472 14 prologue_end   @ ../Basic/Source/gd32e23x_rcu.c:472:14
	ldr	r2, [r1]
.Ltmp87:
	@DEBUG_VALUE: rcu_hxtal_prediv_config:prediv <- $r2
	.loc	4 0 14 is_stmt 0        @ ../Basic/Source/gd32e23x_rcu.c:0:14
	movs	r3, #15
	.loc	4 474 12 is_stmt 1      @ ../Basic/Source/gd32e23x_rcu.c:474:12
	bics	r2, r3
.Ltmp88:
	@DEBUG_VALUE: rcu_hxtal_prediv_config:prediv <- $r2
	.loc	4 475 24                @ ../Basic/Source/gd32e23x_rcu.c:475:24
	orrs	r2, r0
.Ltmp89:
	.loc	4 475 14 is_stmt 0      @ ../Basic/Source/gd32e23x_rcu.c:475:14
	str	r2, [r1]
	.loc	4 476 1 is_stmt 1       @ ../Basic/Source/gd32e23x_rcu.c:476:1
	bx	lr
.Ltmp90:
	.p2align	2
@ %bb.1:
	.loc	4 0 1 is_stmt 0         @ ../Basic/Source/gd32e23x_rcu.c:0:1
__arm_cp.19_0:
	.long	1073877036              @ 0x4002102c
.Lcpi_end24:
	.size	__arm_cp.19_0, .Lcpi_end24-__arm_cp.19_0
.Lfunc_end19:
	.size	rcu_hxtal_prediv_config, .Lfunc_end19-rcu_hxtal_prediv_config
	.cfi_endproc
	.cantunwind
	.fnend
                                        @ -- End function
	.section	.text.rcu_lxtal_drive_capability_config,"ax",%progbits
	.hidden	rcu_lxtal_drive_capability_config @ -- Begin function rcu_lxtal_drive_capability_config
	.globl	rcu_lxtal_drive_capability_config
	.p2align	2
	.type	rcu_lxtal_drive_capability_config,%function
	.code	16                      @ @rcu_lxtal_drive_capability_config
	.thumb_func
rcu_lxtal_drive_capability_config:
.Lfunc_begin20:
	.loc	4 490 0 is_stmt 1       @ ../Basic/Source/gd32e23x_rcu.c:490:0
	.fnstart
	.cfi_startproc
@ %bb.0:
	@DEBUG_VALUE: rcu_lxtal_drive_capability_config:lxtal_dricap <- $r0
	@DEBUG_VALUE: rcu_lxtal_drive_capability_config:lxtal_dricap <- $r0
	ldr	r1, __arm_cp.20_0
.Ltmp91:
	.loc	4 492 15 prologue_end   @ ../Basic/Source/gd32e23x_rcu.c:492:15
	ldr	r2, [r1]
	movs	r3, #24
	bics	r2, r3
	str	r2, [r1]
	.loc	4 493 15                @ ../Basic/Source/gd32e23x_rcu.c:493:15
	ldr	r2, [r1]
	orrs	r2, r0
	str	r2, [r1]
	.loc	4 494 1                 @ ../Basic/Source/gd32e23x_rcu.c:494:1
	bx	lr
.Ltmp92:
	.p2align	2
@ %bb.1:
	.loc	4 0 1 is_stmt 0         @ ../Basic/Source/gd32e23x_rcu.c:0:1
__arm_cp.20_0:
	.long	1073877024              @ 0x40021020
.Lcpi_end25:
	.size	__arm_cp.20_0, .Lcpi_end25-__arm_cp.20_0
.Lfunc_end20:
	.size	rcu_lxtal_drive_capability_config, .Lfunc_end20-rcu_lxtal_drive_capability_config
	.cfi_endproc
	.cantunwind
	.fnend
                                        @ -- End function
	.section	.text.rcu_flag_get,"ax",%progbits
	.hidden	rcu_flag_get            @ -- Begin function rcu_flag_get
	.globl	rcu_flag_get
	.p2align	2
	.type	rcu_flag_get,%function
	.code	16                      @ @rcu_flag_get
	.thumb_func
rcu_flag_get:
.Lfunc_begin21:
	.loc	4 518 0 is_stmt 1       @ ../Basic/Source/gd32e23x_rcu.c:518:0
	.fnstart
	.cfi_startproc
@ %bb.0:
	@DEBUG_VALUE: rcu_flag_get:flag <- $r0
	@DEBUG_VALUE: rcu_flag_get:flag <- $r0
	movs	r1, #31
.Ltmp93:
	.loc	4 519 38 prologue_end   @ ../Basic/Source/gd32e23x_rcu.c:519:38
	ands	r1, r0
	.loc	4 519 18 is_stmt 0      @ ../Basic/Source/gd32e23x_rcu.c:519:18
	lsrs	r0, r0, #6
.Ltmp94:
	.loc	4 0 18                  @ ../Basic/Source/gd32e23x_rcu.c:0:18
	ldr	r2, __arm_cp.21_0
	.loc	4 519 18                @ ../Basic/Source/gd32e23x_rcu.c:519:18
	ldr	r2, [r0, r2]
	.loc	4 519 14                @ ../Basic/Source/gd32e23x_rcu.c:519:14
	lsrs	r2, r1
	movs	r0, #1
	ands	r0, r2
.Ltmp95:
	.loc	4 524 1 is_stmt 1       @ ../Basic/Source/gd32e23x_rcu.c:524:1
	bx	lr
.Ltmp96:
	.p2align	2
@ %bb.1:
	.loc	4 0 1 is_stmt 0         @ ../Basic/Source/gd32e23x_rcu.c:0:1
__arm_cp.21_0:
	.long	1073876992              @ 0x40021000
.Lcpi_end26:
	.size	__arm_cp.21_0, .Lcpi_end26-__arm_cp.21_0
.Lfunc_end21:
	.size	rcu_flag_get, .Lfunc_end21-rcu_flag_get
	.cfi_endproc
	.cantunwind
	.fnend
                                        @ -- End function
	.section	.text.rcu_all_reset_flag_clear,"ax",%progbits
	.hidden	rcu_all_reset_flag_clear @ -- Begin function rcu_all_reset_flag_clear
	.globl	rcu_all_reset_flag_clear
	.p2align	2
	.type	rcu_all_reset_flag_clear,%function
	.code	16                      @ @rcu_all_reset_flag_clear
	.thumb_func
rcu_all_reset_flag_clear:
.Lfunc_begin22:
	.loc	4 533 0 is_stmt 1       @ ../Basic/Source/gd32e23x_rcu.c:533:0
	.fnstart
	.cfi_startproc
@ %bb.0:
	movs	r0, #1
	lsls	r0, r0, #24
	ldr	r1, __arm_cp.22_0
.Ltmp97:
	.loc	4 534 16 prologue_end   @ ../Basic/Source/gd32e23x_rcu.c:534:16
	ldr	r2, [r1]
	orrs	r2, r0
	str	r2, [r1]
	.loc	4 535 1                 @ ../Basic/Source/gd32e23x_rcu.c:535:1
	bx	lr
.Ltmp98:
	.p2align	2
@ %bb.1:
	.loc	4 0 1 is_stmt 0         @ ../Basic/Source/gd32e23x_rcu.c:0:1
__arm_cp.22_0:
	.long	1073877028              @ 0x40021024
.Lcpi_end27:
	.size	__arm_cp.22_0, .Lcpi_end27-__arm_cp.22_0
.Lfunc_end22:
	.size	rcu_all_reset_flag_clear, .Lfunc_end22-rcu_all_reset_flag_clear
	.cfi_endproc
	.cantunwind
	.fnend
                                        @ -- End function
	.section	.text.rcu_interrupt_flag_get,"ax",%progbits
	.hidden	rcu_interrupt_flag_get  @ -- Begin function rcu_interrupt_flag_get
	.globl	rcu_interrupt_flag_get
	.p2align	2
	.type	rcu_interrupt_flag_get,%function
	.code	16                      @ @rcu_interrupt_flag_get
	.thumb_func
rcu_interrupt_flag_get:
.Lfunc_begin23:
	.loc	4 552 0 is_stmt 1       @ ../Basic/Source/gd32e23x_rcu.c:552:0
	.fnstart
	.cfi_startproc
@ %bb.0:
	@DEBUG_VALUE: rcu_interrupt_flag_get:int_flag <- $r0
	@DEBUG_VALUE: rcu_interrupt_flag_get:int_flag <- $r0
	movs	r1, #31
.Ltmp99:
	.loc	4 553 42 prologue_end   @ ../Basic/Source/gd32e23x_rcu.c:553:42
	ands	r1, r0
	.loc	4 553 18 is_stmt 0      @ ../Basic/Source/gd32e23x_rcu.c:553:18
	lsrs	r0, r0, #6
.Ltmp100:
	.loc	4 0 18                  @ ../Basic/Source/gd32e23x_rcu.c:0:18
	ldr	r2, __arm_cp.23_0
	.loc	4 553 18                @ ../Basic/Source/gd32e23x_rcu.c:553:18
	ldr	r2, [r0, r2]
	.loc	4 553 14                @ ../Basic/Source/gd32e23x_rcu.c:553:14
	lsrs	r2, r1
	movs	r0, #1
	ands	r0, r2
.Ltmp101:
	.loc	4 558 1 is_stmt 1       @ ../Basic/Source/gd32e23x_rcu.c:558:1
	bx	lr
.Ltmp102:
	.p2align	2
@ %bb.1:
	.loc	4 0 1 is_stmt 0         @ ../Basic/Source/gd32e23x_rcu.c:0:1
__arm_cp.23_0:
	.long	1073876992              @ 0x40021000
.Lcpi_end28:
	.size	__arm_cp.23_0, .Lcpi_end28-__arm_cp.23_0
.Lfunc_end23:
	.size	rcu_interrupt_flag_get, .Lfunc_end23-rcu_interrupt_flag_get
	.cfi_endproc
	.cantunwind
	.fnend
                                        @ -- End function
	.section	.text.rcu_interrupt_flag_clear,"ax",%progbits
	.hidden	rcu_interrupt_flag_clear @ -- Begin function rcu_interrupt_flag_clear
	.globl	rcu_interrupt_flag_clear
	.p2align	2
	.type	rcu_interrupt_flag_clear,%function
	.code	16                      @ @rcu_interrupt_flag_clear
	.thumb_func
rcu_interrupt_flag_clear:
.Lfunc_begin24:
	.loc	4 575 0 is_stmt 1       @ ../Basic/Source/gd32e23x_rcu.c:575:0
	.fnstart
	.cfi_startproc
@ %bb.0:
	@DEBUG_VALUE: rcu_interrupt_flag_clear:int_flag_clear <- $r0
	@DEBUG_VALUE: rcu_interrupt_flag_clear:int_flag_clear <- $r0
	movs	r1, #31
.Ltmp103:
	.loc	4 576 36 prologue_end   @ ../Basic/Source/gd32e23x_rcu.c:576:36
	ands	r1, r0
	movs	r2, #1
	lsls	r2, r1
	.loc	4 576 5 is_stmt 0       @ ../Basic/Source/gd32e23x_rcu.c:576:5
	lsrs	r0, r0, #6
.Ltmp104:
	.loc	4 0 5                   @ ../Basic/Source/gd32e23x_rcu.c:0:5
	ldr	r1, __arm_cp.24_0
	.loc	4 576 33                @ ../Basic/Source/gd32e23x_rcu.c:576:33
	ldr	r3, [r0, r1]
	orrs	r3, r2
	str	r3, [r0, r1]
	.loc	4 577 1 is_stmt 1       @ ../Basic/Source/gd32e23x_rcu.c:577:1
	bx	lr
.Ltmp105:
	.p2align	2
@ %bb.1:
	.loc	4 0 1 is_stmt 0         @ ../Basic/Source/gd32e23x_rcu.c:0:1
__arm_cp.24_0:
	.long	1073876992              @ 0x40021000
.Lcpi_end29:
	.size	__arm_cp.24_0, .Lcpi_end29-__arm_cp.24_0
.Lfunc_end24:
	.size	rcu_interrupt_flag_clear, .Lfunc_end24-rcu_interrupt_flag_clear
	.cfi_endproc
	.cantunwind
	.fnend
                                        @ -- End function
	.section	.text.rcu_interrupt_enable,"ax",%progbits
	.hidden	rcu_interrupt_enable    @ -- Begin function rcu_interrupt_enable
	.globl	rcu_interrupt_enable
	.p2align	2
	.type	rcu_interrupt_enable,%function
	.code	16                      @ @rcu_interrupt_enable
	.thumb_func
rcu_interrupt_enable:
.Lfunc_begin25:
	.loc	4 593 0 is_stmt 1       @ ../Basic/Source/gd32e23x_rcu.c:593:0
	.fnstart
	.cfi_startproc
@ %bb.0:
	@DEBUG_VALUE: rcu_interrupt_enable:stab_int <- $r0
	@DEBUG_VALUE: rcu_interrupt_enable:stab_int <- $r0
	movs	r1, #31
.Ltmp106:
	.loc	4 594 30 prologue_end   @ ../Basic/Source/gd32e23x_rcu.c:594:30
	ands	r1, r0
	movs	r2, #1
	lsls	r2, r1
	.loc	4 594 5 is_stmt 0       @ ../Basic/Source/gd32e23x_rcu.c:594:5
	lsrs	r0, r0, #6
.Ltmp107:
	.loc	4 0 5                   @ ../Basic/Source/gd32e23x_rcu.c:0:5
	ldr	r1, __arm_cp.25_0
	.loc	4 594 27                @ ../Basic/Source/gd32e23x_rcu.c:594:27
	ldr	r3, [r0, r1]
	orrs	r3, r2
	str	r3, [r0, r1]
	.loc	4 595 1 is_stmt 1       @ ../Basic/Source/gd32e23x_rcu.c:595:1
	bx	lr
.Ltmp108:
	.p2align	2
@ %bb.1:
	.loc	4 0 1 is_stmt 0         @ ../Basic/Source/gd32e23x_rcu.c:0:1
__arm_cp.25_0:
	.long	1073876992              @ 0x40021000
.Lcpi_end30:
	.size	__arm_cp.25_0, .Lcpi_end30-__arm_cp.25_0
.Lfunc_end25:
	.size	rcu_interrupt_enable, .Lfunc_end25-rcu_interrupt_enable
	.cfi_endproc
	.cantunwind
	.fnend
                                        @ -- End function
	.section	.text.rcu_interrupt_disable,"ax",%progbits
	.hidden	rcu_interrupt_disable   @ -- Begin function rcu_interrupt_disable
	.globl	rcu_interrupt_disable
	.p2align	2
	.type	rcu_interrupt_disable,%function
	.code	16                      @ @rcu_interrupt_disable
	.thumb_func
rcu_interrupt_disable:
.Lfunc_begin26:
	.loc	4 612 0 is_stmt 1       @ ../Basic/Source/gd32e23x_rcu.c:612:0
	.fnstart
	.cfi_startproc
@ %bb.0:
	@DEBUG_VALUE: rcu_interrupt_disable:stab_int <- $r0
	@DEBUG_VALUE: rcu_interrupt_disable:stab_int <- $r0
	movs	r1, #31
.Ltmp109:
	.loc	4 613 31 prologue_end   @ ../Basic/Source/gd32e23x_rcu.c:613:31
	ands	r1, r0
	movs	r2, #1
	lsls	r2, r1
	.loc	4 613 5 is_stmt 0       @ ../Basic/Source/gd32e23x_rcu.c:613:5
	lsrs	r0, r0, #6
.Ltmp110:
	.loc	4 0 5                   @ ../Basic/Source/gd32e23x_rcu.c:0:5
	ldr	r1, __arm_cp.26_0
	.loc	4 613 27                @ ../Basic/Source/gd32e23x_rcu.c:613:27
	ldr	r3, [r0, r1]
	bics	r3, r2
	str	r3, [r0, r1]
	.loc	4 614 1 is_stmt 1       @ ../Basic/Source/gd32e23x_rcu.c:614:1
	bx	lr
.Ltmp111:
	.p2align	2
@ %bb.1:
	.loc	4 0 1 is_stmt 0         @ ../Basic/Source/gd32e23x_rcu.c:0:1
__arm_cp.26_0:
	.long	1073876992              @ 0x40021000
.Lcpi_end31:
	.size	__arm_cp.26_0, .Lcpi_end31-__arm_cp.26_0
.Lfunc_end26:
	.size	rcu_interrupt_disable, .Lfunc_end26-rcu_interrupt_disable
	.cfi_endproc
	.cantunwind
	.fnend
                                        @ -- End function
	.section	.text.rcu_osci_stab_wait,"ax",%progbits
	.hidden	rcu_osci_stab_wait      @ -- Begin function rcu_osci_stab_wait
	.globl	rcu_osci_stab_wait
	.p2align	2
	.type	rcu_osci_stab_wait,%function
	.code	16                      @ @rcu_osci_stab_wait
	.thumb_func
rcu_osci_stab_wait:
.Lfunc_begin27:
	.loc	4 630 0 is_stmt 1       @ ../Basic/Source/gd32e23x_rcu.c:630:0
	.fnstart
	.cfi_startproc
@ %bb.0:
	@DEBUG_VALUE: rcu_osci_stab_wait:osci <- $r0
	@DEBUG_VALUE: rcu_osci_stab_wait:osci <- $r0
	.save	{r4, lr}
	push	{r4, lr}
	.cfi_def_cfa_offset 8
	.cfi_offset lr, -4
	.cfi_offset r4, -8
.Ltmp112:
	@DEBUG_VALUE: rcu_osci_stab_wait:stb_cnt <- 0
	@DEBUG_VALUE: rcu_osci_stab_wait:reval <- 0
	@DEBUG_VALUE: rcu_osci_stab_wait:osci_stat <- 0
	.loc	4 634 5 prologue_end    @ ../Basic/Source/gd32e23x_rcu.c:634:5
	cbz	r0, .LBB27_9
.Ltmp113:
@ %bb.1:
	@DEBUG_VALUE: rcu_osci_stab_wait:osci_stat <- 0
	@DEBUG_VALUE: rcu_osci_stab_wait:reval <- 0
	@DEBUG_VALUE: rcu_osci_stab_wait:stb_cnt <- 0
	@DEBUG_VALUE: rcu_osci_stab_wait:osci <- $r0
	cmp	r0, #16
	beq	.LBB27_12
.Ltmp114:
@ %bb.2:
	@DEBUG_VALUE: rcu_osci_stab_wait:osci_stat <- 0
	@DEBUG_VALUE: rcu_osci_stab_wait:reval <- 0
	@DEBUG_VALUE: rcu_osci_stab_wait:stb_cnt <- 0
	@DEBUG_VALUE: rcu_osci_stab_wait:osci <- $r0
	.loc	4 0 5 is_stmt 0         @ ../Basic/Source/gd32e23x_rcu.c:0:5
	movw	r1, #3328
	.loc	4 634 5                 @ ../Basic/Source/gd32e23x_rcu.c:634:5
	cmp	r0, r1
	beq	.LBB27_15
.Ltmp115:
@ %bb.3:
	@DEBUG_VALUE: rcu_osci_stab_wait:osci_stat <- 0
	@DEBUG_VALUE: rcu_osci_stab_wait:reval <- 0
	@DEBUG_VALUE: rcu_osci_stab_wait:stb_cnt <- 0
	@DEBUG_VALUE: rcu_osci_stab_wait:osci <- $r0
	.loc	4 0 5                   @ ../Basic/Source/gd32e23x_rcu.c:0:5
	movw	r1, #2048
	.loc	4 634 5                 @ ../Basic/Source/gd32e23x_rcu.c:634:5
	cmp	r0, r1
	beq	.LBB27_18
.Ltmp116:
@ %bb.4:
	@DEBUG_VALUE: rcu_osci_stab_wait:osci_stat <- 0
	@DEBUG_VALUE: rcu_osci_stab_wait:reval <- 0
	@DEBUG_VALUE: rcu_osci_stab_wait:stb_cnt <- 0
	@DEBUG_VALUE: rcu_osci_stab_wait:osci <- $r0
	.loc	4 0 5                   @ ../Basic/Source/gd32e23x_rcu.c:0:5
	movw	r1, #2304
	.loc	4 634 5                 @ ../Basic/Source/gd32e23x_rcu.c:634:5
	cmp	r0, r1
	beq	.LBB27_21
.Ltmp117:
@ %bb.5:
	@DEBUG_VALUE: rcu_osci_stab_wait:osci_stat <- 0
	@DEBUG_VALUE: rcu_osci_stab_wait:reval <- 0
	@DEBUG_VALUE: rcu_osci_stab_wait:stb_cnt <- 0
	@DEBUG_VALUE: rcu_osci_stab_wait:osci <- $r0
	cmp	r0, #24
	bne	.LBB27_25
.Ltmp118:
@ %bb.6:
	@DEBUG_VALUE: rcu_osci_stab_wait:osci_stat <- 0
	@DEBUG_VALUE: rcu_osci_stab_wait:reval <- 0
	@DEBUG_VALUE: rcu_osci_stab_wait:stb_cnt <- 0
	@DEBUG_VALUE: rcu_osci_stab_wait:osci <- $r0
	.loc	4 0 5                   @ ../Basic/Source/gd32e23x_rcu.c:0:5
	movs	r2, #0
	ldr	r3, __arm_cp.27_0
	ldr	r1, __arm_cp.27_1
.Ltmp119:
.LBB27_7:                               @ =>This Inner Loop Header: Depth=1
	@DEBUG_VALUE: rcu_osci_stab_wait:reval <- 0
	@DEBUG_VALUE: rcu_osci_stab_wait:stb_cnt <- 0
	@DEBUG_VALUE: rcu_osci_stab_wait:stb_cnt <- undef
	@DEBUG_VALUE: rcu_osci_stab_wait:osci_stat <- $r2
	.loc	4 697 36 is_stmt 1      @ ../Basic/Source/gd32e23x_rcu.c:697:36
	subs	r4, r3, #1
.Ltmp120:
	@DEBUG_VALUE: rcu_flag_get:flag <- 25
	.loc	4 519 18                @ ../Basic/Source/gd32e23x_rcu.c:519:18
	ldr	r0, [r1]
	.loc	4 0 0 is_stmt 0         @ ../Basic/Source/gd32e23x_rcu.c:0:0
	lsls	r0, r0, #6
	lsrs	r0, r0, #31
.Ltmp121:
	@DEBUG_VALUE: rcu_osci_stab_wait:osci_stat <- $r0
	.loc	4 697 36 is_stmt 1      @ ../Basic/Source/gd32e23x_rcu.c:697:36
	cmp	r4, r3
.Ltmp122:
	@DEBUG_VALUE: rcu_osci_stab_wait:stb_cnt <- [DW_OP_plus_uconst 1, DW_OP_stack_value] undef
	.loc	4 697 9 is_stmt 0       @ ../Basic/Source/gd32e23x_rcu.c:697:9
	bhs	.LBB27_24
.Ltmp123:
@ %bb.8:                                @   in Loop: Header=BB27_7 Depth=1
	@DEBUG_VALUE: rcu_osci_stab_wait:osci_stat <- $r0
	@DEBUG_VALUE: rcu_osci_stab_wait:reval <- 0
	@DEBUG_VALUE: rcu_osci_stab_wait:stb_cnt <- 0
	cmp	r2, #0
.Ltmp124:
	.loc	4 0 0                   @ ../Basic/Source/gd32e23x_rcu.c:0:0
	mov	r3, r4
	mov	r2, r0
.Ltmp125:
	.loc	4 697 9                 @ ../Basic/Source/gd32e23x_rcu.c:697:9
	beq	.LBB27_7
	b	.LBB27_24
.Ltmp126:
.LBB27_9:
	@DEBUG_VALUE: rcu_osci_stab_wait:osci_stat <- 0
	@DEBUG_VALUE: rcu_osci_stab_wait:reval <- 0
	@DEBUG_VALUE: rcu_osci_stab_wait:stb_cnt <- 0
	@DEBUG_VALUE: rcu_osci_stab_wait:osci <- $r0
	.loc	4 0 9                   @ ../Basic/Source/gd32e23x_rcu.c:0:9
	movs	r2, #0
	movw	r3, #1280
	ldr	r1, __arm_cp.27_1
.Ltmp127:
.LBB27_10:                              @ =>This Inner Loop Header: Depth=1
	@DEBUG_VALUE: rcu_osci_stab_wait:reval <- 0
	@DEBUG_VALUE: rcu_osci_stab_wait:stb_cnt <- 0
	@DEBUG_VALUE: rcu_osci_stab_wait:stb_cnt <- undef
	@DEBUG_VALUE: rcu_osci_stab_wait:osci_stat <- $r2
	.loc	4 661 36 is_stmt 1      @ ../Basic/Source/gd32e23x_rcu.c:661:36
	subs	r4, r3, #1
.Ltmp128:
	@DEBUG_VALUE: rcu_flag_get:flag <- 1
	.loc	4 519 18                @ ../Basic/Source/gd32e23x_rcu.c:519:18
	ldr	r0, [r1]
	.loc	4 0 0 is_stmt 0         @ ../Basic/Source/gd32e23x_rcu.c:0:0
	lsls	r0, r0, #30
	lsrs	r0, r0, #31
.Ltmp129:
	@DEBUG_VALUE: rcu_osci_stab_wait:osci_stat <- $r0
	.loc	4 661 36 is_stmt 1      @ ../Basic/Source/gd32e23x_rcu.c:661:36
	cmp	r4, r3
.Ltmp130:
	@DEBUG_VALUE: rcu_osci_stab_wait:stb_cnt <- [DW_OP_plus_uconst 1, DW_OP_stack_value] undef
	.loc	4 661 9 is_stmt 0       @ ../Basic/Source/gd32e23x_rcu.c:661:9
	bhs	.LBB27_24
.Ltmp131:
@ %bb.11:                               @   in Loop: Header=BB27_10 Depth=1
	@DEBUG_VALUE: rcu_osci_stab_wait:osci_stat <- $r0
	@DEBUG_VALUE: rcu_osci_stab_wait:reval <- 0
	@DEBUG_VALUE: rcu_osci_stab_wait:stb_cnt <- 0
	cmp	r2, #0
.Ltmp132:
	.loc	4 0 0                   @ ../Basic/Source/gd32e23x_rcu.c:0:0
	mov	r3, r4
	mov	r2, r0
.Ltmp133:
	.loc	4 661 9                 @ ../Basic/Source/gd32e23x_rcu.c:661:9
	beq	.LBB27_10
	b	.LBB27_24
.Ltmp134:
.LBB27_12:
	@DEBUG_VALUE: rcu_osci_stab_wait:osci_stat <- 0
	@DEBUG_VALUE: rcu_osci_stab_wait:reval <- 0
	@DEBUG_VALUE: rcu_osci_stab_wait:stb_cnt <- 0
	@DEBUG_VALUE: rcu_osci_stab_wait:osci <- $r0
	.loc	4 0 9                   @ ../Basic/Source/gd32e23x_rcu.c:0:9
	movs	r2, #0
	ldr	r3, __arm_cp.27_3
	ldr	r1, __arm_cp.27_1
.Ltmp135:
.LBB27_13:                              @ =>This Inner Loop Header: Depth=1
	@DEBUG_VALUE: rcu_osci_stab_wait:reval <- 0
	@DEBUG_VALUE: rcu_osci_stab_wait:stb_cnt <- 0
	@DEBUG_VALUE: rcu_osci_stab_wait:stb_cnt <- undef
	@DEBUG_VALUE: rcu_osci_stab_wait:osci_stat <- $r2
	.loc	4 637 36 is_stmt 1      @ ../Basic/Source/gd32e23x_rcu.c:637:36
	subs	r4, r3, #1
.Ltmp136:
	@DEBUG_VALUE: rcu_flag_get:flag <- 17
	.loc	4 519 18                @ ../Basic/Source/gd32e23x_rcu.c:519:18
	ldr	r0, [r1]
	.loc	4 0 0 is_stmt 0         @ ../Basic/Source/gd32e23x_rcu.c:0:0
	lsls	r0, r0, #14
	lsrs	r0, r0, #31
.Ltmp137:
	@DEBUG_VALUE: rcu_osci_stab_wait:osci_stat <- $r0
	.loc	4 637 36 is_stmt 1      @ ../Basic/Source/gd32e23x_rcu.c:637:36
	cmp	r4, r3
.Ltmp138:
	@DEBUG_VALUE: rcu_osci_stab_wait:stb_cnt <- [DW_OP_plus_uconst 1, DW_OP_stack_value] undef
	.loc	4 637 9 is_stmt 0       @ ../Basic/Source/gd32e23x_rcu.c:637:9
	bhs	.LBB27_24
.Ltmp139:
@ %bb.14:                               @   in Loop: Header=BB27_13 Depth=1
	@DEBUG_VALUE: rcu_osci_stab_wait:osci_stat <- $r0
	@DEBUG_VALUE: rcu_osci_stab_wait:reval <- 0
	@DEBUG_VALUE: rcu_osci_stab_wait:stb_cnt <- 0
	cmp	r2, #0
.Ltmp140:
	.loc	4 0 0                   @ ../Basic/Source/gd32e23x_rcu.c:0:0
	mov	r3, r4
	mov	r2, r0
.Ltmp141:
	.loc	4 637 9                 @ ../Basic/Source/gd32e23x_rcu.c:637:9
	beq	.LBB27_13
	b	.LBB27_24
.Ltmp142:
.LBB27_15:
	@DEBUG_VALUE: rcu_osci_stab_wait:osci_stat <- 0
	@DEBUG_VALUE: rcu_osci_stab_wait:reval <- 0
	@DEBUG_VALUE: rcu_osci_stab_wait:stb_cnt <- 0
	@DEBUG_VALUE: rcu_osci_stab_wait:osci <- $r0
	.loc	4 0 9                   @ ../Basic/Source/gd32e23x_rcu.c:0:9
	movs	r2, #0
	ldr	r3, __arm_cp.27_0
	ldr	r1, __arm_cp.27_1
.Ltmp143:
.LBB27_16:                              @ =>This Inner Loop Header: Depth=1
	@DEBUG_VALUE: rcu_osci_stab_wait:reval <- 0
	@DEBUG_VALUE: rcu_osci_stab_wait:stb_cnt <- 0
	@DEBUG_VALUE: rcu_osci_stab_wait:stb_cnt <- undef
	@DEBUG_VALUE: rcu_osci_stab_wait:osci_stat <- $r2
	.loc	4 673 36 is_stmt 1      @ ../Basic/Source/gd32e23x_rcu.c:673:36
	subs	r4, r3, #1
.Ltmp144:
	@DEBUG_VALUE: rcu_flag_get:flag <- 3329
	.loc	4 519 18                @ ../Basic/Source/gd32e23x_rcu.c:519:18
	ldr	r0, [r1, #52]
	.loc	4 0 0 is_stmt 0         @ ../Basic/Source/gd32e23x_rcu.c:0:0
	lsls	r0, r0, #30
	lsrs	r0, r0, #31
.Ltmp145:
	@DEBUG_VALUE: rcu_osci_stab_wait:osci_stat <- $r0
	.loc	4 673 36 is_stmt 1      @ ../Basic/Source/gd32e23x_rcu.c:673:36
	cmp	r4, r3
.Ltmp146:
	@DEBUG_VALUE: rcu_osci_stab_wait:stb_cnt <- [DW_OP_plus_uconst 1, DW_OP_stack_value] undef
	.loc	4 673 9 is_stmt 0       @ ../Basic/Source/gd32e23x_rcu.c:673:9
	bhs	.LBB27_24
.Ltmp147:
@ %bb.17:                               @   in Loop: Header=BB27_16 Depth=1
	@DEBUG_VALUE: rcu_osci_stab_wait:osci_stat <- $r0
	@DEBUG_VALUE: rcu_osci_stab_wait:reval <- 0
	@DEBUG_VALUE: rcu_osci_stab_wait:stb_cnt <- 0
	cmp	r2, #0
.Ltmp148:
	.loc	4 0 0                   @ ../Basic/Source/gd32e23x_rcu.c:0:0
	mov	r3, r4
	mov	r2, r0
.Ltmp149:
	.loc	4 673 9                 @ ../Basic/Source/gd32e23x_rcu.c:673:9
	beq	.LBB27_16
	b	.LBB27_24
.Ltmp150:
.LBB27_18:
	@DEBUG_VALUE: rcu_osci_stab_wait:osci_stat <- 0
	@DEBUG_VALUE: rcu_osci_stab_wait:reval <- 0
	@DEBUG_VALUE: rcu_osci_stab_wait:stb_cnt <- 0
	@DEBUG_VALUE: rcu_osci_stab_wait:osci <- $r0
	.loc	4 0 9                   @ ../Basic/Source/gd32e23x_rcu.c:0:9
	movs	r2, #0
	ldr	r3, __arm_cp.27_2
	ldr	r1, __arm_cp.27_1
.Ltmp151:
.LBB27_19:                              @ =>This Inner Loop Header: Depth=1
	@DEBUG_VALUE: rcu_osci_stab_wait:reval <- 0
	@DEBUG_VALUE: rcu_osci_stab_wait:stb_cnt <- 0
	@DEBUG_VALUE: rcu_osci_stab_wait:stb_cnt <- undef
	@DEBUG_VALUE: rcu_osci_stab_wait:osci_stat <- $r2
	.loc	4 649 36 is_stmt 1      @ ../Basic/Source/gd32e23x_rcu.c:649:36
	subs	r4, r3, #1
.Ltmp152:
	@DEBUG_VALUE: rcu_flag_get:flag <- 2049
	.loc	4 519 18                @ ../Basic/Source/gd32e23x_rcu.c:519:18
	ldr	r0, [r1, #32]
	.loc	4 0 0 is_stmt 0         @ ../Basic/Source/gd32e23x_rcu.c:0:0
	lsls	r0, r0, #30
	lsrs	r0, r0, #31
.Ltmp153:
	@DEBUG_VALUE: rcu_osci_stab_wait:osci_stat <- $r0
	.loc	4 649 36 is_stmt 1      @ ../Basic/Source/gd32e23x_rcu.c:649:36
	cmp	r4, r3
.Ltmp154:
	@DEBUG_VALUE: rcu_osci_stab_wait:stb_cnt <- [DW_OP_plus_uconst 1, DW_OP_stack_value] undef
	.loc	4 649 9 is_stmt 0       @ ../Basic/Source/gd32e23x_rcu.c:649:9
	bhs	.LBB27_24
.Ltmp155:
@ %bb.20:                               @   in Loop: Header=BB27_19 Depth=1
	@DEBUG_VALUE: rcu_osci_stab_wait:osci_stat <- $r0
	@DEBUG_VALUE: rcu_osci_stab_wait:reval <- 0
	@DEBUG_VALUE: rcu_osci_stab_wait:stb_cnt <- 0
	cmp	r2, #0
.Ltmp156:
	.loc	4 0 0                   @ ../Basic/Source/gd32e23x_rcu.c:0:0
	mov	r3, r4
	mov	r2, r0
.Ltmp157:
	.loc	4 649 9                 @ ../Basic/Source/gd32e23x_rcu.c:649:9
	beq	.LBB27_19
	b	.LBB27_24
.Ltmp158:
.LBB27_21:
	@DEBUG_VALUE: rcu_osci_stab_wait:osci_stat <- 0
	@DEBUG_VALUE: rcu_osci_stab_wait:reval <- 0
	@DEBUG_VALUE: rcu_osci_stab_wait:stb_cnt <- 0
	@DEBUG_VALUE: rcu_osci_stab_wait:osci <- $r0
	.loc	4 0 9                   @ ../Basic/Source/gd32e23x_rcu.c:0:9
	movs	r2, #0
	ldr	r3, __arm_cp.27_0
	ldr	r1, __arm_cp.27_1
.Ltmp159:
.LBB27_22:                              @ =>This Inner Loop Header: Depth=1
	@DEBUG_VALUE: rcu_osci_stab_wait:reval <- 0
	@DEBUG_VALUE: rcu_osci_stab_wait:stb_cnt <- 0
	@DEBUG_VALUE: rcu_osci_stab_wait:stb_cnt <- undef
	@DEBUG_VALUE: rcu_osci_stab_wait:osci_stat <- $r2
	.loc	4 685 36 is_stmt 1      @ ../Basic/Source/gd32e23x_rcu.c:685:36
	subs	r4, r3, #1
.Ltmp160:
	@DEBUG_VALUE: rcu_flag_get:flag <- 2305
	.loc	4 519 18                @ ../Basic/Source/gd32e23x_rcu.c:519:18
	ldr	r0, [r1, #36]
	.loc	4 0 0 is_stmt 0         @ ../Basic/Source/gd32e23x_rcu.c:0:0
	lsls	r0, r0, #30
	lsrs	r0, r0, #31
.Ltmp161:
	@DEBUG_VALUE: rcu_osci_stab_wait:osci_stat <- $r0
	.loc	4 685 36 is_stmt 1      @ ../Basic/Source/gd32e23x_rcu.c:685:36
	cmp	r4, r3
.Ltmp162:
	@DEBUG_VALUE: rcu_osci_stab_wait:stb_cnt <- [DW_OP_plus_uconst 1, DW_OP_stack_value] undef
	.loc	4 685 9 is_stmt 0       @ ../Basic/Source/gd32e23x_rcu.c:685:9
	bhs	.LBB27_24
.Ltmp163:
@ %bb.23:                               @   in Loop: Header=BB27_22 Depth=1
	@DEBUG_VALUE: rcu_osci_stab_wait:osci_stat <- $r0
	@DEBUG_VALUE: rcu_osci_stab_wait:reval <- 0
	@DEBUG_VALUE: rcu_osci_stab_wait:stb_cnt <- 0
	cmp	r2, #0
.Ltmp164:
	.loc	4 0 0                   @ ../Basic/Source/gd32e23x_rcu.c:0:0
	mov	r3, r4
	mov	r2, r0
.Ltmp165:
	.loc	4 685 9                 @ ../Basic/Source/gd32e23x_rcu.c:685:9
	beq	.LBB27_22
.Ltmp166:
.LBB27_24:
	@DEBUG_VALUE: rcu_osci_stab_wait:osci_stat <- $r0
	@DEBUG_VALUE: rcu_osci_stab_wait:reval <- 0
	@DEBUG_VALUE: rcu_osci_stab_wait:stb_cnt <- 0
	.loc	4 702 12 is_stmt 1      @ ../Basic/Source/gd32e23x_rcu.c:702:12
	pop	{r4, pc}
.Ltmp167:
.LBB27_25:
	@DEBUG_VALUE: rcu_osci_stab_wait:osci_stat <- 0
	@DEBUG_VALUE: rcu_osci_stab_wait:reval <- 0
	@DEBUG_VALUE: rcu_osci_stab_wait:stb_cnt <- 0
	@DEBUG_VALUE: rcu_osci_stab_wait:osci <- $r0
	.loc	4 0 12 is_stmt 0        @ ../Basic/Source/gd32e23x_rcu.c:0:12
	movs	r0, #0
.Ltmp168:
	.loc	4 702 12                @ ../Basic/Source/gd32e23x_rcu.c:702:12
	pop	{r4, pc}
.Ltmp169:
	.p2align	2
@ %bb.26:
	.loc	4 0 12                  @ ../Basic/Source/gd32e23x_rcu.c:0:12
__arm_cp.27_0:
	.long	1048575                 @ 0xfffff
.Lcpi_end32:
	.size	__arm_cp.27_0, .Lcpi_end32-__arm_cp.27_0
__arm_cp.27_1:
	.long	1073876992              @ 0x40021000
.Lcpi_end33:
	.size	__arm_cp.27_1, .Lcpi_end33-__arm_cp.27_1
__arm_cp.27_2:
	.long	67108863                @ 0x3ffffff
.Lcpi_end34:
	.size	__arm_cp.27_2, .Lcpi_end34-__arm_cp.27_2
__arm_cp.27_3:
	.long	65535                   @ 0xffff
.Lcpi_end35:
	.size	__arm_cp.27_3, .Lcpi_end35-__arm_cp.27_3
.Lfunc_end27:
	.size	rcu_osci_stab_wait, .Lfunc_end27-rcu_osci_stab_wait
	.cfi_endproc
	.cantunwind
	.fnend
                                        @ -- End function
	.section	.text.rcu_osci_on,"ax",%progbits
	.hidden	rcu_osci_on             @ -- Begin function rcu_osci_on
	.globl	rcu_osci_on
	.p2align	2
	.type	rcu_osci_on,%function
	.code	16                      @ @rcu_osci_on
	.thumb_func
rcu_osci_on:
.Lfunc_begin28:
	.loc	4 728 0 is_stmt 1       @ ../Basic/Source/gd32e23x_rcu.c:728:0
	.fnstart
	.cfi_startproc
@ %bb.0:
	@DEBUG_VALUE: rcu_osci_on:osci <- $r0
	@DEBUG_VALUE: rcu_osci_on:osci <- $r0
	movs	r1, #31
.Ltmp170:
	.loc	4 729 26 prologue_end   @ ../Basic/Source/gd32e23x_rcu.c:729:26
	ands	r1, r0
	movs	r2, #1
	lsls	r2, r1
	.loc	4 729 5 is_stmt 0       @ ../Basic/Source/gd32e23x_rcu.c:729:5
	lsrs	r0, r0, #6
.Ltmp171:
	.loc	4 0 5                   @ ../Basic/Source/gd32e23x_rcu.c:0:5
	ldr	r1, __arm_cp.28_0
	.loc	4 729 23                @ ../Basic/Source/gd32e23x_rcu.c:729:23
	ldr	r3, [r0, r1]
	orrs	r3, r2
	str	r3, [r0, r1]
	.loc	4 730 1 is_stmt 1       @ ../Basic/Source/gd32e23x_rcu.c:730:1
	bx	lr
.Ltmp172:
	.p2align	2
@ %bb.1:
	.loc	4 0 1 is_stmt 0         @ ../Basic/Source/gd32e23x_rcu.c:0:1
__arm_cp.28_0:
	.long	1073876992              @ 0x40021000
.Lcpi_end36:
	.size	__arm_cp.28_0, .Lcpi_end36-__arm_cp.28_0
.Lfunc_end28:
	.size	rcu_osci_on, .Lfunc_end28-rcu_osci_on
	.cfi_endproc
	.cantunwind
	.fnend
                                        @ -- End function
	.section	.text.rcu_osci_off,"ax",%progbits
	.hidden	rcu_osci_off            @ -- Begin function rcu_osci_off
	.globl	rcu_osci_off
	.p2align	2
	.type	rcu_osci_off,%function
	.code	16                      @ @rcu_osci_off
	.thumb_func
rcu_osci_off:
.Lfunc_begin29:
	.loc	4 746 0 is_stmt 1       @ ../Basic/Source/gd32e23x_rcu.c:746:0
	.fnstart
	.cfi_startproc
@ %bb.0:
	@DEBUG_VALUE: rcu_osci_off:osci <- $r0
	@DEBUG_VALUE: rcu_osci_off:osci <- $r0
	movs	r1, #31
.Ltmp173:
	.loc	4 747 27 prologue_end   @ ../Basic/Source/gd32e23x_rcu.c:747:27
	ands	r1, r0
	movs	r2, #1
	lsls	r2, r1
	.loc	4 747 5 is_stmt 0       @ ../Basic/Source/gd32e23x_rcu.c:747:5
	lsrs	r0, r0, #6
.Ltmp174:
	.loc	4 0 5                   @ ../Basic/Source/gd32e23x_rcu.c:0:5
	ldr	r1, __arm_cp.29_0
	.loc	4 747 23                @ ../Basic/Source/gd32e23x_rcu.c:747:23
	ldr	r3, [r0, r1]
	bics	r3, r2
	str	r3, [r0, r1]
	.loc	4 748 1 is_stmt 1       @ ../Basic/Source/gd32e23x_rcu.c:748:1
	bx	lr
.Ltmp175:
	.p2align	2
@ %bb.1:
	.loc	4 0 1 is_stmt 0         @ ../Basic/Source/gd32e23x_rcu.c:0:1
__arm_cp.29_0:
	.long	1073876992              @ 0x40021000
.Lcpi_end37:
	.size	__arm_cp.29_0, .Lcpi_end37-__arm_cp.29_0
.Lfunc_end29:
	.size	rcu_osci_off, .Lfunc_end29-rcu_osci_off
	.cfi_endproc
	.cantunwind
	.fnend
                                        @ -- End function
	.section	.text.rcu_osci_bypass_mode_enable,"ax",%progbits
	.hidden	rcu_osci_bypass_mode_enable @ -- Begin function rcu_osci_bypass_mode_enable
	.globl	rcu_osci_bypass_mode_enable
	.p2align	2
	.type	rcu_osci_bypass_mode_enable,%function
	.code	16                      @ @rcu_osci_bypass_mode_enable
	.thumb_func
rcu_osci_bypass_mode_enable:
.Lfunc_begin30:
	.loc	4 760 0 is_stmt 1       @ ../Basic/Source/gd32e23x_rcu.c:760:0
	.fnstart
	.cfi_startproc
@ %bb.0:
	@DEBUG_VALUE: rcu_osci_bypass_mode_enable:osci <- $r0
	@DEBUG_VALUE: rcu_osci_bypass_mode_enable:osci <- $r0
	.save	{r4, lr}
	push	{r4, lr}
	.cfi_def_cfa_offset 8
	.cfi_offset lr, -4
	.cfi_offset r4, -8
	movw	r1, #2048
.Ltmp176:
	.loc	4 762 5 prologue_end    @ ../Basic/Source/gd32e23x_rcu.c:762:5
	cmp	r0, r1
	beq	.LBB30_3
.Ltmp177:
@ %bb.1:
	@DEBUG_VALUE: rcu_osci_bypass_mode_enable:osci <- $r0
	cmp	r0, #16
	bne	.LBB30_4
.Ltmp178:
@ %bb.2:
	@DEBUG_VALUE: rcu_osci_bypass_mode_enable:osci <- $r0
	.loc	4 0 5 is_stmt 0         @ ../Basic/Source/gd32e23x_rcu.c:0:5
	ldr	r0, __arm_cp.30_0
.Ltmp179:
	.loc	4 765 15 is_stmt 1      @ ../Basic/Source/gd32e23x_rcu.c:765:15
	ldr	r1, [r0]
.Ltmp180:
	@DEBUG_VALUE: rcu_osci_bypass_mode_enable:reg <- $r1
	.loc	4 0 15 is_stmt 0        @ ../Basic/Source/gd32e23x_rcu.c:0:15
	movs	r2, #1
	lsls	r3, r2, #16
	.loc	4 766 18 is_stmt 1      @ ../Basic/Source/gd32e23x_rcu.c:766:18
	ldr	r4, [r0]
	bics	r4, r3
	str	r4, [r0]
	lsls	r2, r2, #18
	.loc	4 767 25                @ ../Basic/Source/gd32e23x_rcu.c:767:25
	orrs	r2, r1
	.loc	4 767 18 is_stmt 0      @ ../Basic/Source/gd32e23x_rcu.c:767:18
	str	r2, [r0]
.Ltmp181:
	.loc	4 783 1 is_stmt 1       @ ../Basic/Source/gd32e23x_rcu.c:783:1
	pop	{r4, pc}
.Ltmp182:
.LBB30_3:
	@DEBUG_VALUE: rcu_osci_bypass_mode_enable:osci <- $r0
	.loc	4 0 1 is_stmt 0         @ ../Basic/Source/gd32e23x_rcu.c:0:1
	ldr	r0, __arm_cp.30_0
.Ltmp183:
	.loc	4 771 15 is_stmt 1      @ ../Basic/Source/gd32e23x_rcu.c:771:15
	ldr	r1, [r0, #32]
.Ltmp184:
	@DEBUG_VALUE: rcu_osci_bypass_mode_enable:reg <- $r1
	.loc	4 772 19                @ ../Basic/Source/gd32e23x_rcu.c:772:19
	ldr	r2, [r0, #32]
	movs	r3, #1
	bics	r2, r3
	str	r2, [r0, #32]
	movs	r2, #4
	.loc	4 773 26                @ ../Basic/Source/gd32e23x_rcu.c:773:26
	orrs	r2, r1
	.loc	4 773 19 is_stmt 0      @ ../Basic/Source/gd32e23x_rcu.c:773:19
	str	r2, [r0, #32]
.Ltmp185:
.LBB30_4:
	.loc	4 783 1 is_stmt 1       @ ../Basic/Source/gd32e23x_rcu.c:783:1
	pop	{r4, pc}
.Ltmp186:
	.p2align	2
@ %bb.5:
	.loc	4 0 1 is_stmt 0         @ ../Basic/Source/gd32e23x_rcu.c:0:1
__arm_cp.30_0:
	.long	1073876992              @ 0x40021000
.Lcpi_end38:
	.size	__arm_cp.30_0, .Lcpi_end38-__arm_cp.30_0
.Lfunc_end30:
	.size	rcu_osci_bypass_mode_enable, .Lfunc_end30-rcu_osci_bypass_mode_enable
	.cfi_endproc
	.cantunwind
	.fnend
                                        @ -- End function
	.section	.text.rcu_osci_bypass_mode_disable,"ax",%progbits
	.hidden	rcu_osci_bypass_mode_disable @ -- Begin function rcu_osci_bypass_mode_disable
	.globl	rcu_osci_bypass_mode_disable
	.p2align	2
	.type	rcu_osci_bypass_mode_disable,%function
	.code	16                      @ @rcu_osci_bypass_mode_disable
	.thumb_func
rcu_osci_bypass_mode_disable:
.Lfunc_begin31:
	.loc	4 795 0 is_stmt 1       @ ../Basic/Source/gd32e23x_rcu.c:795:0
	.fnstart
	.cfi_startproc
@ %bb.0:
	@DEBUG_VALUE: rcu_osci_bypass_mode_disable:osci <- $r0
	@DEBUG_VALUE: rcu_osci_bypass_mode_disable:osci <- $r0
	.save	{r4, lr}
	push	{r4, lr}
	.cfi_def_cfa_offset 8
	.cfi_offset lr, -4
	.cfi_offset r4, -8
	movw	r1, #2048
.Ltmp187:
	.loc	4 797 5 prologue_end    @ ../Basic/Source/gd32e23x_rcu.c:797:5
	cmp	r0, r1
	beq	.LBB31_3
.Ltmp188:
@ %bb.1:
	@DEBUG_VALUE: rcu_osci_bypass_mode_disable:osci <- $r0
	cmp	r0, #16
	bne	.LBB31_4
.Ltmp189:
@ %bb.2:
	@DEBUG_VALUE: rcu_osci_bypass_mode_disable:osci <- $r0
	.loc	4 0 5 is_stmt 0         @ ../Basic/Source/gd32e23x_rcu.c:0:5
	ldr	r0, __arm_cp.31_0
.Ltmp190:
	.loc	4 800 15 is_stmt 1      @ ../Basic/Source/gd32e23x_rcu.c:800:15
	ldr	r1, [r0]
.Ltmp191:
	@DEBUG_VALUE: rcu_osci_bypass_mode_disable:reg <- $r1
	.loc	4 0 15 is_stmt 0        @ ../Basic/Source/gd32e23x_rcu.c:0:15
	movs	r2, #1
	lsls	r3, r2, #16
	.loc	4 801 18 is_stmt 1      @ ../Basic/Source/gd32e23x_rcu.c:801:18
	ldr	r4, [r0]
	bics	r4, r3
	str	r4, [r0]
	lsls	r2, r2, #18
	.loc	4 802 25                @ ../Basic/Source/gd32e23x_rcu.c:802:25
	bics	r1, r2
.Ltmp192:
	.loc	4 802 18 is_stmt 0      @ ../Basic/Source/gd32e23x_rcu.c:802:18
	str	r1, [r0]
.Ltmp193:
	.loc	4 818 1 is_stmt 1       @ ../Basic/Source/gd32e23x_rcu.c:818:1
	pop	{r4, pc}
.LBB31_3:
.Ltmp194:
	@DEBUG_VALUE: rcu_osci_bypass_mode_disable:osci <- $r0
	.loc	4 0 1 is_stmt 0         @ ../Basic/Source/gd32e23x_rcu.c:0:1
	ldr	r0, __arm_cp.31_0
.Ltmp195:
	.loc	4 806 15 is_stmt 1      @ ../Basic/Source/gd32e23x_rcu.c:806:15
	ldr	r1, [r0, #32]
.Ltmp196:
	@DEBUG_VALUE: rcu_osci_bypass_mode_disable:reg <- $r1
	.loc	4 807 19                @ ../Basic/Source/gd32e23x_rcu.c:807:19
	ldr	r2, [r0, #32]
	movs	r3, #1
	bics	r2, r3
	str	r2, [r0, #32]
	movs	r2, #4
	.loc	4 808 26                @ ../Basic/Source/gd32e23x_rcu.c:808:26
	bics	r1, r2
.Ltmp197:
	.loc	4 808 19 is_stmt 0      @ ../Basic/Source/gd32e23x_rcu.c:808:19
	str	r1, [r0, #32]
.Ltmp198:
.LBB31_4:
	.loc	4 818 1 is_stmt 1       @ ../Basic/Source/gd32e23x_rcu.c:818:1
	pop	{r4, pc}
.Ltmp199:
	.p2align	2
@ %bb.5:
	.loc	4 0 1 is_stmt 0         @ ../Basic/Source/gd32e23x_rcu.c:0:1
__arm_cp.31_0:
	.long	1073876992              @ 0x40021000
.Lcpi_end39:
	.size	__arm_cp.31_0, .Lcpi_end39-__arm_cp.31_0
.Lfunc_end31:
	.size	rcu_osci_bypass_mode_disable, .Lfunc_end31-rcu_osci_bypass_mode_disable
	.cfi_endproc
	.cantunwind
	.fnend
                                        @ -- End function
	.section	.text.rcu_hxtal_clock_monitor_enable,"ax",%progbits
	.hidden	rcu_hxtal_clock_monitor_enable @ -- Begin function rcu_hxtal_clock_monitor_enable
	.globl	rcu_hxtal_clock_monitor_enable
	.p2align	2
	.type	rcu_hxtal_clock_monitor_enable,%function
	.code	16                      @ @rcu_hxtal_clock_monitor_enable
	.thumb_func
rcu_hxtal_clock_monitor_enable:
.Lfunc_begin32:
	.loc	4 827 0 is_stmt 1       @ ../Basic/Source/gd32e23x_rcu.c:827:0
	.fnstart
	.cfi_startproc
@ %bb.0:
	movs	r0, #1
	lsls	r0, r0, #19
	ldr	r1, __arm_cp.32_0
.Ltmp200:
	.loc	4 828 14 prologue_end   @ ../Basic/Source/gd32e23x_rcu.c:828:14
	ldr	r2, [r1]
	orrs	r2, r0
	str	r2, [r1]
	.loc	4 829 1                 @ ../Basic/Source/gd32e23x_rcu.c:829:1
	bx	lr
.Ltmp201:
	.p2align	2
@ %bb.1:
	.loc	4 0 1 is_stmt 0         @ ../Basic/Source/gd32e23x_rcu.c:0:1
__arm_cp.32_0:
	.long	1073876992              @ 0x40021000
.Lcpi_end40:
	.size	__arm_cp.32_0, .Lcpi_end40-__arm_cp.32_0
.Lfunc_end32:
	.size	rcu_hxtal_clock_monitor_enable, .Lfunc_end32-rcu_hxtal_clock_monitor_enable
	.cfi_endproc
	.cantunwind
	.fnend
                                        @ -- End function
	.section	.text.rcu_hxtal_clock_monitor_disable,"ax",%progbits
	.hidden	rcu_hxtal_clock_monitor_disable @ -- Begin function rcu_hxtal_clock_monitor_disable
	.globl	rcu_hxtal_clock_monitor_disable
	.p2align	2
	.type	rcu_hxtal_clock_monitor_disable,%function
	.code	16                      @ @rcu_hxtal_clock_monitor_disable
	.thumb_func
rcu_hxtal_clock_monitor_disable:
.Lfunc_begin33:
	.loc	4 838 0 is_stmt 1       @ ../Basic/Source/gd32e23x_rcu.c:838:0
	.fnstart
	.cfi_startproc
@ %bb.0:
	movs	r0, #1
	lsls	r0, r0, #19
	ldr	r1, __arm_cp.33_0
.Ltmp202:
	.loc	4 839 14 prologue_end   @ ../Basic/Source/gd32e23x_rcu.c:839:14
	ldr	r2, [r1]
	bics	r2, r0
	str	r2, [r1]
	.loc	4 840 1                 @ ../Basic/Source/gd32e23x_rcu.c:840:1
	bx	lr
.Ltmp203:
	.p2align	2
@ %bb.1:
	.loc	4 0 1 is_stmt 0         @ ../Basic/Source/gd32e23x_rcu.c:0:1
__arm_cp.33_0:
	.long	1073876992              @ 0x40021000
.Lcpi_end41:
	.size	__arm_cp.33_0, .Lcpi_end41-__arm_cp.33_0
.Lfunc_end33:
	.size	rcu_hxtal_clock_monitor_disable, .Lfunc_end33-rcu_hxtal_clock_monitor_disable
	.cfi_endproc
	.cantunwind
	.fnend
                                        @ -- End function
	.section	.text.rcu_irc8m_adjust_value_set,"ax",%progbits
	.hidden	rcu_irc8m_adjust_value_set @ -- Begin function rcu_irc8m_adjust_value_set
	.globl	rcu_irc8m_adjust_value_set
	.p2align	2
	.type	rcu_irc8m_adjust_value_set,%function
	.code	16                      @ @rcu_irc8m_adjust_value_set
	.thumb_func
rcu_irc8m_adjust_value_set:
.Lfunc_begin34:
	.loc	4 849 0 is_stmt 1       @ ../Basic/Source/gd32e23x_rcu.c:849:0
	.fnstart
	.cfi_startproc
@ %bb.0:
	@DEBUG_VALUE: rcu_irc8m_adjust_value_set:irc8m_adjval <- $r0
	@DEBUG_VALUE: rcu_irc8m_adjust_value_set:irc8m_adjval <- $r0
	@DEBUG_VALUE: rcu_irc8m_adjust_value_set:adjust <- 0
	ldr	r1, __arm_cp.34_0
.Ltmp204:
	.loc	4 851 14 prologue_end   @ ../Basic/Source/gd32e23x_rcu.c:851:14
	ldr	r2, [r1]
.Ltmp205:
	@DEBUG_VALUE: rcu_irc8m_adjust_value_set:adjust <- $r2
	.loc	4 0 14 is_stmt 0        @ ../Basic/Source/gd32e23x_rcu.c:0:14
	movs	r3, #248
	.loc	4 853 12 is_stmt 1      @ ../Basic/Source/gd32e23x_rcu.c:853:12
	bics	r2, r3
.Ltmp206:
	@DEBUG_VALUE: rcu_irc8m_adjust_value_set:adjust <- $r2
	.loc	4 854 51                @ ../Basic/Source/gd32e23x_rcu.c:854:51
	lsls	r0, r0, #3
.Ltmp207:
	.loc	4 854 24 is_stmt 0      @ ../Basic/Source/gd32e23x_rcu.c:854:24
	orrs	r0, r2
	.loc	4 854 14                @ ../Basic/Source/gd32e23x_rcu.c:854:14
	str	r0, [r1]
	.loc	4 855 1 is_stmt 1       @ ../Basic/Source/gd32e23x_rcu.c:855:1
	bx	lr
.Ltmp208:
	.p2align	2
@ %bb.1:
	.loc	4 0 1 is_stmt 0         @ ../Basic/Source/gd32e23x_rcu.c:0:1
__arm_cp.34_0:
	.long	1073876992              @ 0x40021000
.Lcpi_end42:
	.size	__arm_cp.34_0, .Lcpi_end42-__arm_cp.34_0
.Lfunc_end34:
	.size	rcu_irc8m_adjust_value_set, .Lfunc_end34-rcu_irc8m_adjust_value_set
	.cfi_endproc
	.cantunwind
	.fnend
                                        @ -- End function
	.section	.text.rcu_irc28m_adjust_value_set,"ax",%progbits
	.hidden	rcu_irc28m_adjust_value_set @ -- Begin function rcu_irc28m_adjust_value_set
	.globl	rcu_irc28m_adjust_value_set
	.p2align	2
	.type	rcu_irc28m_adjust_value_set,%function
	.code	16                      @ @rcu_irc28m_adjust_value_set
	.thumb_func
rcu_irc28m_adjust_value_set:
.Lfunc_begin35:
	.loc	4 864 0 is_stmt 1       @ ../Basic/Source/gd32e23x_rcu.c:864:0
	.fnstart
	.cfi_startproc
@ %bb.0:
	@DEBUG_VALUE: rcu_irc28m_adjust_value_set:irc28m_adjval <- $r0
	@DEBUG_VALUE: rcu_irc28m_adjust_value_set:irc28m_adjval <- $r0
	@DEBUG_VALUE: rcu_irc28m_adjust_value_set:adjust <- 0
	ldr	r1, __arm_cp.35_0
.Ltmp209:
	.loc	4 866 14 prologue_end   @ ../Basic/Source/gd32e23x_rcu.c:866:14
	ldr	r2, [r1]
.Ltmp210:
	@DEBUG_VALUE: rcu_irc28m_adjust_value_set:adjust <- $r2
	.loc	4 0 14 is_stmt 0        @ ../Basic/Source/gd32e23x_rcu.c:0:14
	movs	r3, #248
	.loc	4 868 12 is_stmt 1      @ ../Basic/Source/gd32e23x_rcu.c:868:12
	bics	r2, r3
.Ltmp211:
	@DEBUG_VALUE: rcu_irc28m_adjust_value_set:adjust <- $r2
	.loc	4 869 52                @ ../Basic/Source/gd32e23x_rcu.c:869:52
	lsls	r0, r0, #3
.Ltmp212:
	.loc	4 869 24 is_stmt 0      @ ../Basic/Source/gd32e23x_rcu.c:869:24
	orrs	r0, r2
	.loc	4 869 14                @ ../Basic/Source/gd32e23x_rcu.c:869:14
	str	r0, [r1]
	.loc	4 870 1 is_stmt 1       @ ../Basic/Source/gd32e23x_rcu.c:870:1
	bx	lr
.Ltmp213:
	.p2align	2
@ %bb.1:
	.loc	4 0 1 is_stmt 0         @ ../Basic/Source/gd32e23x_rcu.c:0:1
__arm_cp.35_0:
	.long	1073877044              @ 0x40021034
.Lcpi_end43:
	.size	__arm_cp.35_0, .Lcpi_end43-__arm_cp.35_0
.Lfunc_end35:
	.size	rcu_irc28m_adjust_value_set, .Lfunc_end35-rcu_irc28m_adjust_value_set
	.cfi_endproc
	.cantunwind
	.fnend
                                        @ -- End function
	.section	.text.rcu_voltage_key_unlock,"ax",%progbits
	.hidden	rcu_voltage_key_unlock  @ -- Begin function rcu_voltage_key_unlock
	.globl	rcu_voltage_key_unlock
	.p2align	2
	.type	rcu_voltage_key_unlock,%function
	.code	16                      @ @rcu_voltage_key_unlock
	.thumb_func
rcu_voltage_key_unlock:
.Lfunc_begin36:
	.loc	4 879 0 is_stmt 1       @ ../Basic/Source/gd32e23x_rcu.c:879:0
	.fnstart
	.cfi_startproc
@ %bb.0:
	ldr	r0, __arm_cp.36_0
.Ltmp214:
	.loc	4 881 14 prologue_end   @ ../Basic/Source/gd32e23x_rcu.c:881:14
	ldr	r1, [r0]
	movs	r1, #0
	str	r1, [r0]
	.loc	4 882 14                @ ../Basic/Source/gd32e23x_rcu.c:882:14
	ldr	r1, [r0]
	ldr	r2, __arm_cp.36_1
	orrs	r2, r1
	str	r2, [r0]
	.loc	4 883 1                 @ ../Basic/Source/gd32e23x_rcu.c:883:1
	bx	lr
.Ltmp215:
	.p2align	2
@ %bb.1:
	.loc	4 0 1 is_stmt 0         @ ../Basic/Source/gd32e23x_rcu.c:0:1
__arm_cp.36_0:
	.long	1073877248              @ 0x40021100
.Lcpi_end44:
	.size	__arm_cp.36_0, .Lcpi_end44-__arm_cp.36_0
__arm_cp.36_1:
	.long	439041101               @ 0x1a2b3c4d
.Lcpi_end45:
	.size	__arm_cp.36_1, .Lcpi_end45-__arm_cp.36_1
.Lfunc_end36:
	.size	rcu_voltage_key_unlock, .Lfunc_end36-rcu_voltage_key_unlock
	.cfi_endproc
	.cantunwind
	.fnend
                                        @ -- End function
	.section	.text.rcu_deepsleep_voltage_set,"ax",%progbits
	.hidden	rcu_deepsleep_voltage_set @ -- Begin function rcu_deepsleep_voltage_set
	.globl	rcu_deepsleep_voltage_set
	.p2align	2
	.type	rcu_deepsleep_voltage_set,%function
	.code	16                      @ @rcu_deepsleep_voltage_set
	.thumb_func
rcu_deepsleep_voltage_set:
.Lfunc_begin37:
	.loc	4 897 0 is_stmt 1       @ ../Basic/Source/gd32e23x_rcu.c:897:0
	.fnstart
	.cfi_startproc
@ %bb.0:
	@DEBUG_VALUE: rcu_deepsleep_voltage_set:dsvol <- $r0
	@DEBUG_VALUE: rcu_deepsleep_voltage_set:dsvol <- $r0
	ldr	r1, __arm_cp.37_0
.Ltmp216:
	.loc	4 899 13 prologue_end   @ ../Basic/Source/gd32e23x_rcu.c:899:13
	ldr	r2, [r1]
	movs	r3, #3
	bics	r2, r3
	str	r2, [r1]
	.loc	4 900 13                @ ../Basic/Source/gd32e23x_rcu.c:900:13
	ldr	r2, [r1]
	orrs	r2, r0
	str	r2, [r1]
	.loc	4 901 1                 @ ../Basic/Source/gd32e23x_rcu.c:901:1
	bx	lr
.Ltmp217:
	.p2align	2
@ %bb.1:
	.loc	4 0 1 is_stmt 0         @ ../Basic/Source/gd32e23x_rcu.c:0:1
__arm_cp.37_0:
	.long	1073877300              @ 0x40021134
.Lcpi_end46:
	.size	__arm_cp.37_0, .Lcpi_end46-__arm_cp.37_0
.Lfunc_end37:
	.size	rcu_deepsleep_voltage_set, .Lfunc_end37-rcu_deepsleep_voltage_set
	.cfi_endproc
	.cantunwind
	.fnend
                                        @ -- End function
	.section	.text.rcu_clock_freq_get,"ax",%progbits
	.hidden	rcu_clock_freq_get      @ -- Begin function rcu_clock_freq_get
	.globl	rcu_clock_freq_get
	.p2align	2
	.type	rcu_clock_freq_get,%function
	.code	16                      @ @rcu_clock_freq_get
	.thumb_func
rcu_clock_freq_get:
.Lfunc_begin38:
	.loc	4 917 0 is_stmt 1       @ ../Basic/Source/gd32e23x_rcu.c:917:0
	.fnstart
	.cfi_startproc
@ %bb.0:
	@DEBUG_VALUE: rcu_clock_freq_get:clock <- $r0
	.save	{r4, r5, r6, r7, lr}
	.pad	#4
	push	{r3, r4, r5, r6, r7, lr}
	.cfi_def_cfa_offset 24
	.cfi_offset lr, -4
	.cfi_offset r7, -8
	.cfi_offset r6, -12
	.cfi_offset r5, -16
	.cfi_offset r4, -20
	mov	r2, r0
.Ltmp218:
	@DEBUG_VALUE: rcu_clock_freq_get:clock <- $r2
	ldr	r3, __arm_cp.38_0
.Ltmp219:
	@DEBUG_VALUE: rcu_clock_freq_get:clk_exp <- 0
	@DEBUG_VALUE: rcu_clock_freq_get:idx <- 0
	@DEBUG_VALUE: rcu_clock_freq_get:prediv <- 0
	@DEBUG_VALUE: rcu_clock_freq_get:pllsel <- 0
	@DEBUG_VALUE: rcu_clock_freq_get:pllmf4 <- 0
	@DEBUG_VALUE: rcu_clock_freq_get:pllmf <- 0
	@DEBUG_VALUE: rcu_clock_freq_get:usart_freq <- 0
	@DEBUG_VALUE: rcu_clock_freq_get:adc_freq <- 0
	@DEBUG_VALUE: rcu_clock_freq_get:apb2_freq <- 0
	@DEBUG_VALUE: rcu_clock_freq_get:apb1_freq <- 0
	@DEBUG_VALUE: rcu_clock_freq_get:ahb_freq <- 0
	@DEBUG_VALUE: rcu_clock_freq_get:cksys_freq <- 0
	@DEBUG_VALUE: rcu_clock_freq_get:ck_freq <- 0
	@DEBUG_VALUE: rcu_clock_freq_get:adcps2 <- 0
	@DEBUG_VALUE: rcu_clock_freq_get:adcps <- 0
	@DEBUG_VALUE: rcu_clock_freq_get:sws <- 0
	.loc	4 927 11 prologue_end   @ ../Basic/Source/gd32e23x_rcu.c:927:11
	ldr	r0, [r3]
	movs	r1, #12
	ands	r1, r0
.Ltmp220:
	@DEBUG_VALUE: rcu_clock_freq_get:sws <- $r1
	.loc	4 0 11 is_stmt 0        @ ../Basic/Source/gd32e23x_rcu.c:0:11
	ldr	r0, __arm_cp.38_1
	.loc	4 928 5 is_stmt 1       @ ../Basic/Source/gd32e23x_rcu.c:928:5
	cmp	r1, #8
.Ltmp221:
	.loc	4 0 0 is_stmt 0         @ ../Basic/Source/gd32e23x_rcu.c:0:0
	mov	r4, r0
.Ltmp222:
	.loc	4 928 5                 @ ../Basic/Source/gd32e23x_rcu.c:928:5
	bne	.LBB38_10
.Ltmp223:
@ %bb.1:
	@DEBUG_VALUE: rcu_clock_freq_get:sws <- $r1
	@DEBUG_VALUE: rcu_clock_freq_get:adcps <- 0
	@DEBUG_VALUE: rcu_clock_freq_get:adcps2 <- 0
	@DEBUG_VALUE: rcu_clock_freq_get:ck_freq <- 0
	@DEBUG_VALUE: rcu_clock_freq_get:cksys_freq <- 0
	@DEBUG_VALUE: rcu_clock_freq_get:ahb_freq <- 0
	@DEBUG_VALUE: rcu_clock_freq_get:apb1_freq <- 0
	@DEBUG_VALUE: rcu_clock_freq_get:apb2_freq <- 0
	@DEBUG_VALUE: rcu_clock_freq_get:adc_freq <- 0
	@DEBUG_VALUE: rcu_clock_freq_get:usart_freq <- 0
	@DEBUG_VALUE: rcu_clock_freq_get:pllmf <- 0
	@DEBUG_VALUE: rcu_clock_freq_get:pllmf4 <- 0
	@DEBUG_VALUE: rcu_clock_freq_get:pllsel <- 0
	@DEBUG_VALUE: rcu_clock_freq_get:prediv <- 0
	@DEBUG_VALUE: rcu_clock_freq_get:idx <- 0
	@DEBUG_VALUE: rcu_clock_freq_get:clk_exp <- 0
	@DEBUG_VALUE: rcu_clock_freq_get:clock <- $r2
	.loc	4 940 17 is_stmt 1      @ ../Basic/Source/gd32e23x_rcu.c:940:17
	ldr	r1, [r3]
.Ltmp224:
	lsls	r1, r1, #10
	lsrs	r1, r1, #28
.Ltmp225:
	@DEBUG_VALUE: rcu_clock_freq_get:pllmf <- $r1
	.loc	4 943 12                @ ../Basic/Source/gd32e23x_rcu.c:943:12
	cmp	r1, #15
	beq	.LBB38_3
.Ltmp226:
@ %bb.2:
	@DEBUG_VALUE: rcu_clock_freq_get:pllmf <- $r1
	@DEBUG_VALUE: rcu_clock_freq_get:adcps <- 0
	@DEBUG_VALUE: rcu_clock_freq_get:adcps2 <- 0
	@DEBUG_VALUE: rcu_clock_freq_get:ck_freq <- 0
	@DEBUG_VALUE: rcu_clock_freq_get:cksys_freq <- 0
	@DEBUG_VALUE: rcu_clock_freq_get:ahb_freq <- 0
	@DEBUG_VALUE: rcu_clock_freq_get:apb1_freq <- 0
	@DEBUG_VALUE: rcu_clock_freq_get:apb2_freq <- 0
	@DEBUG_VALUE: rcu_clock_freq_get:adc_freq <- 0
	@DEBUG_VALUE: rcu_clock_freq_get:usart_freq <- 0
	@DEBUG_VALUE: rcu_clock_freq_get:pllmf4 <- 0
	@DEBUG_VALUE: rcu_clock_freq_get:pllsel <- 0
	@DEBUG_VALUE: rcu_clock_freq_get:prediv <- 0
	@DEBUG_VALUE: rcu_clock_freq_get:idx <- 0
	@DEBUG_VALUE: rcu_clock_freq_get:clk_exp <- 0
	@DEBUG_VALUE: rcu_clock_freq_get:clock <- $r2
	.loc	4 0 12 is_stmt 0        @ ../Basic/Source/gd32e23x_rcu.c:0:12
	adds	r4, r1, #2
	b	.LBB38_4
.Ltmp227:
.LBB38_3:
	@DEBUG_VALUE: rcu_clock_freq_get:pllmf <- $r1
	@DEBUG_VALUE: rcu_clock_freq_get:adcps <- 0
	@DEBUG_VALUE: rcu_clock_freq_get:adcps2 <- 0
	@DEBUG_VALUE: rcu_clock_freq_get:ck_freq <- 0
	@DEBUG_VALUE: rcu_clock_freq_get:cksys_freq <- 0
	@DEBUG_VALUE: rcu_clock_freq_get:ahb_freq <- 0
	@DEBUG_VALUE: rcu_clock_freq_get:apb1_freq <- 0
	@DEBUG_VALUE: rcu_clock_freq_get:apb2_freq <- 0
	@DEBUG_VALUE: rcu_clock_freq_get:adc_freq <- 0
	@DEBUG_VALUE: rcu_clock_freq_get:usart_freq <- 0
	@DEBUG_VALUE: rcu_clock_freq_get:pllmf4 <- 0
	@DEBUG_VALUE: rcu_clock_freq_get:pllsel <- 0
	@DEBUG_VALUE: rcu_clock_freq_get:prediv <- 0
	@DEBUG_VALUE: rcu_clock_freq_get:idx <- 0
	@DEBUG_VALUE: rcu_clock_freq_get:clk_exp <- 0
	@DEBUG_VALUE: rcu_clock_freq_get:clock <- $r2
	movs	r4, #16
.Ltmp228:
.LBB38_4:
	@DEBUG_VALUE: rcu_clock_freq_get:pllmf <- $r1
	@DEBUG_VALUE: rcu_clock_freq_get:adcps <- 0
	@DEBUG_VALUE: rcu_clock_freq_get:adcps2 <- 0
	@DEBUG_VALUE: rcu_clock_freq_get:ck_freq <- 0
	@DEBUG_VALUE: rcu_clock_freq_get:cksys_freq <- 0
	@DEBUG_VALUE: rcu_clock_freq_get:ahb_freq <- 0
	@DEBUG_VALUE: rcu_clock_freq_get:apb1_freq <- 0
	@DEBUG_VALUE: rcu_clock_freq_get:apb2_freq <- 0
	@DEBUG_VALUE: rcu_clock_freq_get:adc_freq <- 0
	@DEBUG_VALUE: rcu_clock_freq_get:usart_freq <- 0
	@DEBUG_VALUE: rcu_clock_freq_get:pllmf4 <- 0
	@DEBUG_VALUE: rcu_clock_freq_get:pllsel <- 0
	@DEBUG_VALUE: rcu_clock_freq_get:prediv <- 0
	@DEBUG_VALUE: rcu_clock_freq_get:idx <- 0
	@DEBUG_VALUE: rcu_clock_freq_get:clk_exp <- 0
	@DEBUG_VALUE: rcu_clock_freq_get:clock <- $r2
	.loc	4 941 18 is_stmt 1      @ ../Basic/Source/gd32e23x_rcu.c:941:18
	ldr	r5, [r3]
	.loc	4 943 12                @ ../Basic/Source/gd32e23x_rcu.c:943:12
	lsls	r5, r5, #4
.Ltmp229:
	@DEBUG_VALUE: rcu_clock_freq_get:pllmf4 <- $r5
	bpl	.LBB38_6
.Ltmp230:
@ %bb.5:
	@DEBUG_VALUE: rcu_clock_freq_get:pllmf4 <- $r5
	@DEBUG_VALUE: rcu_clock_freq_get:pllmf <- $r1
	@DEBUG_VALUE: rcu_clock_freq_get:adcps <- 0
	@DEBUG_VALUE: rcu_clock_freq_get:adcps2 <- 0
	@DEBUG_VALUE: rcu_clock_freq_get:ck_freq <- 0
	@DEBUG_VALUE: rcu_clock_freq_get:cksys_freq <- 0
	@DEBUG_VALUE: rcu_clock_freq_get:ahb_freq <- 0
	@DEBUG_VALUE: rcu_clock_freq_get:apb1_freq <- 0
	@DEBUG_VALUE: rcu_clock_freq_get:apb2_freq <- 0
	@DEBUG_VALUE: rcu_clock_freq_get:adc_freq <- 0
	@DEBUG_VALUE: rcu_clock_freq_get:usart_freq <- 0
	@DEBUG_VALUE: rcu_clock_freq_get:pllsel <- 0
	@DEBUG_VALUE: rcu_clock_freq_get:prediv <- 0
	@DEBUG_VALUE: rcu_clock_freq_get:idx <- 0
	@DEBUG_VALUE: rcu_clock_freq_get:clk_exp <- 0
	@DEBUG_VALUE: rcu_clock_freq_get:clock <- $r2
	.loc	4 0 12 is_stmt 0        @ ../Basic/Source/gd32e23x_rcu.c:0:12
	adds	r1, #17
.Ltmp231:
	.loc	4 943 12                @ ../Basic/Source/gd32e23x_rcu.c:943:12
	mov	r4, r1
.Ltmp232:
.LBB38_6:
	@DEBUG_VALUE: rcu_clock_freq_get:pllmf4 <- $r5
	@DEBUG_VALUE: rcu_clock_freq_get:adcps <- 0
	@DEBUG_VALUE: rcu_clock_freq_get:adcps2 <- 0
	@DEBUG_VALUE: rcu_clock_freq_get:ck_freq <- 0
	@DEBUG_VALUE: rcu_clock_freq_get:cksys_freq <- 0
	@DEBUG_VALUE: rcu_clock_freq_get:ahb_freq <- 0
	@DEBUG_VALUE: rcu_clock_freq_get:apb1_freq <- 0
	@DEBUG_VALUE: rcu_clock_freq_get:apb2_freq <- 0
	@DEBUG_VALUE: rcu_clock_freq_get:adc_freq <- 0
	@DEBUG_VALUE: rcu_clock_freq_get:usart_freq <- 0
	@DEBUG_VALUE: rcu_clock_freq_get:pllsel <- 0
	@DEBUG_VALUE: rcu_clock_freq_get:prediv <- 0
	@DEBUG_VALUE: rcu_clock_freq_get:idx <- 0
	@DEBUG_VALUE: rcu_clock_freq_get:clk_exp <- 0
	@DEBUG_VALUE: rcu_clock_freq_get:clock <- $r2
	@DEBUG_VALUE: rcu_clock_freq_get:pllmf <- $r4
	.loc	4 952 18 is_stmt 1      @ ../Basic/Source/gd32e23x_rcu.c:952:18
	ldr	r1, [r3]
	.loc	4 953 12                @ ../Basic/Source/gd32e23x_rcu.c:953:12
	lsls	r1, r1, #15
.Ltmp233:
	@DEBUG_VALUE: rcu_clock_freq_get:pllsel <- $r1
	bpl	.LBB38_8
.Ltmp234:
@ %bb.7:
	@DEBUG_VALUE: rcu_clock_freq_get:pllsel <- $r1
	@DEBUG_VALUE: rcu_clock_freq_get:pllmf <- $r4
	@DEBUG_VALUE: rcu_clock_freq_get:pllmf4 <- $r5
	@DEBUG_VALUE: rcu_clock_freq_get:adcps <- 0
	@DEBUG_VALUE: rcu_clock_freq_get:adcps2 <- 0
	@DEBUG_VALUE: rcu_clock_freq_get:ck_freq <- 0
	@DEBUG_VALUE: rcu_clock_freq_get:cksys_freq <- 0
	@DEBUG_VALUE: rcu_clock_freq_get:ahb_freq <- 0
	@DEBUG_VALUE: rcu_clock_freq_get:apb1_freq <- 0
	@DEBUG_VALUE: rcu_clock_freq_get:apb2_freq <- 0
	@DEBUG_VALUE: rcu_clock_freq_get:adc_freq <- 0
	@DEBUG_VALUE: rcu_clock_freq_get:usart_freq <- 0
	@DEBUG_VALUE: rcu_clock_freq_get:prediv <- 0
	@DEBUG_VALUE: rcu_clock_freq_get:idx <- 0
	@DEBUG_VALUE: rcu_clock_freq_get:clk_exp <- 0
	@DEBUG_VALUE: rcu_clock_freq_get:clock <- $r2
	.loc	4 954 23                @ ../Basic/Source/gd32e23x_rcu.c:954:23
	ldr	r1, [r3, #40]
.Ltmp235:
	.loc	4 0 23 is_stmt 0        @ ../Basic/Source/gd32e23x_rcu.c:0:23
	movs	r5, #15
.Ltmp236:
	.loc	4 954 23                @ ../Basic/Source/gd32e23x_rcu.c:954:23
	ands	r5, r1
	.loc	4 954 48                @ ../Basic/Source/gd32e23x_rcu.c:954:48
	adds	r1, r5, #1
.Ltmp237:
	@DEBUG_VALUE: rcu_clock_freq_get:prediv <- $r1
	.loc	4 955 39 is_stmt 1      @ ../Basic/Source/gd32e23x_rcu.c:955:39
	udiv	r1, r0, r1
.Ltmp238:
	.loc	4 0 39 is_stmt 0        @ ../Basic/Source/gd32e23x_rcu.c:0:39
	b	.LBB38_9
.Ltmp239:
.LBB38_8:
	@DEBUG_VALUE: rcu_clock_freq_get:pllsel <- $r1
	@DEBUG_VALUE: rcu_clock_freq_get:pllmf <- $r4
	@DEBUG_VALUE: rcu_clock_freq_get:pllmf4 <- $r5
	@DEBUG_VALUE: rcu_clock_freq_get:adcps <- 0
	@DEBUG_VALUE: rcu_clock_freq_get:adcps2 <- 0
	@DEBUG_VALUE: rcu_clock_freq_get:ck_freq <- 0
	@DEBUG_VALUE: rcu_clock_freq_get:cksys_freq <- 0
	@DEBUG_VALUE: rcu_clock_freq_get:ahb_freq <- 0
	@DEBUG_VALUE: rcu_clock_freq_get:apb1_freq <- 0
	@DEBUG_VALUE: rcu_clock_freq_get:apb2_freq <- 0
	@DEBUG_VALUE: rcu_clock_freq_get:adc_freq <- 0
	@DEBUG_VALUE: rcu_clock_freq_get:usart_freq <- 0
	@DEBUG_VALUE: rcu_clock_freq_get:prediv <- 0
	@DEBUG_VALUE: rcu_clock_freq_get:idx <- 0
	@DEBUG_VALUE: rcu_clock_freq_get:clk_exp <- 0
	@DEBUG_VALUE: rcu_clock_freq_get:clock <- $r2
	ldr	r1, __arm_cp.38_2
.Ltmp240:
.LBB38_9:
	@DEBUG_VALUE: rcu_clock_freq_get:pllmf <- $r4
	@DEBUG_VALUE: rcu_clock_freq_get:adcps <- 0
	@DEBUG_VALUE: rcu_clock_freq_get:adcps2 <- 0
	@DEBUG_VALUE: rcu_clock_freq_get:ck_freq <- 0
	@DEBUG_VALUE: rcu_clock_freq_get:cksys_freq <- 0
	@DEBUG_VALUE: rcu_clock_freq_get:ahb_freq <- 0
	@DEBUG_VALUE: rcu_clock_freq_get:apb1_freq <- 0
	@DEBUG_VALUE: rcu_clock_freq_get:apb2_freq <- 0
	@DEBUG_VALUE: rcu_clock_freq_get:adc_freq <- 0
	@DEBUG_VALUE: rcu_clock_freq_get:usart_freq <- 0
	@DEBUG_VALUE: rcu_clock_freq_get:idx <- 0
	@DEBUG_VALUE: rcu_clock_freq_get:clk_exp <- 0
	@DEBUG_VALUE: rcu_clock_freq_get:clock <- $r2
	muls	r4, r1, r4
.Ltmp241:
	@DEBUG_VALUE: rcu_clock_freq_get:cksys_freq <- $r4
.LBB38_10:
	@DEBUG_VALUE: rcu_clock_freq_get:adcps <- 0
	@DEBUG_VALUE: rcu_clock_freq_get:adcps2 <- 0
	@DEBUG_VALUE: rcu_clock_freq_get:ck_freq <- 0
	@DEBUG_VALUE: rcu_clock_freq_get:ahb_freq <- 0
	@DEBUG_VALUE: rcu_clock_freq_get:apb1_freq <- 0
	@DEBUG_VALUE: rcu_clock_freq_get:apb2_freq <- 0
	@DEBUG_VALUE: rcu_clock_freq_get:adc_freq <- 0
	@DEBUG_VALUE: rcu_clock_freq_get:usart_freq <- 0
	@DEBUG_VALUE: rcu_clock_freq_get:idx <- 0
	@DEBUG_VALUE: rcu_clock_freq_get:clk_exp <- 0
	@DEBUG_VALUE: rcu_clock_freq_get:clock <- $r2
	@DEBUG_VALUE: rcu_clock_freq_get:clock <- $r2
	@DEBUG_VALUE: rcu_clock_freq_get:cksys_freq <- $r4
	.loc	4 966 11 is_stmt 1      @ ../Basic/Source/gd32e23x_rcu.c:966:11
	ldr	r5, [r3]
.Ltmp242:
	@DEBUG_VALUE: rcu_clock_freq_get:clk_exp <- undef
	@DEBUG_VALUE: rcu_clock_freq_get:idx <- undef
	@DEBUG_VALUE: rcu_clock_freq_get:ahb_freq <- undef
	.loc	4 971 11                @ ../Basic/Source/gd32e23x_rcu.c:971:11
	ldr	r0, [r3]
	@DEBUG_VALUE: rcu_clock_freq_get:clk_exp <- undef
.Ltmp243:
	@DEBUG_VALUE: rcu_clock_freq_get:apb1_freq <- undef
	.loc	4 976 11                @ ../Basic/Source/gd32e23x_rcu.c:976:11
	ldr	r1, [r3]
	@DEBUG_VALUE: rcu_clock_freq_get:clk_exp <- undef
	@DEBUG_VALUE: rcu_clock_freq_get:idx <- undef
.Ltmp244:
	@DEBUG_VALUE: rcu_clock_freq_get:apb2_freq <- undef
	.loc	4 981 5                 @ ../Basic/Source/gd32e23x_rcu.c:981:5
	cmp	r2, #5
	bhi	.LBB38_14
.Ltmp245:
@ %bb.11:
	@DEBUG_VALUE: rcu_clock_freq_get:cksys_freq <- $r4
	@DEBUG_VALUE: rcu_clock_freq_get:adcps <- 0
	@DEBUG_VALUE: rcu_clock_freq_get:adcps2 <- 0
	@DEBUG_VALUE: rcu_clock_freq_get:ck_freq <- 0
	@DEBUG_VALUE: rcu_clock_freq_get:ahb_freq <- 0
	@DEBUG_VALUE: rcu_clock_freq_get:apb1_freq <- 0
	@DEBUG_VALUE: rcu_clock_freq_get:apb2_freq <- 0
	@DEBUG_VALUE: rcu_clock_freq_get:adc_freq <- 0
	@DEBUG_VALUE: rcu_clock_freq_get:usart_freq <- 0
	@DEBUG_VALUE: rcu_clock_freq_get:idx <- 0
	@DEBUG_VALUE: rcu_clock_freq_get:clk_exp <- 0
	@DEBUG_VALUE: rcu_clock_freq_get:clock <- $r2
	@DEBUG_VALUE: rcu_clock_freq_get:clock <- $r2
	.loc	4 0 5 is_stmt 0         @ ../Basic/Source/gd32e23x_rcu.c:0:5
	str	r0, [sp]                @ 4-byte Spill
	lsls	r5, r5, #24
	lsrs	r5, r5, #28
	adr	r7, .LCPI38_3
	ldrb	r7, [r7, r5]
	mov	r5, r4
	lsrs	r5, r7
.Ltmp246:
	@DEBUG_VALUE: rcu_clock_freq_get:ahb_freq <- $r5
	lsls	r1, r1, #18
	lsrs	r1, r1, #29
	ldr	r7, __arm_cp.38_4
	ldrb	r6, [r7, r1]
.Ltmp247:
	@DEBUG_VALUE: rcu_clock_freq_get:clk_exp <- $r6
	mov	r1, r5
	lsrs	r1, r6
.Ltmp248:
	@DEBUG_VALUE: rcu_clock_freq_get:idx <- undef
	@DEBUG_VALUE: rcu_clock_freq_get:apb2_freq <- $r1
	lsls	r6, r2, #2
.Ltmp249:
	adr	r0, .LJTI38_0
	adds	r0, r0, r6
	mov	pc, r0
.Ltmp250:
@ %bb.12:
	.p2align	2
.LJTI38_0:
	b.w	.LBB38_13
	b.w	.LBB38_16
	b.w	.LBB38_15
	b.w	.LBB38_17
	b.w	.LBB38_18
	b.w	.LBB38_21
.LBB38_13:
.Ltmp251:
	@DEBUG_VALUE: rcu_clock_freq_get:apb2_freq <- $r1
	@DEBUG_VALUE: rcu_clock_freq_get:ahb_freq <- $r5
	@DEBUG_VALUE: rcu_clock_freq_get:cksys_freq <- $r4
	@DEBUG_VALUE: rcu_clock_freq_get:adcps <- 0
	@DEBUG_VALUE: rcu_clock_freq_get:adcps2 <- 0
	@DEBUG_VALUE: rcu_clock_freq_get:ck_freq <- 0
	@DEBUG_VALUE: rcu_clock_freq_get:apb1_freq <- 0
	@DEBUG_VALUE: rcu_clock_freq_get:adc_freq <- 0
	@DEBUG_VALUE: rcu_clock_freq_get:usart_freq <- 0
	@DEBUG_VALUE: rcu_clock_freq_get:idx <- 0
	@DEBUG_VALUE: rcu_clock_freq_get:clock <- $r2
	@DEBUG_VALUE: rcu_clock_freq_get:ck_freq <- $r4
	mov	r1, r4
.Ltmp252:
	@DEBUG_VALUE: rcu_clock_freq_get:ck_freq <- $r1
	b	.LBB38_17
.Ltmp253:
.LBB38_14:
	@DEBUG_VALUE: rcu_clock_freq_get:cksys_freq <- $r4
	@DEBUG_VALUE: rcu_clock_freq_get:adcps <- 0
	@DEBUG_VALUE: rcu_clock_freq_get:adcps2 <- 0
	@DEBUG_VALUE: rcu_clock_freq_get:ck_freq <- 0
	@DEBUG_VALUE: rcu_clock_freq_get:ahb_freq <- 0
	@DEBUG_VALUE: rcu_clock_freq_get:apb1_freq <- 0
	@DEBUG_VALUE: rcu_clock_freq_get:apb2_freq <- 0
	@DEBUG_VALUE: rcu_clock_freq_get:adc_freq <- 0
	@DEBUG_VALUE: rcu_clock_freq_get:usart_freq <- 0
	@DEBUG_VALUE: rcu_clock_freq_get:idx <- 0
	@DEBUG_VALUE: rcu_clock_freq_get:clk_exp <- 0
	@DEBUG_VALUE: rcu_clock_freq_get:clock <- $r2
	movs	r1, #0
	b	.LBB38_17
.Ltmp254:
.LBB38_15:
	@DEBUG_VALUE: rcu_clock_freq_get:apb2_freq <- $r1
	@DEBUG_VALUE: rcu_clock_freq_get:ahb_freq <- $r5
	@DEBUG_VALUE: rcu_clock_freq_get:cksys_freq <- $r4
	@DEBUG_VALUE: rcu_clock_freq_get:adcps <- 0
	@DEBUG_VALUE: rcu_clock_freq_get:adcps2 <- 0
	@DEBUG_VALUE: rcu_clock_freq_get:ck_freq <- 0
	@DEBUG_VALUE: rcu_clock_freq_get:apb1_freq <- 0
	@DEBUG_VALUE: rcu_clock_freq_get:adc_freq <- 0
	@DEBUG_VALUE: rcu_clock_freq_get:usart_freq <- 0
	@DEBUG_VALUE: rcu_clock_freq_get:idx <- 0
	@DEBUG_VALUE: rcu_clock_freq_get:clock <- $r2
	ldr	r0, [sp]                @ 4-byte Reload
	lsls	r0, r0, #21
	lsrs	r0, r0, #29
.Ltmp255:
	@DEBUG_VALUE: rcu_clock_freq_get:idx <- $r0
	ldrb	r0, [r7, r0]
.Ltmp256:
	@DEBUG_VALUE: rcu_clock_freq_get:clk_exp <- $r0
	.loc	4 973 26 is_stmt 1      @ ../Basic/Source/gd32e23x_rcu.c:973:26
	lsrs	r5, r0
.Ltmp257:
	@DEBUG_VALUE: rcu_clock_freq_get:apb1_freq <- $r5
	@DEBUG_VALUE: rcu_clock_freq_get:ck_freq <- $r5
.LBB38_16:
	@DEBUG_VALUE: rcu_clock_freq_get:apb2_freq <- $r1
	@DEBUG_VALUE: rcu_clock_freq_get:cksys_freq <- $r4
	@DEBUG_VALUE: rcu_clock_freq_get:adcps <- 0
	@DEBUG_VALUE: rcu_clock_freq_get:adcps2 <- 0
	@DEBUG_VALUE: rcu_clock_freq_get:adc_freq <- 0
	@DEBUG_VALUE: rcu_clock_freq_get:usart_freq <- 0
	@DEBUG_VALUE: rcu_clock_freq_get:clock <- $r2
	@DEBUG_VALUE: rcu_clock_freq_get:ck_freq <- $r5
	.loc	4 0 0 is_stmt 0         @ ../Basic/Source/gd32e23x_rcu.c:0:0
	mov	r1, r5
.Ltmp258:
	@DEBUG_VALUE: rcu_clock_freq_get:ck_freq <- $r1
.LBB38_17:
	@DEBUG_VALUE: rcu_clock_freq_get:usart_freq <- 0
	@DEBUG_VALUE: rcu_clock_freq_get:ck_freq <- $r1
	.loc	4 1058 5 is_stmt 1      @ ../Basic/Source/gd32e23x_rcu.c:1058:5
	mov	r0, r1
	pop	{r3, r4, r5, r6, r7, pc}
.Ltmp259:
.LBB38_18:
	@DEBUG_VALUE: rcu_clock_freq_get:apb2_freq <- $r1
	@DEBUG_VALUE: rcu_clock_freq_get:ahb_freq <- $r5
	@DEBUG_VALUE: rcu_clock_freq_get:cksys_freq <- $r4
	@DEBUG_VALUE: rcu_clock_freq_get:adcps <- 0
	@DEBUG_VALUE: rcu_clock_freq_get:adcps2 <- 0
	@DEBUG_VALUE: rcu_clock_freq_get:ck_freq <- 0
	@DEBUG_VALUE: rcu_clock_freq_get:apb1_freq <- 0
	@DEBUG_VALUE: rcu_clock_freq_get:adc_freq <- 0
	@DEBUG_VALUE: rcu_clock_freq_get:usart_freq <- 0
	@DEBUG_VALUE: rcu_clock_freq_get:idx <- 0
	@DEBUG_VALUE: rcu_clock_freq_get:clock <- $r2
	.loc	4 996 39                @ ../Basic/Source/gd32e23x_rcu.c:996:39
	ldr	r0, [r3, #44]
.Ltmp260:
	.loc	4 996 12 is_stmt 0      @ ../Basic/Source/gd32e23x_rcu.c:996:12
	lsls	r0, r0, #23
	bmi	.LBB38_27
.Ltmp261:
@ %bb.19:
	@DEBUG_VALUE: rcu_clock_freq_get:apb2_freq <- $r1
	@DEBUG_VALUE: rcu_clock_freq_get:ahb_freq <- $r5
	@DEBUG_VALUE: rcu_clock_freq_get:cksys_freq <- $r4
	@DEBUG_VALUE: rcu_clock_freq_get:adcps <- 0
	@DEBUG_VALUE: rcu_clock_freq_get:adcps2 <- 0
	@DEBUG_VALUE: rcu_clock_freq_get:ck_freq <- 0
	@DEBUG_VALUE: rcu_clock_freq_get:apb1_freq <- 0
	@DEBUG_VALUE: rcu_clock_freq_get:adc_freq <- 0
	@DEBUG_VALUE: rcu_clock_freq_get:usart_freq <- 0
	@DEBUG_VALUE: rcu_clock_freq_get:idx <- 0
	@DEBUG_VALUE: rcu_clock_freq_get:clock <- $r2
	.loc	4 997 40 is_stmt 1      @ ../Basic/Source/gd32e23x_rcu.c:997:40
	ldr	r0, [r3, #44]
	lsls	r0, r0, #15
	bpl	.LBB38_31
.Ltmp262:
@ %bb.20:
	@DEBUG_VALUE: rcu_clock_freq_get:apb2_freq <- $r1
	@DEBUG_VALUE: rcu_clock_freq_get:ahb_freq <- $r5
	@DEBUG_VALUE: rcu_clock_freq_get:cksys_freq <- $r4
	@DEBUG_VALUE: rcu_clock_freq_get:adcps <- 0
	@DEBUG_VALUE: rcu_clock_freq_get:adcps2 <- 0
	@DEBUG_VALUE: rcu_clock_freq_get:ck_freq <- 0
	@DEBUG_VALUE: rcu_clock_freq_get:apb1_freq <- 0
	@DEBUG_VALUE: rcu_clock_freq_get:adc_freq <- 0
	@DEBUG_VALUE: rcu_clock_freq_get:usart_freq <- 0
	@DEBUG_VALUE: rcu_clock_freq_get:idx <- 0
	@DEBUG_VALUE: rcu_clock_freq_get:clock <- $r2
	.loc	4 0 40 is_stmt 0        @ ../Basic/Source/gd32e23x_rcu.c:0:40
	ldr	r1, __arm_cp.38_6
.Ltmp263:
	b	.LBB38_17
.Ltmp264:
.LBB38_21:
	@DEBUG_VALUE: rcu_clock_freq_get:apb2_freq <- $r1
	@DEBUG_VALUE: rcu_clock_freq_get:ahb_freq <- $r5
	@DEBUG_VALUE: rcu_clock_freq_get:cksys_freq <- $r4
	@DEBUG_VALUE: rcu_clock_freq_get:adcps <- 0
	@DEBUG_VALUE: rcu_clock_freq_get:adcps2 <- 0
	@DEBUG_VALUE: rcu_clock_freq_get:ck_freq <- 0
	@DEBUG_VALUE: rcu_clock_freq_get:apb1_freq <- 0
	@DEBUG_VALUE: rcu_clock_freq_get:adc_freq <- 0
	@DEBUG_VALUE: rcu_clock_freq_get:usart_freq <- 0
	@DEBUG_VALUE: rcu_clock_freq_get:idx <- 0
	@DEBUG_VALUE: rcu_clock_freq_get:clock <- $r2
	.loc	4 1043 37 is_stmt 1     @ ../Basic/Source/gd32e23x_rcu.c:1043:37
	ldr	r0, [r3, #44]
.Ltmp265:
	.loc	4 1043 12 is_stmt 0     @ ../Basic/Source/gd32e23x_rcu.c:1043:12
	lsls	r0, r0, #30
	beq	.LBB38_17
.Ltmp266:
@ %bb.22:
	@DEBUG_VALUE: rcu_clock_freq_get:apb2_freq <- $r1
	@DEBUG_VALUE: rcu_clock_freq_get:ahb_freq <- $r5
	@DEBUG_VALUE: rcu_clock_freq_get:cksys_freq <- $r4
	@DEBUG_VALUE: rcu_clock_freq_get:adcps <- 0
	@DEBUG_VALUE: rcu_clock_freq_get:adcps2 <- 0
	@DEBUG_VALUE: rcu_clock_freq_get:ck_freq <- 0
	@DEBUG_VALUE: rcu_clock_freq_get:apb1_freq <- 0
	@DEBUG_VALUE: rcu_clock_freq_get:adc_freq <- 0
	@DEBUG_VALUE: rcu_clock_freq_get:usart_freq <- 0
	@DEBUG_VALUE: rcu_clock_freq_get:idx <- 0
	@DEBUG_VALUE: rcu_clock_freq_get:clock <- $r2
	.loc	4 1045 42 is_stmt 1     @ ../Basic/Source/gd32e23x_rcu.c:1045:42
	ldr	r0, [r3, #44]
	movs	r2, #3
.Ltmp267:
	.loc	4 1045 51 is_stmt 0     @ ../Basic/Source/gd32e23x_rcu.c:1045:51
	ands	r0, r2
.Ltmp268:
	.loc	4 1045 18               @ ../Basic/Source/gd32e23x_rcu.c:1045:18
	cmp	r0, #1
.Ltmp269:
	.loc	4 0 0                   @ ../Basic/Source/gd32e23x_rcu.c:0:0
	mov	r1, r4
.Ltmp270:
	.loc	4 1045 18               @ ../Basic/Source/gd32e23x_rcu.c:1045:18
	beq	.LBB38_17
.Ltmp271:
@ %bb.23:
	@DEBUG_VALUE: rcu_clock_freq_get:ahb_freq <- $r5
	@DEBUG_VALUE: rcu_clock_freq_get:cksys_freq <- $r4
	@DEBUG_VALUE: rcu_clock_freq_get:adcps <- 0
	@DEBUG_VALUE: rcu_clock_freq_get:adcps2 <- 0
	@DEBUG_VALUE: rcu_clock_freq_get:ck_freq <- 0
	@DEBUG_VALUE: rcu_clock_freq_get:apb1_freq <- 0
	@DEBUG_VALUE: rcu_clock_freq_get:adc_freq <- 0
	@DEBUG_VALUE: rcu_clock_freq_get:usart_freq <- 0
	@DEBUG_VALUE: rcu_clock_freq_get:idx <- 0
	.loc	4 1047 42 is_stmt 1     @ ../Basic/Source/gd32e23x_rcu.c:1047:42
	ldr	r0, [r3, #44]
	.loc	4 1047 51 is_stmt 0     @ ../Basic/Source/gd32e23x_rcu.c:1047:51
	ands	r0, r2
	movw	r1, #32768
.Ltmp272:
	.loc	4 1047 18               @ ../Basic/Source/gd32e23x_rcu.c:1047:18
	cmp	r0, #2
	beq	.LBB38_17
.Ltmp273:
@ %bb.24:
	@DEBUG_VALUE: rcu_clock_freq_get:ahb_freq <- $r5
	@DEBUG_VALUE: rcu_clock_freq_get:cksys_freq <- $r4
	@DEBUG_VALUE: rcu_clock_freq_get:adcps <- 0
	@DEBUG_VALUE: rcu_clock_freq_get:adcps2 <- 0
	@DEBUG_VALUE: rcu_clock_freq_get:ck_freq <- 0
	@DEBUG_VALUE: rcu_clock_freq_get:apb1_freq <- 0
	@DEBUG_VALUE: rcu_clock_freq_get:adc_freq <- 0
	@DEBUG_VALUE: rcu_clock_freq_get:usart_freq <- 0
	@DEBUG_VALUE: rcu_clock_freq_get:idx <- 0
	.loc	4 1049 42 is_stmt 1     @ ../Basic/Source/gd32e23x_rcu.c:1049:42
	ldr	r0, [r3, #44]
	.loc	4 1049 51 is_stmt 0     @ ../Basic/Source/gd32e23x_rcu.c:1049:51
	ands	r0, r2
.Ltmp274:
	.loc	4 1049 18               @ ../Basic/Source/gd32e23x_rcu.c:1049:18
	cmp	r0, #3
	ldr	r0, __arm_cp.38_1
	beq	.LBB38_26
.Ltmp275:
@ %bb.25:
	@DEBUG_VALUE: rcu_clock_freq_get:ahb_freq <- $r5
	@DEBUG_VALUE: rcu_clock_freq_get:cksys_freq <- $r4
	@DEBUG_VALUE: rcu_clock_freq_get:adcps <- 0
	@DEBUG_VALUE: rcu_clock_freq_get:adcps2 <- 0
	@DEBUG_VALUE: rcu_clock_freq_get:ck_freq <- 0
	@DEBUG_VALUE: rcu_clock_freq_get:apb1_freq <- 0
	@DEBUG_VALUE: rcu_clock_freq_get:adc_freq <- 0
	@DEBUG_VALUE: rcu_clock_freq_get:usart_freq <- 0
	@DEBUG_VALUE: rcu_clock_freq_get:idx <- 0
	.loc	4 0 18                  @ ../Basic/Source/gd32e23x_rcu.c:0:18
	movs	r0, #0
.Ltmp276:
.LBB38_26:
	@DEBUG_VALUE: rcu_clock_freq_get:ahb_freq <- $r5
	@DEBUG_VALUE: rcu_clock_freq_get:cksys_freq <- $r4
	@DEBUG_VALUE: rcu_clock_freq_get:adcps <- 0
	@DEBUG_VALUE: rcu_clock_freq_get:adcps2 <- 0
	@DEBUG_VALUE: rcu_clock_freq_get:ck_freq <- 0
	@DEBUG_VALUE: rcu_clock_freq_get:apb1_freq <- 0
	@DEBUG_VALUE: rcu_clock_freq_get:adc_freq <- 0
	@DEBUG_VALUE: rcu_clock_freq_get:usart_freq <- 0
	@DEBUG_VALUE: rcu_clock_freq_get:idx <- 0
	.loc	4 1049 18               @ ../Basic/Source/gd32e23x_rcu.c:1049:18
	pop	{r3, r4, r5, r6, r7, pc}
.Ltmp277:
.LBB38_27:
	@DEBUG_VALUE: rcu_clock_freq_get:apb2_freq <- $r1
	@DEBUG_VALUE: rcu_clock_freq_get:ahb_freq <- $r5
	@DEBUG_VALUE: rcu_clock_freq_get:cksys_freq <- $r4
	@DEBUG_VALUE: rcu_clock_freq_get:adcps <- 0
	@DEBUG_VALUE: rcu_clock_freq_get:adcps2 <- 0
	@DEBUG_VALUE: rcu_clock_freq_get:ck_freq <- 0
	@DEBUG_VALUE: rcu_clock_freq_get:apb1_freq <- 0
	@DEBUG_VALUE: rcu_clock_freq_get:adc_freq <- 0
	@DEBUG_VALUE: rcu_clock_freq_get:usart_freq <- 0
	@DEBUG_VALUE: rcu_clock_freq_get:idx <- 0
	@DEBUG_VALUE: rcu_clock_freq_get:clock <- $r2
	.loc	4 1004 21 is_stmt 1     @ ../Basic/Source/gd32e23x_rcu.c:1004:21
	ldr	r2, [r3]
.Ltmp278:
	.loc	4 1005 22               @ ../Basic/Source/gd32e23x_rcu.c:1005:22
	ldr	r0, [r3, #44]
.Ltmp279:
	@DEBUG_VALUE: rcu_clock_freq_get:adcps2 <- [DW_OP_constu 31, DW_OP_shr, DW_OP_stack_value] $r0
	.loc	4 1004 21               @ ../Basic/Source/gd32e23x_rcu.c:1004:21
	lsls	r2, r2, #16
	lsrs	r2, r2, #30
.Ltmp280:
	@DEBUG_VALUE: rcu_clock_freq_get:adcps <- $r2
	.loc	4 0 21 is_stmt 0        @ ../Basic/Source/gd32e23x_rcu.c:0:21
	lsls	r3, r2, #2
	adr	r4, .LJTI38_1
.Ltmp281:
	adds	r3, r4, r3
	mov	pc, r3
.Ltmp282:
@ %bb.28:
	.p2align	2
.LJTI38_1:
	b.w	.LBB38_29
	b.w	.LBB38_32
	b.w	.LBB38_34
	b.w	.LBB38_36
.LBB38_29:
.Ltmp283:
	@DEBUG_VALUE: rcu_clock_freq_get:adcps <- $r2
	@DEBUG_VALUE: rcu_clock_freq_get:adcps2 <- [DW_OP_constu 31, DW_OP_shr, DW_OP_stack_value] $r0
	@DEBUG_VALUE: rcu_clock_freq_get:apb2_freq <- $r1
	@DEBUG_VALUE: rcu_clock_freq_get:ahb_freq <- $r5
	@DEBUG_VALUE: rcu_clock_freq_get:ck_freq <- 0
	@DEBUG_VALUE: rcu_clock_freq_get:apb1_freq <- 0
	@DEBUG_VALUE: rcu_clock_freq_get:adc_freq <- 0
	@DEBUG_VALUE: rcu_clock_freq_get:usart_freq <- 0
	@DEBUG_VALUE: rcu_clock_freq_get:idx <- 0
	@DEBUG_VALUE: rcu_clock_freq_get:adcps2 <- [DW_OP_constu 31, DW_OP_shr, DW_OP_stack_value] $r0
	.loc	4 1008 20 is_stmt 1     @ ../Basic/Source/gd32e23x_rcu.c:1008:20
	cmp	r0, #0
	bmi	.LBB38_38
.Ltmp284:
@ %bb.30:
	@DEBUG_VALUE: rcu_clock_freq_get:adcps <- $r2
	@DEBUG_VALUE: rcu_clock_freq_get:adcps2 <- [DW_OP_constu 31, DW_OP_shr, DW_OP_stack_value] $r0
	@DEBUG_VALUE: rcu_clock_freq_get:apb2_freq <- $r1
	@DEBUG_VALUE: rcu_clock_freq_get:ahb_freq <- $r5
	@DEBUG_VALUE: rcu_clock_freq_get:ck_freq <- 0
	@DEBUG_VALUE: rcu_clock_freq_get:apb1_freq <- 0
	@DEBUG_VALUE: rcu_clock_freq_get:adc_freq <- 0
	@DEBUG_VALUE: rcu_clock_freq_get:usart_freq <- 0
	@DEBUG_VALUE: rcu_clock_freq_get:idx <- 0
	.loc	4 1009 41               @ ../Basic/Source/gd32e23x_rcu.c:1009:41
	lsrs	r1, r1, #1
.Ltmp285:
	@DEBUG_VALUE: rcu_clock_freq_get:adc_freq <- $r1
	.loc	4 0 41 is_stmt 0        @ ../Basic/Source/gd32e23x_rcu.c:0:41
	b	.LBB38_17
.Ltmp286:
.LBB38_31:
	@DEBUG_VALUE: rcu_clock_freq_get:apb2_freq <- $r1
	@DEBUG_VALUE: rcu_clock_freq_get:ahb_freq <- $r5
	@DEBUG_VALUE: rcu_clock_freq_get:cksys_freq <- $r4
	@DEBUG_VALUE: rcu_clock_freq_get:adcps <- 0
	@DEBUG_VALUE: rcu_clock_freq_get:adcps2 <- 0
	@DEBUG_VALUE: rcu_clock_freq_get:ck_freq <- 0
	@DEBUG_VALUE: rcu_clock_freq_get:apb1_freq <- 0
	@DEBUG_VALUE: rcu_clock_freq_get:adc_freq <- 0
	@DEBUG_VALUE: rcu_clock_freq_get:usart_freq <- 0
	@DEBUG_VALUE: rcu_clock_freq_get:idx <- 0
	@DEBUG_VALUE: rcu_clock_freq_get:clock <- $r2
	ldr	r1, __arm_cp.38_5
.Ltmp287:
	b	.LBB38_17
.Ltmp288:
.LBB38_32:
	@DEBUG_VALUE: rcu_clock_freq_get:adcps <- $r2
	@DEBUG_VALUE: rcu_clock_freq_get:adcps2 <- [DW_OP_constu 31, DW_OP_shr, DW_OP_stack_value] $r0
	@DEBUG_VALUE: rcu_clock_freq_get:apb2_freq <- $r1
	@DEBUG_VALUE: rcu_clock_freq_get:ahb_freq <- $r5
	@DEBUG_VALUE: rcu_clock_freq_get:ck_freq <- 0
	@DEBUG_VALUE: rcu_clock_freq_get:apb1_freq <- 0
	@DEBUG_VALUE: rcu_clock_freq_get:adc_freq <- 0
	@DEBUG_VALUE: rcu_clock_freq_get:usart_freq <- 0
	@DEBUG_VALUE: rcu_clock_freq_get:idx <- 0
	.loc	4 1015 20 is_stmt 1     @ ../Basic/Source/gd32e23x_rcu.c:1015:20
	cmp	r0, #0
	bmi	.LBB38_39
.Ltmp289:
@ %bb.33:
	@DEBUG_VALUE: rcu_clock_freq_get:adcps <- $r2
	@DEBUG_VALUE: rcu_clock_freq_get:adcps2 <- [DW_OP_constu 31, DW_OP_shr, DW_OP_stack_value] $r0
	@DEBUG_VALUE: rcu_clock_freq_get:apb2_freq <- $r1
	@DEBUG_VALUE: rcu_clock_freq_get:ahb_freq <- $r5
	@DEBUG_VALUE: rcu_clock_freq_get:ck_freq <- 0
	@DEBUG_VALUE: rcu_clock_freq_get:apb1_freq <- 0
	@DEBUG_VALUE: rcu_clock_freq_get:adc_freq <- 0
	@DEBUG_VALUE: rcu_clock_freq_get:usart_freq <- 0
	@DEBUG_VALUE: rcu_clock_freq_get:idx <- 0
	.loc	4 1016 41               @ ../Basic/Source/gd32e23x_rcu.c:1016:41
	lsrs	r1, r1, #2
.Ltmp290:
	@DEBUG_VALUE: rcu_clock_freq_get:adc_freq <- $r1
	.loc	4 0 41 is_stmt 0        @ ../Basic/Source/gd32e23x_rcu.c:0:41
	b	.LBB38_17
.Ltmp291:
.LBB38_34:
	@DEBUG_VALUE: rcu_clock_freq_get:adcps <- $r2
	@DEBUG_VALUE: rcu_clock_freq_get:adcps2 <- [DW_OP_constu 31, DW_OP_shr, DW_OP_stack_value] $r0
	@DEBUG_VALUE: rcu_clock_freq_get:apb2_freq <- $r1
	@DEBUG_VALUE: rcu_clock_freq_get:ahb_freq <- $r5
	@DEBUG_VALUE: rcu_clock_freq_get:ck_freq <- 0
	@DEBUG_VALUE: rcu_clock_freq_get:apb1_freq <- 0
	@DEBUG_VALUE: rcu_clock_freq_get:adc_freq <- 0
	@DEBUG_VALUE: rcu_clock_freq_get:usart_freq <- 0
	@DEBUG_VALUE: rcu_clock_freq_get:idx <- 0
	.loc	4 1022 20 is_stmt 1     @ ../Basic/Source/gd32e23x_rcu.c:1022:20
	cmp	r0, #0
	bmi	.LBB38_40
.Ltmp292:
@ %bb.35:
	@DEBUG_VALUE: rcu_clock_freq_get:adcps <- $r2
	@DEBUG_VALUE: rcu_clock_freq_get:adcps2 <- [DW_OP_constu 31, DW_OP_shr, DW_OP_stack_value] $r0
	@DEBUG_VALUE: rcu_clock_freq_get:apb2_freq <- $r1
	@DEBUG_VALUE: rcu_clock_freq_get:ahb_freq <- $r5
	@DEBUG_VALUE: rcu_clock_freq_get:ck_freq <- 0
	@DEBUG_VALUE: rcu_clock_freq_get:apb1_freq <- 0
	@DEBUG_VALUE: rcu_clock_freq_get:adc_freq <- 0
	@DEBUG_VALUE: rcu_clock_freq_get:usart_freq <- 0
	@DEBUG_VALUE: rcu_clock_freq_get:idx <- 0
	.loc	4 0 20 is_stmt 0        @ ../Basic/Source/gd32e23x_rcu.c:0:20
	movs	r0, #6
.Ltmp293:
	.loc	4 1023 41 is_stmt 1     @ ../Basic/Source/gd32e23x_rcu.c:1023:41
	udiv	r1, r1, r0
.Ltmp294:
	@DEBUG_VALUE: rcu_clock_freq_get:adc_freq <- $r1
	.loc	4 0 41 is_stmt 0        @ ../Basic/Source/gd32e23x_rcu.c:0:41
	b	.LBB38_17
.Ltmp295:
.LBB38_36:
	@DEBUG_VALUE: rcu_clock_freq_get:adcps <- $r2
	@DEBUG_VALUE: rcu_clock_freq_get:adcps2 <- [DW_OP_constu 31, DW_OP_shr, DW_OP_stack_value] $r0
	@DEBUG_VALUE: rcu_clock_freq_get:apb2_freq <- $r1
	@DEBUG_VALUE: rcu_clock_freq_get:ahb_freq <- $r5
	@DEBUG_VALUE: rcu_clock_freq_get:ck_freq <- 0
	@DEBUG_VALUE: rcu_clock_freq_get:apb1_freq <- 0
	@DEBUG_VALUE: rcu_clock_freq_get:adc_freq <- 0
	@DEBUG_VALUE: rcu_clock_freq_get:usart_freq <- 0
	@DEBUG_VALUE: rcu_clock_freq_get:idx <- 0
	.loc	4 1029 20 is_stmt 1     @ ../Basic/Source/gd32e23x_rcu.c:1029:20
	cmp	r0, #0
	bmi	.LBB38_41
.Ltmp296:
@ %bb.37:
	@DEBUG_VALUE: rcu_clock_freq_get:adcps <- $r2
	@DEBUG_VALUE: rcu_clock_freq_get:adcps2 <- [DW_OP_constu 31, DW_OP_shr, DW_OP_stack_value] $r0
	@DEBUG_VALUE: rcu_clock_freq_get:apb2_freq <- $r1
	@DEBUG_VALUE: rcu_clock_freq_get:ahb_freq <- $r5
	@DEBUG_VALUE: rcu_clock_freq_get:ck_freq <- 0
	@DEBUG_VALUE: rcu_clock_freq_get:apb1_freq <- 0
	@DEBUG_VALUE: rcu_clock_freq_get:adc_freq <- 0
	@DEBUG_VALUE: rcu_clock_freq_get:usart_freq <- 0
	@DEBUG_VALUE: rcu_clock_freq_get:idx <- 0
	.loc	4 1030 41               @ ../Basic/Source/gd32e23x_rcu.c:1030:41
	lsrs	r1, r1, #3
.Ltmp297:
	@DEBUG_VALUE: rcu_clock_freq_get:adc_freq <- $r1
	.loc	4 0 41 is_stmt 0        @ ../Basic/Source/gd32e23x_rcu.c:0:41
	b	.LBB38_17
.Ltmp298:
.LBB38_38:
	@DEBUG_VALUE: rcu_clock_freq_get:adcps <- $r2
	@DEBUG_VALUE: rcu_clock_freq_get:adcps2 <- [DW_OP_constu 31, DW_OP_shr, DW_OP_stack_value] $r0
	@DEBUG_VALUE: rcu_clock_freq_get:apb2_freq <- $r1
	@DEBUG_VALUE: rcu_clock_freq_get:ahb_freq <- $r5
	@DEBUG_VALUE: rcu_clock_freq_get:ck_freq <- 0
	@DEBUG_VALUE: rcu_clock_freq_get:apb1_freq <- 0
	@DEBUG_VALUE: rcu_clock_freq_get:adc_freq <- 0
	@DEBUG_VALUE: rcu_clock_freq_get:usart_freq <- 0
	@DEBUG_VALUE: rcu_clock_freq_get:idx <- 0
	movs	r0, #3
.Ltmp299:
	b	.LBB38_42
.Ltmp300:
.LBB38_39:
	@DEBUG_VALUE: rcu_clock_freq_get:adcps <- $r2
	@DEBUG_VALUE: rcu_clock_freq_get:adcps2 <- [DW_OP_constu 31, DW_OP_shr, DW_OP_stack_value] $r0
	@DEBUG_VALUE: rcu_clock_freq_get:apb2_freq <- $r1
	@DEBUG_VALUE: rcu_clock_freq_get:ahb_freq <- $r5
	@DEBUG_VALUE: rcu_clock_freq_get:ck_freq <- 0
	@DEBUG_VALUE: rcu_clock_freq_get:apb1_freq <- 0
	@DEBUG_VALUE: rcu_clock_freq_get:adc_freq <- 0
	@DEBUG_VALUE: rcu_clock_freq_get:usart_freq <- 0
	@DEBUG_VALUE: rcu_clock_freq_get:idx <- 0
	movs	r0, #5
.Ltmp301:
	b	.LBB38_42
.Ltmp302:
.LBB38_40:
	@DEBUG_VALUE: rcu_clock_freq_get:adcps <- $r2
	@DEBUG_VALUE: rcu_clock_freq_get:adcps2 <- [DW_OP_constu 31, DW_OP_shr, DW_OP_stack_value] $r0
	@DEBUG_VALUE: rcu_clock_freq_get:apb2_freq <- $r1
	@DEBUG_VALUE: rcu_clock_freq_get:ahb_freq <- $r5
	@DEBUG_VALUE: rcu_clock_freq_get:ck_freq <- 0
	@DEBUG_VALUE: rcu_clock_freq_get:apb1_freq <- 0
	@DEBUG_VALUE: rcu_clock_freq_get:adc_freq <- 0
	@DEBUG_VALUE: rcu_clock_freq_get:usart_freq <- 0
	@DEBUG_VALUE: rcu_clock_freq_get:idx <- 0
	movs	r0, #7
.Ltmp303:
	b	.LBB38_42
.Ltmp304:
.LBB38_41:
	@DEBUG_VALUE: rcu_clock_freq_get:adcps <- $r2
	@DEBUG_VALUE: rcu_clock_freq_get:adcps2 <- [DW_OP_constu 31, DW_OP_shr, DW_OP_stack_value] $r0
	@DEBUG_VALUE: rcu_clock_freq_get:apb2_freq <- $r1
	@DEBUG_VALUE: rcu_clock_freq_get:ahb_freq <- $r5
	@DEBUG_VALUE: rcu_clock_freq_get:ck_freq <- 0
	@DEBUG_VALUE: rcu_clock_freq_get:apb1_freq <- 0
	@DEBUG_VALUE: rcu_clock_freq_get:adc_freq <- 0
	@DEBUG_VALUE: rcu_clock_freq_get:usart_freq <- 0
	@DEBUG_VALUE: rcu_clock_freq_get:idx <- 0
	movs	r0, #9
.Ltmp305:
.LBB38_42:
	@DEBUG_VALUE: rcu_clock_freq_get:adcps <- $r2
	@DEBUG_VALUE: rcu_clock_freq_get:apb2_freq <- $r1
	@DEBUG_VALUE: rcu_clock_freq_get:ahb_freq <- $r5
	@DEBUG_VALUE: rcu_clock_freq_get:ck_freq <- 0
	@DEBUG_VALUE: rcu_clock_freq_get:apb1_freq <- 0
	@DEBUG_VALUE: rcu_clock_freq_get:adc_freq <- 0
	@DEBUG_VALUE: rcu_clock_freq_get:usart_freq <- 0
	@DEBUG_VALUE: rcu_clock_freq_get:idx <- 0
	udiv	r1, r5, r0
.Ltmp306:
	@DEBUG_VALUE: rcu_clock_freq_get:adc_freq <- $r1
	b	.LBB38_17
.Ltmp307:
	.p2align	2
@ %bb.43:
__arm_cp.38_0:
	.long	1073876996              @ 0x40021004
.Lcpi_end47:
	.size	__arm_cp.38_0, .Lcpi_end47-__arm_cp.38_0
__arm_cp.38_1:
	.long	8000000                 @ 0x7a1200
.Lcpi_end48:
	.size	__arm_cp.38_1, .Lcpi_end48-__arm_cp.38_1
__arm_cp.38_2:
	.long	4000000                 @ 0x3d0900
.Lcpi_end49:
	.size	__arm_cp.38_2, .Lcpi_end49-__arm_cp.38_2
.LCPI38_3:
.L__const.rcu_clock_freq_get.ahb_exp:
	.ascii	"\000\000\000\000\000\000\000\000\001\002\003\004\006\007\b\t"
__arm_cp.38_4:
	.long	.L__const.rcu_clock_freq_get.apb2_exp
.Lcpi_end50:
	.size	__arm_cp.38_4, .Lcpi_end50-__arm_cp.38_4
__arm_cp.38_5:
	.long	14000000                @ 0xd59f80
.Lcpi_end51:
	.size	__arm_cp.38_5, .Lcpi_end51-__arm_cp.38_5
__arm_cp.38_6:
	.long	28000000                @ 0x1ab3f00
.Lcpi_end52:
	.size	__arm_cp.38_6, .Lcpi_end52-__arm_cp.38_6
.Lfunc_end38:
	.size	rcu_clock_freq_get, .Lfunc_end38-rcu_clock_freq_get
	.cfi_endproc
	.cantunwind
	.fnend
                                        @ -- End function
	.type	.L__const.rcu_clock_freq_get.apb2_exp,%object @ @__const.rcu_clock_freq_get.apb2_exp
	.section	.rodata.cst8,"aM",%progbits,8
.L__const.rcu_clock_freq_get.apb2_exp:
	.ascii	"\000\000\000\000\001\002\003\004"
	.size	.L__const.rcu_clock_freq_get.apb2_exp, 8

	.section	".note.GNU-stack","",%progbits
	.eabi_attribute	30, 4	@ Tag_ABI_optimization_goals
	.ARM_attribute	16, 1	@ Tag_AV_eba