	.text
	.syntax unified
	.eabi_attribute	67, "2.09"	@ Tag_conformance
	.cpu	cortex-m23
	.eabi_attribute	6, 16	@ Tag_CPU_arch
	.eabi_attribute	7, 77	@ Tag_CPU_arch_profile
	.eabi_attribute	8, 0	@ Tag_ARM_ISA_use
	.eabi_attribute	9, 3	@ Tag_THUMB_ISA_use
	.eabi_attribute	34, 0	@ Tag_CPU_unaligned_access
	.eabi_attribute	17, 1	@ Tag_ABI_PCS_GOT_use
	.eabi_attribute	20, 2	@ Tag_ABI_FP_denormal
	.eabi_attribute	21, 0	@ Tag_ABI_FP_exceptions
	.eabi_attribute	23, 1	@ Tag_ABI_FP_number_model
	.eabi_attribute	24, 1	@ Tag_ABI_align_needed
	.eabi_attribute	25, 1	@ Tag_ABI_align_preserved
	.eabi_attribute	38, 1	@ Tag_ABI_FP_16bit_format
	.eabi_attribute	18, 2	@ Tag_ABI_PCS_wchar_t
	.eabi_attribute	26, 1	@ Tag_ABI_enum_size
	.eabi_attribute	14, 0	@ Tag_ABI_PCS_R9_use
	.file	"gd32e23x_usart.c"
	.file	1 "C:\\Users\\13728\\Desktop\\general igniter\\Project" "../Basic/Include\\gd32e23x_rcu.h"
	.file	2 "C:\\Users\\13728\\Desktop\\general igniter\\Project" "../Basic/Include\\gd32e23x_usart.h"
	.file	3 "C:\\Users\\13728\\Desktop\\general igniter\\Project" "../CMSIS/Include\\gd32e23x.h"
	.file	4 "D:\\ProgramFile\\Keil5\\ARM\\ARMCLANG\\Bin\\..\\include" "stdint.h"
	.section	.text.usart_deinit,"ax",%progbits
	.hidden	usart_deinit            @ -- Begin function usart_deinit
	.globl	usart_deinit
	.p2align	2
	.type	usart_deinit,%function
	.code	16                      @ @usart_deinit
	.thumb_func
usart_deinit:
.Lfunc_begin0:
	.file	5 "C:\\Users\\13728\\Desktop\\general igniter\\Project" "../Basic/Source/gd32e23x_usart.c"
	.loc	5 46 0                  @ ../Basic/Source/gd32e23x_usart.c:46:0
	.fnstart
	.cfi_sections .debug_frame
	.cfi_startproc
@ %bb.0:
	@DEBUG_VALUE: usart_deinit:usart_periph <- $r0
	@DEBUG_VALUE: usart_deinit:usart_periph <- $r0
	.save	{r4, lr}
	push	{r4, lr}
	.cfi_def_cfa_offset 8
	.cfi_offset lr, -4
	.cfi_offset r4, -8
	ldr	r1, __arm_cp.0_1
.Ltmp0:
	.loc	5 47 5 prologue_end     @ ../Basic/Source/gd32e23x_usart.c:47:5
	cmp	r0, r1
	beq	.LBB0_3
.Ltmp1:
@ %bb.1:
	@DEBUG_VALUE: usart_deinit:usart_periph <- $r0
	.loc	5 0 5 is_stmt 0         @ ../Basic/Source/gd32e23x_usart.c:0:5
	ldr	r1, __arm_cp.0_2
	.loc	5 47 5                  @ ../Basic/Source/gd32e23x_usart.c:47:5
	cmp	r0, r1
	bne	.LBB0_5
.Ltmp2:
@ %bb.2:
	@DEBUG_VALUE: usart_deinit:usart_periph <- $r0
	.loc	5 0 5                   @ ../Basic/Source/gd32e23x_usart.c:0:5
	ldr	r4, __arm_cp.0_3
	b	.LBB0_4
.Ltmp3:
.LBB0_3:
	@DEBUG_VALUE: usart_deinit:usart_periph <- $r0
	ldr	r4, __arm_cp.0_0
.Ltmp4:
.LBB0_4:
	@DEBUG_VALUE: usart_deinit:usart_periph <- $r0
	mov	r0, r4
.Ltmp5:
	bl	rcu_periph_reset_enable
	mov	r0, r4
	pop	{r4}
	pop	{r1}
	mov	lr, r1
	b	rcu_periph_reset_disable
.Ltmp6:
.LBB0_5:
	@DEBUG_VALUE: usart_deinit:usart_periph <- $r0
	.loc	5 61 1 is_stmt 1        @ ../Basic/Source/gd32e23x_usart.c:61:1
	pop	{r4, pc}
.Ltmp7:
	.p2align	2
@ %bb.6:
	.loc	5 0 1 is_stmt 0         @ ../Basic/Source/gd32e23x_usart.c:0:1
__arm_cp.0_0:
	.long	782                     @ 0x30e
.Lcpi_end0:
	.size	__arm_cp.0_0, .Lcpi_end0-__arm_cp.0_0
__arm_cp.0_1:
	.long	1073821696              @ 0x40013800
.Lcpi_end1:
	.size	__arm_cp.0_1, .Lcpi_end1-__arm_cp.0_1
__arm_cp.0_2:
	.long	1073759232              @ 0x40004400
.Lcpi_end2:
	.size	__arm_cp.0_2, .Lcpi_end2-__arm_cp.0_2
__arm_cp.0_3:
	.long	1041                    @ 0x411
.Lcpi_end3:
	.size	__arm_cp.0_3, .Lcpi_end3-__arm_cp.0_3
.Lfunc_end0:
	.size	usart_deinit, .Lfunc_end0-usart_deinit
	.cfi_endproc
	.cantunwind
	.fnend
                                        @ -- End function
	.section	.text.usart_baudrate_set,"ax",%progbits
	.hidden	usart_baudrate_set      @ -- Begin function usart_baudrate_set
	.globl	usart_baudrate_set
	.p2align	2
	.type	usart_baudrate_set,%function
	.code	16                      @ @usart_baudrate_set
	.thumb_func
usart_baudrate_set:
.Lfunc_begin1:
	.loc	5 71 0 is_stmt 1        @ ../Basic/Source/gd32e23x_usart.c:71:0
	.fnstart
	.cfi_startproc
@ %bb.0:
	@DEBUG_VALUE: usart_baudrate_set:usart_periph <- $r0
	@DEBUG_VALUE: usart_baudrate_set:baudval <- $r1
	.save	{r4, r5, r7, lr}
	push	{r4, r5, r7, lr}
	.cfi_def_cfa_offset 16
	.cfi_offset lr, -4
	.cfi_offset r7, -8
	.cfi_offset r5, -12
	.cfi_offset r4, -16
	mov	r5, r1
.Ltmp8:
	@DEBUG_VALUE: usart_baudrate_set:baudval <- $r5
	mov	r4, r0
.Ltmp9:
	@DEBUG_VALUE: usart_baudrate_set:udiv <- 0
	@DEBUG_VALUE: usart_baudrate_set:fradiv <- 0
	@DEBUG_VALUE: usart_baudrate_set:intdiv <- 0
	@DEBUG_VALUE: usart_baudrate_set:uclk <- 0
	@DEBUG_VALUE: usart_baudrate_set:usart_periph <- $r4
	ldr	r0, __arm_cp.1_0
.Ltmp10:
	.loc	5 73 5 prologue_end     @ ../Basic/Source/gd32e23x_usart.c:73:5
	cmp	r4, r0
	beq	.LBB1_3
.Ltmp11:
@ %bb.1:
	@DEBUG_VALUE: usart_baudrate_set:usart_periph <- $r4
	@DEBUG_VALUE: usart_baudrate_set:uclk <- 0
	@DEBUG_VALUE: usart_baudrate_set:intdiv <- 0
	@DEBUG_VALUE: usart_baudrate_set:fradiv <- 0
	@DEBUG_VALUE: usart_baudrate_set:udiv <- 0
	@DEBUG_VALUE: usart_baudrate_set:baudval <- $r5
	.loc	5 0 5 is_stmt 0         @ ../Basic/Source/gd32e23x_usart.c:0:5
	ldr	r0, __arm_cp.1_1
	.loc	5 73 5                  @ ../Basic/Source/gd32e23x_usart.c:73:5
	cmp	r4, r0
	bne	.LBB1_5
.Ltmp12:
@ %bb.2:
	@DEBUG_VALUE: usart_baudrate_set:usart_periph <- $r4
	@DEBUG_VALUE: usart_baudrate_set:uclk <- 0
	@DEBUG_VALUE: usart_baudrate_set:intdiv <- 0
	@DEBUG_VALUE: usart_baudrate_set:fradiv <- 0
	@DEBUG_VALUE: usart_baudrate_set:udiv <- 0
	@DEBUG_VALUE: usart_baudrate_set:baudval <- $r5
	.loc	5 0 5                   @ ../Basic/Source/gd32e23x_usart.c:0:5
	movs	r0, #2
	b	.LBB1_4
.Ltmp13:
.LBB1_3:
	@DEBUG_VALUE: usart_baudrate_set:usart_periph <- $r4
	@DEBUG_VALUE: usart_baudrate_set:uclk <- 0
	@DEBUG_VALUE: usart_baudrate_set:intdiv <- 0
	@DEBUG_VALUE: usart_baudrate_set:fradiv <- 0
	@DEBUG_VALUE: usart_baudrate_set:udiv <- 0
	@DEBUG_VALUE: usart_baudrate_set:baudval <- $r5
	movs	r0, #5
.Ltmp14:
.LBB1_4:
	@DEBUG_VALUE: usart_baudrate_set:usart_periph <- $r4
	@DEBUG_VALUE: usart_baudrate_set:uclk <- 0
	@DEBUG_VALUE: usart_baudrate_set:intdiv <- 0
	@DEBUG_VALUE: usart_baudrate_set:fradiv <- 0
	@DEBUG_VALUE: usart_baudrate_set:udiv <- 0
	@DEBUG_VALUE: usart_baudrate_set:baudval <- $r5
	bl	rcu_clock_freq_get
.Ltmp15:
	@DEBUG_VALUE: usart_baudrate_set:uclk <- $r0
	b	.LBB1_6
.Ltmp16:
.LBB1_5:
	@DEBUG_VALUE: usart_baudrate_set:usart_periph <- $r4
	@DEBUG_VALUE: usart_baudrate_set:uclk <- 0
	@DEBUG_VALUE: usart_baudrate_set:intdiv <- 0
	@DEBUG_VALUE: usart_baudrate_set:fradiv <- 0
	@DEBUG_VALUE: usart_baudrate_set:udiv <- 0
	@DEBUG_VALUE: usart_baudrate_set:baudval <- $r5
	movs	r0, #0
.Ltmp17:
.LBB1_6:
	@DEBUG_VALUE: usart_baudrate_set:usart_periph <- $r4
	@DEBUG_VALUE: usart_baudrate_set:intdiv <- 0
	@DEBUG_VALUE: usart_baudrate_set:fradiv <- 0
	@DEBUG_VALUE: usart_baudrate_set:udiv <- 0
	@DEBUG_VALUE: usart_baudrate_set:baudval <- $r5
	@DEBUG_VALUE: usart_baudrate_set:uclk <- $r0
	.loc	5 86 8 is_stmt 1        @ ../Basic/Source/gd32e23x_usart.c:86:8
	ldr	r1, [r4]
.Ltmp18:
	.loc	5 86 8 is_stmt 0        @ ../Basic/Source/gd32e23x_usart.c:86:8
	lsls	r1, r1, #16
	bmi	.LBB1_8
.Ltmp19:
@ %bb.7:
	@DEBUG_VALUE: usart_baudrate_set:uclk <- $r0
	@DEBUG_VALUE: usart_baudrate_set:usart_periph <- $r4
	@DEBUG_VALUE: usart_baudrate_set:intdiv <- 0
	@DEBUG_VALUE: usart_baudrate_set:fradiv <- 0
	@DEBUG_VALUE: usart_baudrate_set:udiv <- 0
	@DEBUG_VALUE: usart_baudrate_set:baudval <- $r5
	.loc	5 94 29 is_stmt 1       @ ../Basic/Source/gd32e23x_usart.c:94:29
	lsrs	r1, r5, #1
	.loc	5 94 21 is_stmt 0       @ ../Basic/Source/gd32e23x_usart.c:94:21
	adds	r0, r0, r1
.Ltmp20:
	.loc	5 94 33                 @ ../Basic/Source/gd32e23x_usart.c:94:33
	udiv	r0, r0, r5
.Ltmp21:
	@DEBUG_VALUE: usart_baudrate_set:fradiv <- [DW_OP_constu 15, DW_OP_and, DW_OP_stack_value] $r0
	@DEBUG_VALUE: usart_baudrate_set:intdiv <- [DW_OP_constu 65520, DW_OP_and, DW_OP_stack_value] $r0
	@DEBUG_VALUE: usart_baudrate_set:udiv <- $r0
	.loc	5 97 87 is_stmt 1       @ ../Basic/Source/gd32e23x_usart.c:97:87
	uxth	r0, r0
.Ltmp22:
	.loc	5 0 87 is_stmt 0        @ ../Basic/Source/gd32e23x_usart.c:0:87
	b	.LBB1_9
.Ltmp23:
.LBB1_8:
	@DEBUG_VALUE: usart_baudrate_set:uclk <- $r0
	@DEBUG_VALUE: usart_baudrate_set:usart_periph <- $r4
	@DEBUG_VALUE: usart_baudrate_set:intdiv <- 0
	@DEBUG_VALUE: usart_baudrate_set:fradiv <- 0
	@DEBUG_VALUE: usart_baudrate_set:udiv <- 0
	@DEBUG_VALUE: usart_baudrate_set:baudval <- $r5
	.loc	5 88 34 is_stmt 1       @ ../Basic/Source/gd32e23x_usart.c:88:34
	lsrs	r1, r5, #1
	.loc	5 88 20 is_stmt 0       @ ../Basic/Source/gd32e23x_usart.c:88:20
	lsls	r0, r0, #1
.Ltmp24:
	.loc	5 88 26                 @ ../Basic/Source/gd32e23x_usart.c:88:26
	adds	r0, r0, r1
	.loc	5 88 38                 @ ../Basic/Source/gd32e23x_usart.c:88:38
	udiv	r0, r0, r5
.Ltmp25:
	@DEBUG_VALUE: usart_baudrate_set:udiv <- $r0
	.loc	5 0 38                  @ ../Basic/Source/gd32e23x_usart.c:0:38
	ldr	r1, __arm_cp.1_2
	.loc	5 89 23 is_stmt 1       @ ../Basic/Source/gd32e23x_usart.c:89:23
	ands	r1, r0
.Ltmp26:
	@DEBUG_VALUE: usart_baudrate_set:intdiv <- $r1
	.loc	5 90 29                 @ ../Basic/Source/gd32e23x_usart.c:90:29
	lsls	r0, r0, #28
.Ltmp27:
	lsrs	r0, r0, #29
.Ltmp28:
	@DEBUG_VALUE: usart_baudrate_set:fradiv <- $r0
	.loc	5 91 87                 @ ../Basic/Source/gd32e23x_usart.c:91:87
	adds	r0, r0, r1
.Ltmp29:
.LBB1_9:
	@DEBUG_VALUE: usart_baudrate_set:usart_periph <- $r4
	@DEBUG_VALUE: usart_baudrate_set:baudval <- $r5
	.loc	5 0 0 is_stmt 0         @ ../Basic/Source/gd32e23x_usart.c:0:0
	str	r0, [r4, #12]
.Ltmp30:
	.loc	5 99 1 is_stmt 1        @ ../Basic/Source/gd32e23x_usart.c:99:1
	pop	{r4, r5, r7, pc}
.Ltmp31:
	.p2align	2
@ %bb.10:
	.loc	5 0 1 is_stmt 0         @ ../Basic/Source/gd32e23x_usart.c:0:1
__arm_cp.1_0:
	.long	1073821696              @ 0x40013800
.Lcpi_end4:
	.size	__arm_cp.1_0, .Lcpi_end4-__arm_cp.1_0
__arm_cp.1_1:
	.long	1073759232              @ 0x40004400
.Lcpi_end5:
	.size	__arm_cp.1_1, .Lcpi_end5-__arm_cp.1_1
__arm_cp.1_2:
	.long	65520                   @ 0xfff0
.Lcpi_end6:
	.size	__arm_cp.1_2, .Lcpi_end6-__arm_cp.1_2
.Lfunc_end1:
	.size	usart_baudrate_set, .Lfunc_end1-usart_baudrate_set
	.cfi_endproc
	.cantunwind
	.fnend
                                        @ -- End function
	.section	.text.usart_parity_config,"ax",%progbits
	.hidden	usart_parity_config     @ -- Begin function usart_parity_config
	.globl	usart_parity_config
	.p2align	1
	.type	usart_parity_config,%function
	.code	16                      @ @usart_parity_config
	.thumb_func
usart_parity_config:
.Lfunc_begin2:
	.loc	5 113 0 is_stmt 1       @ ../Basic/Source/gd32e23x_usart.c:113:0
	.fnstart
	.cfi_startproc
@ %bb.0:
	@DEBUG_VALUE: usart_parity_config:usart_periph <- $r0
	@DEBUG_VALUE: usart_parity_config:usart_periph <- $r0
	@DEBUG_VALUE: usart_parity_config:paritycfg <- $r1
	@DEBUG_VALUE: usart_parity_config:paritycfg <- $r1
	.loc	5 115 30 prologue_end   @ ../Basic/Source/gd32e23x_usart.c:115:30
	ldr	r2, [r0]
	movs	r3, #1
	bics	r2, r3
	str	r2, [r0]
	.loc	5 117 30                @ ../Basic/Source/gd32e23x_usart.c:117:30
	ldr	r2, [r0]
	movw	r3, #1536
	bics	r2, r3
	str	r2, [r0]
	.loc	5 119 30                @ ../Basic/Source/gd32e23x_usart.c:119:30
	ldr	r2, [r0]
	orrs	r2, r1
	str	r2, [r0]
	.loc	5 120 1                 @ ../Basic/Source/gd32e23x_usart.c:120:1
	bx	lr
.Ltmp32:
.Lfunc_end2:
	.size	usart_parity_config, .Lfunc_end2-usart_parity_config
	.cfi_endproc
	.cantunwind
	.fnend
                                        @ -- End function
	.section	.text.usart_word_length_set,"ax",%progbits
	.hidden	usart_word_length_set   @ -- Begin function usart_word_length_set
	.globl	usart_word_length_set
	.p2align	1
	.type	usart_word_length_set,%function
	.code	16                      @ @usart_word_length_set
	.thumb_func
usart_word_length_set:
.Lfunc_begin3:
	.loc	5 133 0                 @ ../Basic/Source/gd32e23x_usart.c:133:0
	.fnstart
	.cfi_startproc
@ %bb.0:
	@DEBUG_VALUE: usart_word_length_set:usart_periph <- $r0
	@DEBUG_VALUE: usart_word_length_set:usart_periph <- $r0
	@DEBUG_VALUE: usart_word_length_set:wlen <- $r1
	@DEBUG_VALUE: usart_word_length_set:wlen <- $r1
	.loc	5 135 30 prologue_end   @ ../Basic/Source/gd32e23x_usart.c:135:30
	ldr	r2, [r0]
	movs	r3, #1
	bics	r2, r3
	str	r2, [r0]
	.loc	5 137 30                @ ../Basic/Source/gd32e23x_usart.c:137:30
	ldr	r2, [r0]
	movw	r3, #4096
	bics	r2, r3
	str	r2, [r0]
	.loc	5 139 30                @ ../Basic/Source/gd32e23x_usart.c:139:30
	ldr	r2, [r0]
	orrs	r2, r1
	str	r2, [r0]
	.loc	5 140 1                 @ ../Basic/Source/gd32e23x_usart.c:140:1
	bx	lr
.Ltmp33:
.Lfunc_end3:
	.size	usart_word_length_set, .Lfunc_end3-usart_word_length_set
	.cfi_endproc
	.cantunwind
	.fnend
                                        @ -- End function
	.section	.text.usart_stop_bit_set,"ax",%progbits
	.hidden	usart_stop_bit_set      @ -- Begin function usart_stop_bit_set
	.globl	usart_stop_bit_set
	.p2align	1
	.type	usart_stop_bit_set,%function
	.code	16                      @ @usart_stop_bit_set
	.thumb_func
usart_stop_bit_set:
.Lfunc_begin4:
	.loc	5 155 0                 @ ../Basic/Source/gd32e23x_usart.c:155:0
	.fnstart
	.cfi_startproc
@ %bb.0:
	@DEBUG_VALUE: usart_stop_bit_set:usart_periph <- $r0
	@DEBUG_VALUE: usart_stop_bit_set:usart_periph <- $r0
	@DEBUG_VALUE: usart_stop_bit_set:stblen <- $r1
	@DEBUG_VALUE: usart_stop_bit_set:stblen <- $r1
	.loc	5 157 30 prologue_end   @ ../Basic/Source/gd32e23x_usart.c:157:30
	ldr	r2, [r0]
	movs	r3, #1
	bics	r2, r3
	str	r2, [r0]
	.loc	5 159 30                @ ../Basic/Source/gd32e23x_usart.c:159:30
	ldr	r2, [r0, #4]
	movw	r3, #12288
	bics	r2, r3
	str	r2, [r0, #4]
	.loc	5 160 30                @ ../Basic/Source/gd32e23x_usart.c:160:30
	ldr	r2, [r0, #4]
	orrs	r2, r1
	str	r2, [r0, #4]
	.loc	5 161 1                 @ ../Basic/Source/gd32e23x_usart.c:161:1
	bx	lr
.Ltmp34:
.Lfunc_end4:
	.size	usart_stop_bit_set, .Lfunc_end4-usart_stop_bit_set
	.cfi_endproc
	.cantunwind
	.fnend
                                        @ -- End function
	.section	.text.usart_enable,"ax",%progbits
	.hidden	usart_enable            @ -- Begin function usart_enable
	.globl	usart_enable
	.p2align	1
	.type	usart_enable,%function
	.code	16                      @ @usart_enable
	.thumb_func
usart_enable:
.Lfunc_begin5:
	.loc	5 170 0                 @ ../Basic/Source/gd32e23x_usart.c:170:0
	.fnstart
	.cfi_startproc
@ %bb.0:
	@DEBUG_VALUE: usart_enable:usart_periph <- $r0
	@DEBUG_VALUE: usart_enable:usart_periph <- $r0
	.loc	5 171 30 prologue_end   @ ../Basic/Source/gd32e23x_usart.c:171:30
	ldr	r1, [r0]
	movs	r2, #1
	orrs	r2, r1
	str	r2, [r0]
	.loc	5 172 1                 @ ../Basic/Source/gd32e23x_usart.c:172:1
	bx	lr
.Ltmp35:
.Lfunc_end5:
	.size	usart_enable, .Lfunc_end5-usart_enable
	.cfi_endproc
	.cantunwind
	.fnend
                                        @ -- End function
	.section	.text.usart_disable,"ax",%progbits
	.hidden	usart_disable           @ -- Begin function usart_disable
	.globl	usart_disable
	.p2align	1
	.type	usart_disable,%function
	.code	16                      @ @usart_disable
	.thumb_func
usart_disable:
.Lfunc_begin6:
	.loc	5 181 0                 @ ../Basic/Source/gd32e23x_usart.c:181:0
	.fnstart
	.cfi_startproc
@ %bb.0:
	@DEBUG_VALUE: usart_disable:usart_periph <- $r0
	@DEBUG_VALUE: usart_disable:usart_periph <- $r0
	.loc	5 182 30 prologue_end   @ ../Basic/Source/gd32e23x_usart.c:182:30
	ldr	r1, [r0]
	movs	r2, #1
	bics	r1, r2
	str	r1, [r0]
	.loc	5 183 1                 @ ../Basic/Source/gd32e23x_usart.c:183:1
	bx	lr
.Ltmp36:
.Lfunc_end6:
	.size	usart_disable, .Lfunc_end6-usart_disable
	.cfi_endproc
	.cantunwind
	.fnend
                                        @ -- End function
	.section	.text.usart_transmit_config,"ax",%progbits
	.hidden	usart_transmit_config   @ -- Begin function usart_transmit_config
	.globl	usart_transmit_config
	.p2align	1
	.type	usart_transmit_config,%function
	.code	16                      @ @usart_transmit_config
	.thumb_func
usart_transmit_config:
.Lfunc_begin7:
	.loc	5 196 0                 @ ../Basic/Source/gd32e23x_usart.c:196:0
	.fnstart
	.cfi_startproc
@ %bb.0:
	@DEBUG_VALUE: usart_transmit_config:usart_periph <- $r0
	@DEBUG_VALUE: usart_transmit_config:usart_periph <- $r0
	@DEBUG_VALUE: usart_transmit_config:txconfig <- $r1
	@DEBUG_VALUE: usart_transmit_config:txconfig <- $r1
	.loc	5 197 30 prologue_end   @ ../Basic/Source/gd32e23x_usart.c:197:30
	ldr	r2, [r0]
	movs	r3, #8
	bics	r2, r3
	str	r2, [r0]
	.loc	5 199 30                @ ../Basic/Source/gd32e23x_usart.c:199:30
	ldr	r2, [r0]
	orrs	r2, r1
	str	r2, [r0]
	.loc	5 200 1                 @ ../Basic/Source/gd32e23x_usart.c:200:1
	bx	lr
.Ltmp37:
.Lfunc_end7:
	.size	usart_transmit_config, .Lfunc_end7-usart_transmit_config
	.cfi_endproc
	.cantunwind
	.fnend
                                        @ -- End function
	.section	.text.usart_receive_config,"ax",%progbits
	.hidden	usart_receive_config    @ -- Begin function usart_receive_config
	.globl	usart_receive_config
	.p2align	1
	.type	usart_receive_config,%function
	.code	16                      @ @usart_receive_config
	.thumb_func
usart_receive_config:
.Lfunc_begin8:
	.loc	5 213 0                 @ ../Basic/Source/gd32e23x_usart.c:213:0
	.fnstart
	.cfi_startproc
@ %bb.0:
	@DEBUG_VALUE: usart_receive_config:usart_periph <- $r0
	@DEBUG_VALUE: usart_receive_config:usart_periph <- $r0
	@DEBUG_VALUE: usart_receive_config:rxconfig <- $r1
	@DEBUG_VALUE: usart_receive_config:rxconfig <- $r1
	.loc	5 214 30 prologue_end   @ ../Basic/Source/gd32e23x_usart.c:214:30
	ldr	r2, [r0]
	movs	r3, #4
	bics	r2, r3
	str	r2, [r0]
	.loc	5 216 30                @ ../Basic/Source/gd32e23x_usart.c:216:30
	ldr	r2, [r0]
	orrs	r2, r1
	str	r2, [r0]
	.loc	5 217 1                 @ ../Basic/Source/gd32e23x_usart.c:217:1
	bx	lr
.Ltmp38:
.Lfunc_end8:
	.size	usart_receive_config, .Lfunc_end8-usart_receive_config
	.cfi_endproc
	.cantunwind
	.fnend
                                        @ -- End function
	.section	.text.usart_data_first_config,"ax",%progbits
	.hidden	usart_data_first_config @ -- Begin function usart_data_first_config
	.globl	usart_data_first_config
	.p2align	1
	.type	usart_data_first_config,%function
	.code	16                      @ @usart_data_first_config
	.thumb_func
usart_data_first_config:
.Lfunc_begin9:
	.loc	5 230 0                 @ ../Basic/Source/gd32e23x_usart.c:230:0
	.fnstart
	.cfi_startproc
@ %bb.0:
	@DEBUG_VALUE: usart_data_first_config:usart_periph <- $r0
	@DEBUG_VALUE: usart_data_first_config:usart_periph <- $r0
	@DEBUG_VALUE: usart_data_first_config:msbf <- $r1
	@DEBUG_VALUE: usart_data_first_config:msbf <- $r1
	.loc	5 231 30 prologue_end   @ ../Basic/Source/gd32e23x_usart.c:231:30
	ldr	r2, [r0]
	movs	r3, #1
	bics	r2, r3
	str	r2, [r0]
	lsls	r2, r3, #19
	.loc	5 233 30                @ ../Basic/Source/gd32e23x_usart.c:233:30
	ldr	r3, [r0, #4]
	bics	r3, r2
	str	r3, [r0, #4]
	.loc	5 234 50                @ ../Basic/Source/gd32e23x_usart.c:234:50
	ands	r1, r2
.Ltmp39:
	.loc	5 234 30 is_stmt 0      @ ../Basic/Source/gd32e23x_usart.c:234:30
	ldr	r2, [r0, #4]
	orrs	r2, r1
	str	r2, [r0, #4]
	.loc	5 235 1 is_stmt 1       @ ../Basic/Source/gd32e23x_usart.c:235:1
	bx	lr
.Ltmp40:
.Lfunc_end9:
	.size	usart_data_first_config, .Lfunc_end9-usart_data_first_config
	.cfi_endproc
	.cantunwind
	.fnend
                                        @ -- End function
	.section	.text.usart_invert_config,"ax",%progbits
	.hidden	usart_invert_config     @ -- Begin function usart_invert_config
	.globl	usart_invert_config
	.p2align	2
	.type	usart_invert_config,%function
	.code	16                      @ @usart_invert_config
	.thumb_func
usart_invert_config:
.Lfunc_begin10:
	.loc	5 254 0                 @ ../Basic/Source/gd32e23x_usart.c:254:0
	.fnstart
	.cfi_startproc
@ %bb.0:
	@DEBUG_VALUE: usart_invert_config:usart_periph <- $r0
	@DEBUG_VALUE: usart_invert_config:usart_periph <- $r0
	@DEBUG_VALUE: usart_invert_config:invertpara <- $r1
	@DEBUG_VALUE: usart_invert_config:invertpara <- $r1
	.save	{r4, lr}
	push	{r4, lr}
	.cfi_def_cfa_offset 8
	.cfi_offset lr, -4
	.cfi_offset r4, -8
.Ltmp41:
	.loc	5 255 30 prologue_end   @ ../Basic/Source/gd32e23x_usart.c:255:30
	ldr	r3, [r0]
	movs	r2, #1
	bics	r3, r2
	str	r3, [r0]
	.loc	5 257 5                 @ ../Basic/Source/gd32e23x_usart.c:257:5
	cmp	r1, #7
	bhi	.LBB10_15
.Ltmp42:
@ %bb.1:
	@DEBUG_VALUE: usart_invert_config:invertpara <- $r1
	@DEBUG_VALUE: usart_invert_config:usart_periph <- $r0
	.loc	5 0 5 is_stmt 0         @ ../Basic/Source/gd32e23x_usart.c:0:5
	lsls	r3, r1, #2
	adr	r4, .LJTI10_0
	adds	r3, r4, r3
	mov	pc, r3
.Ltmp43:
@ %bb.2:
	.p2align	2
.LJTI10_0:
	b.w	.LBB10_3
	b.w	.LBB10_4
	b.w	.LBB10_5
	b.w	.LBB10_6
	b.w	.LBB10_7
	b.w	.LBB10_9
	b.w	.LBB10_11
	b.w	.LBB10_14
.LBB10_3:
.Ltmp44:
	@DEBUG_VALUE: usart_invert_config:invertpara <- $r1
	@DEBUG_VALUE: usart_invert_config:usart_periph <- $r0
	lsls	r1, r2, #18
.Ltmp45:
	b	.LBB10_8
.Ltmp46:
.LBB10_4:
	@DEBUG_VALUE: usart_invert_config:invertpara <- $r1
	@DEBUG_VALUE: usart_invert_config:usart_periph <- $r0
	lsls	r1, r2, #18
.Ltmp47:
	b	.LBB10_10
.Ltmp48:
.LBB10_5:
	@DEBUG_VALUE: usart_invert_config:invertpara <- $r1
	@DEBUG_VALUE: usart_invert_config:usart_periph <- $r0
	lsls	r1, r2, #17
.Ltmp49:
	b	.LBB10_8
.Ltmp50:
.LBB10_6:
	@DEBUG_VALUE: usart_invert_config:invertpara <- $r1
	@DEBUG_VALUE: usart_invert_config:usart_periph <- $r0
	lsls	r1, r2, #17
.Ltmp51:
	b	.LBB10_10
.Ltmp52:
.LBB10_7:
	@DEBUG_VALUE: usart_invert_config:invertpara <- $r1
	@DEBUG_VALUE: usart_invert_config:usart_periph <- $r0
	lsls	r1, r2, #16
.Ltmp53:
.LBB10_8:
	@DEBUG_VALUE: usart_invert_config:usart_periph <- $r0
	ldr	r2, [r0, #4]
	b	.LBB10_12
.Ltmp54:
.LBB10_9:
	@DEBUG_VALUE: usart_invert_config:invertpara <- $r1
	@DEBUG_VALUE: usart_invert_config:usart_periph <- $r0
	lsls	r1, r2, #16
.Ltmp55:
.LBB10_10:
	@DEBUG_VALUE: usart_invert_config:usart_periph <- $r0
	ldr	r2, [r0, #4]
	bics	r2, r1
	b	.LBB10_13
.Ltmp56:
.LBB10_11:
	@DEBUG_VALUE: usart_invert_config:invertpara <- $r1
	@DEBUG_VALUE: usart_invert_config:usart_periph <- $r0
	.loc	5 277 34 is_stmt 1      @ ../Basic/Source/gd32e23x_usart.c:277:34
	ldr	r1, [r0, #4]
.Ltmp57:
	.loc	5 0 34 is_stmt 0        @ ../Basic/Source/gd32e23x_usart.c:0:34
	movw	r2, #32768
.Ltmp58:
.LBB10_12:
	@DEBUG_VALUE: usart_invert_config:usart_periph <- $r0
	orrs	r2, r1
.Ltmp59:
.LBB10_13:
	@DEBUG_VALUE: usart_invert_config:usart_periph <- $r0
	str	r2, [r0, #4]
.Ltmp60:
	.loc	5 285 1 is_stmt 1       @ ../Basic/Source/gd32e23x_usart.c:285:1
	pop	{r4, pc}
.Ltmp61:
.LBB10_14:
	@DEBUG_VALUE: usart_invert_config:invertpara <- $r1
	@DEBUG_VALUE: usart_invert_config:usart_periph <- $r0
	.loc	5 280 34                @ ../Basic/Source/gd32e23x_usart.c:280:34
	ldr	r1, [r0, #4]
.Ltmp62:
	.loc	5 0 34 is_stmt 0        @ ../Basic/Source/gd32e23x_usart.c:0:34
	movw	r2, #32768
	.loc	5 280 34                @ ../Basic/Source/gd32e23x_usart.c:280:34
	bics	r1, r2
	str	r1, [r0, #4]
.Ltmp63:
.LBB10_15:
	@DEBUG_VALUE: usart_invert_config:usart_periph <- $r0
	.loc	5 285 1 is_stmt 1       @ ../Basic/Source/gd32e23x_usart.c:285:1
	pop	{r4, pc}
.Ltmp64:
.Lfunc_end10:
	.size	usart_invert_config, .Lfunc_end10-usart_invert_config
	.cfi_endproc
	.cantunwind
	.fnend
                                        @ -- End function
	.section	.text.usart_overrun_enable,"ax",%progbits
	.hidden	usart_overrun_enable    @ -- Begin function usart_overrun_enable
	.globl	usart_overrun_enable
	.p2align	1
	.type	usart_overrun_enable,%function
	.code	16                      @ @usart_overrun_enable
	.thumb_func
usart_overrun_enable:
.Lfunc_begin11:
	.loc	5 294 0                 @ ../Basic/Source/gd32e23x_usart.c:294:0
	.fnstart
	.cfi_startproc
@ %bb.0:
	@DEBUG_VALUE: usart_overrun_enable:usart_periph <- $r0
	@DEBUG_VALUE: usart_overrun_enable:usart_periph <- $r0
	.loc	5 295 30 prologue_end   @ ../Basic/Source/gd32e23x_usart.c:295:30
	ldr	r1, [r0]
	movs	r2, #1
	bics	r1, r2
	str	r1, [r0]
	.loc	5 297 30                @ ../Basic/Source/gd32e23x_usart.c:297:30
	ldr	r1, [r0, #8]
	movw	r2, #4096
	bics	r1, r2
	str	r1, [r0, #8]
	.loc	5 298 1                 @ ../Basic/Source/gd32e23x_usart.c:298:1
	bx	lr
.Ltmp65:
.Lfunc_end11:
	.size	usart_overrun_enable, .Lfunc_end11-usart_overrun_enable
	.cfi_endproc
	.cantunwind
	.fnend
                                        @ -- End function
	.section	.text.usart_overrun_disable,"ax",%progbits
	.hidden	usart_overrun_disable   @ -- Begin function usart_overrun_disable
	.globl	usart_overrun_disable
	.p2align	1
	.type	usart_overrun_disable,%function
	.code	16                      @ @usart_overrun_disable
	.thumb_func
usart_overrun_disable:
.Lfunc_begin12:
	.loc	5 307 0                 @ ../Basic/Source/gd32e23x_usart.c:307:0
	.fnstart
	.cfi_startproc
@ %bb.0:
	@DEBUG_VALUE: usart_overrun_disable:usart_periph <- $r0
	@DEBUG_VALUE: usart_overrun_disable:usart_periph <- $r0
	.loc	5 308 30 prologue_end   @ ../Basic/Source/gd32e23x_usart.c:308:30
	ldr	r1, [r0]
	movs	r2, #1
	bics	r1, r2
	str	r1, [r0]
	.loc	5 310 30                @ ../Basic/Source/gd32e23x_usart.c:310:30
	ldr	r1, [r0, #8]
	movw	r2, #4096
	orrs	r2, r1
	str	r2, [r0, #8]
	.loc	5 311 1                 @ ../Basic/Source/gd32e23x_usart.c:311:1
	bx	lr
.Ltmp66:
.Lfunc_end12:
	.size	usart_overrun_disable, .Lfunc_end12-usart_overrun_disable
	.cfi_endproc
	.cantunwind
	.fnend
                                        @ -- End function
	.section	.text.usart_oversample_config,"ax",%progbits
	.hidden	usart_oversample_config @ -- Begin function usart_oversample_config
	.globl	usart_oversample_config
	.p2align	1
	.type	usart_oversample_config,%function
	.code	16                      @ @usart_oversample_config
	.thumb_func
usart_oversample_config:
.Lfunc_begin13:
	.loc	5 324 0                 @ ../Basic/Source/gd32e23x_usart.c:324:0
	.fnstart
	.cfi_startproc
@ %bb.0:
	@DEBUG_VALUE: usart_oversample_config:usart_periph <- $r0
	@DEBUG_VALUE: usart_oversample_config:usart_periph <- $r0
	@DEBUG_VALUE: usart_oversample_config:oversamp <- $r1
	@DEBUG_VALUE: usart_oversample_config:oversamp <- $r1
	.loc	5 326 30 prologue_end   @ ../Basic/Source/gd32e23x_usart.c:326:30
	ldr	r2, [r0]
	movs	r3, #1
	bics	r2, r3
	str	r2, [r0]
	.loc	5 328 30                @ ../Basic/Source/gd32e23x_usart.c:328:30
	ldr	r2, [r0]
	movw	r3, #32768
	bics	r2, r3
	str	r2, [r0]
	.loc	5 329 30                @ ../Basic/Source/gd32e23x_usart.c:329:30
	ldr	r2, [r0]
	orrs	r2, r1
	str	r2, [r0]
	.loc	5 330 1                 @ ../Basic/Source/gd32e23x_usart.c:330:1
	bx	lr
.Ltmp67:
.Lfunc_end13:
	.size	usart_oversample_config, .Lfunc_end13-usart_oversample_config
	.cfi_endproc
	.cantunwind
	.fnend
                                        @ -- End function
	.section	.text.usart_sample_bit_config,"ax",%progbits
	.hidden	usart_sample_bit_config @ -- Begin function usart_sample_bit_config
	.globl	usart_sample_bit_config
	.p2align	1
	.type	usart_sample_bit_config,%function
	.code	16                      @ @usart_sample_bit_config
	.thumb_func
usart_sample_bit_config:
.Lfunc_begin14:
	.loc	5 343 0                 @ ../Basic/Source/gd32e23x_usart.c:343:0
	.fnstart
	.cfi_startproc
@ %bb.0:
	@DEBUG_VALUE: usart_sample_bit_config:usart_periph <- $r0
	@DEBUG_VALUE: usart_sample_bit_config:usart_periph <- $r0
	@DEBUG_VALUE: usart_sample_bit_config:osb <- $r1
	@DEBUG_VALUE: usart_sample_bit_config:osb <- $r1
	.loc	5 345 30 prologue_end   @ ../Basic/Source/gd32e23x_usart.c:345:30
	ldr	r2, [r0]
	movs	r3, #1
	bics	r2, r3
	str	r2, [r0]
	.loc	5 347 30                @ ../Basic/Source/gd32e23x_usart.c:347:30
	ldr	r2, [r0, #8]
	movw	r3, #2048
	bics	r2, r3
	str	r2, [r0, #8]
	.loc	5 348 30                @ ../Basic/Source/gd32e23x_usart.c:348:30
	ldr	r2, [r0, #8]
	orrs	r2, r1
	str	r2, [r0, #8]
	.loc	5 349 1                 @ ../Basic/Source/gd32e23x_usart.c:349:1
	bx	lr
.Ltmp68:
.Lfunc_end14:
	.size	usart_sample_bit_config, .Lfunc_end14-usart_sample_bit_config
	.cfi_endproc
	.cantunwind
	.fnend
                                        @ -- End function
	.section	.text.usart_receiver_timeout_enable,"ax",%progbits
	.hidden	usart_receiver_timeout_enable @ -- Begin function usart_receiver_timeout_enable
	.globl	usart_receiver_timeout_enable
	.p2align	1
	.type	usart_receiver_timeout_enable,%function
	.code	16                      @ @usart_receiver_timeout_enable
	.thumb_func
usart_receiver_timeout_enable:
.Lfunc_begin15:
	.loc	5 358 0                 @ ../Basic/Source/gd32e23x_usart.c:358:0
	.fnstart
	.cfi_startproc
@ %bb.0:
	@DEBUG_VALUE: usart_receiver_timeout_enable:usart_periph <- $r0
	@DEBUG_VALUE: usart_receiver_timeout_enable:usart_periph <- $r0
	movs	r1, #1
	lsls	r1, r1, #23
.Ltmp69:
	.loc	5 359 30 prologue_end   @ ../Basic/Source/gd32e23x_usart.c:359:30
	ldr	r2, [r0, #4]
	orrs	r2, r1
	str	r2, [r0, #4]
	.loc	5 360 1                 @ ../Basic/Source/gd32e23x_usart.c:360:1
	bx	lr
.Ltmp70:
.Lfunc_end15:
	.size	usart_receiver_timeout_enable, .Lfunc_end15-usart_receiver_timeout_enable
	.cfi_endproc
	.cantunwind
	.fnend
                                        @ -- End function
	.section	.text.usart_receiver_timeout_disable,"ax",%progbits
	.hidden	usart_receiver_timeout_disable @ -- Begin function usart_receiver_timeout_disable
	.globl	usart_receiver_timeout_disable
	.p2align	1
	.type	usart_receiver_timeout_disable,%function
	.code	16                      @ @usart_receiver_timeout_disable
	.thumb_func
usart_receiver_timeout_disable:
.Lfunc_begin16:
	.loc	5 369 0                 @ ../Basic/Source/gd32e23x_usart.c:369:0
	.fnstart
	.cfi_startproc
@ %bb.0:
	@DEBUG_VALUE: usart_receiver_timeout_disable:usart_periph <- $r0
	@DEBUG_VALUE: usart_receiver_timeout_disable:usart_periph <- $r0
	movs	r1, #1
	lsls	r1, r1, #23
.Ltmp71:
	.loc	5 370 30 prologue_end   @ ../Basic/Source/gd32e23x_usart.c:370:30
	ldr	r2, [r0, #4]
	bics	r2, r1
	str	r2, [r0, #4]
	.loc	5 371 1                 @ ../Basic/Source/gd32e23x_usart.c:371:1
	bx	lr
.Ltmp72:
.Lfunc_end16:
	.size	usart_receiver_timeout_disable, .Lfunc_end16-usart_receiver_timeout_disable
	.cfi_endproc
	.cantunwind
	.fnend
                                        @ -- End function
	.section	.text.usart_receiver_timeout_threshold_config,"ax",%progbits
	.hidden	usart_receiver_timeout_threshold_config @ -- Begin function usart_receiver_timeout_threshold_config
	.globl	usart_receiver_timeout_threshold_config
	.p2align	1
	.type	usart_receiver_timeout_threshold_config,%function
	.code	16                      @ @usart_receiver_timeout_threshold_config
	.thumb_func
usart_receiver_timeout_threshold_config:
.Lfunc_begin17:
	.loc	5 381 0                 @ ../Basic/Source/gd32e23x_usart.c:381:0
	.fnstart
	.cfi_startproc
@ %bb.0:
	@DEBUG_VALUE: usart_receiver_timeout_threshold_config:usart_periph <- $r0
	@DEBUG_VALUE: usart_receiver_timeout_threshold_config:usart_periph <- $r0
	@DEBUG_VALUE: usart_receiver_timeout_threshold_config:rtimeout <- $r1
	@DEBUG_VALUE: usart_receiver_timeout_threshold_config:rtimeout <- $r1
	movs	r2, #255
	lsls	r2, r2, #24
.Ltmp73:
	.loc	5 382 28 prologue_end   @ ../Basic/Source/gd32e23x_usart.c:382:28
	ldr	r3, [r0, #20]
	ands	r3, r2
	str	r3, [r0, #20]
	.loc	5 383 28                @ ../Basic/Source/gd32e23x_usart.c:383:28
	ldr	r2, [r0, #20]
	orrs	r2, r1
	str	r2, [r0, #20]
	.loc	5 384 1                 @ ../Basic/Source/gd32e23x_usart.c:384:1
	bx	lr
.Ltmp74:
.Lfunc_end17:
	.size	usart_receiver_timeout_threshold_config, .Lfunc_end17-usart_receiver_timeout_threshold_config
	.cfi_endproc
	.cantunwind
	.fnend
                                        @ -- End function
	.section	.text.usart_data_transmit,"ax",%progbits
	.hidden	usart_data_transmit     @ -- Begin function usart_data_transmit
	.globl	usart_data_transmit
	.p2align	2
	.type	usart_data_transmit,%function
	.code	16                      @ @usart_data_transmit
	.thumb_func
usart_data_transmit:
.Lfunc_begin18:
	.loc	5 394 0                 @ ../Basic/Source/gd32e23x_usart.c:394:0
	.fnstart
	.cfi_startproc
@ %bb.0:
	@DEBUG_VALUE: usart_data_transmit:usart_periph <- $r0
	@DEBUG_VALUE: usart_data_transmit:usart_periph <- $r0
	@DEBUG_VALUE: usart_data_transmit:data <- $r1
	@DEBUG_VALUE: usart_data_transmit:data <- $r1
	ldr	r2, __arm_cp.18_0
.Ltmp75:
	.loc	5 395 52 prologue_end   @ ../Basic/Source/gd32e23x_usart.c:395:52
	ands	r2, r1
	.loc	5 395 31 is_stmt 0      @ ../Basic/Source/gd32e23x_usart.c:395:31
	str	r2, [r0, #40]
	.loc	5 396 1 is_stmt 1       @ ../Basic/Source/gd32e23x_usart.c:396:1
	bx	lr
.Ltmp76:
	.p2align	2
@ %bb.1:
	.loc	5 0 1 is_stmt 0         @ ../Basic/Source/gd32e23x_usart.c:0:1
__arm_cp.18_0:
	.long	511                     @ 0x1ff
.Lcpi_end7:
	.size	__arm_cp.18_0, .Lcpi_end7-__arm_cp.18_0
.Lfunc_end18:
	.size	usart_data_transmit, .Lfunc_end18-usart_data_transmit
	.cfi_endproc
	.cantunwind
	.fnend
                                        @ -- End function
	.section	.text.usart_data_receive,"ax",%progbits
	.hidden	usart_data_receive      @ -- Begin function usart_data_receive
	.globl	usart_data_receive
	.p2align	2
	.type	usart_data_receive,%function
	.code	16                      @ @usart_data_receive
	.thumb_func
usart_data_receive:
.Lfunc_begin19:
	.loc	5 405 0 is_stmt 1       @ ../Basic/Source/gd32e23x_usart.c:405:0
	.fnstart
	.cfi_startproc
@ %bb.0:
	@DEBUG_VALUE: usart_data_receive:usart_periph <- $r0
	@DEBUG_VALUE: usart_data_receive:usart_periph <- $r0
	.loc	5 406 23 prologue_end   @ ../Basic/Source/gd32e23x_usart.c:406:23
	ldr	r1, [r0, #36]
	ldr	r0, __arm_cp.19_0
.Ltmp77:
	.loc	5 406 5 is_stmt 0       @ ../Basic/Source/gd32e23x_usart.c:406:5
	ands	r0, r1
	bx	lr
.Ltmp78:
	.p2align	2
@ %bb.1:
	.loc	5 0 5                   @ ../Basic/Source/gd32e23x_usart.c:0:5
__arm_cp.19_0:
	.long	511                     @ 0x1ff
.Lcpi_end8:
	.size	__arm_cp.19_0, .Lcpi_end8-__arm_cp.19_0
.Lfunc_end19:
	.size	usart_data_receive, .Lfunc_end19-usart_data_receive
	.cfi_endproc
	.cantunwind
	.fnend
                                        @ -- End function
	.section	.text.usart_autobaud_detection_enable,"ax",%progbits
	.hidden	usart_autobaud_detection_enable @ -- Begin function usart_autobaud_detection_enable
	.globl	usart_autobaud_detection_enable
	.p2align	1
	.type	usart_autobaud_detection_enable,%function
	.code	16                      @ @usart_autobaud_detection_enable
	.thumb_func
usart_autobaud_detection_enable:
.Lfunc_begin20:
	.loc	5 416 0 is_stmt 1       @ ../Basic/Source/gd32e23x_usart.c:416:0
	.fnstart
	.cfi_startproc
@ %bb.0:
	@DEBUG_VALUE: usart_autobaud_detection_enable:usart_periph <- $r0
	@DEBUG_VALUE: usart_autobaud_detection_enable:usart_periph <- $r0
	movs	r1, #1
	lsls	r1, r1, #20
.Ltmp79:
	.loc	5 417 30 prologue_end   @ ../Basic/Source/gd32e23x_usart.c:417:30
	ldr	r2, [r0, #4]
	orrs	r2, r1
	str	r2, [r0, #4]
	.loc	5 418 1                 @ ../Basic/Source/gd32e23x_usart.c:418:1
	bx	lr
.Ltmp80:
.Lfunc_end20:
	.size	usart_autobaud_detection_enable, .Lfunc_end20-usart_autobaud_detection_enable
	.cfi_endproc
	.cantunwind
	.fnend
                                        @ -- End function
	.section	.text.usart_autobaud_detection_disable,"ax",%progbits
	.hidden	usart_autobaud_detection_disable @ -- Begin function usart_autobaud_detection_disable
	.globl	usart_autobaud_detection_disable
	.p2align	1
	.type	usart_autobaud_detection_disable,%function
	.code	16                      @ @usart_autobaud_detection_disable
	.thumb_func
usart_autobaud_detection_disable:
.Lfunc_begin21:
	.loc	5 427 0                 @ ../Basic/Source/gd32e23x_usart.c:427:0
	.fnstart
	.cfi_startproc
@ %bb.0:
	@DEBUG_VALUE: usart_autobaud_detection_disable:usart_periph <- $r0
	@DEBUG_VALUE: usart_autobaud_detection_disable:usart_periph <- $r0
	movs	r1, #1
	lsls	r1, r1, #20
.Ltmp81:
	.loc	5 428 30 prologue_end   @ ../Basic/Source/gd32e23x_usart.c:428:30
	ldr	r2, [r0, #4]
	bics	r2, r1
	str	r2, [r0, #4]
	.loc	5 429 1                 @ ../Basic/Source/gd32e23x_usart.c:429:1
	bx	lr
.Ltmp82:
.Lfunc_end21:
	.size	usart_autobaud_detection_disable, .Lfunc_end21-usart_autobaud_detection_disable
	.cfi_endproc
	.cantunwind
	.fnend
                                        @ -- End function
	.section	.text.usart_autobaud_detection_mode_config,"ax",%progbits
	.hidden	usart_autobaud_detection_mode_config @ -- Begin function usart_autobaud_detection_mode_config
	.globl	usart_autobaud_detection_mode_config
	.p2align	1
	.type	usart_autobaud_detection_mode_config,%function
	.code	16                      @ @usart_autobaud_detection_mode_config
	.thumb_func
usart_autobaud_detection_mode_config:
.Lfunc_begin22:
	.loc	5 442 0                 @ ../Basic/Source/gd32e23x_usart.c:442:0
	.fnstart
	.cfi_startproc
@ %bb.0:
	@DEBUG_VALUE: usart_autobaud_detection_mode_config:usart_periph <- $r0
	@DEBUG_VALUE: usart_autobaud_detection_mode_config:usart_periph <- $r0
	@DEBUG_VALUE: usart_autobaud_detection_mode_config:abdmod <- $r1
	@DEBUG_VALUE: usart_autobaud_detection_mode_config:abdmod <- $r1
	movs	r2, #3
	lsls	r2, r2, #21
.Ltmp83:
	.loc	5 444 30 prologue_end   @ ../Basic/Source/gd32e23x_usart.c:444:30
	ldr	r3, [r0, #4]
	bics	r3, r2
	str	r3, [r0, #4]
	.loc	5 445 30                @ ../Basic/Source/gd32e23x_usart.c:445:30
	ldr	r2, [r0, #4]
	orrs	r2, r1
	str	r2, [r0, #4]
	.loc	5 446 1                 @ ../Basic/Source/gd32e23x_usart.c:446:1
	bx	lr
.Ltmp84:
.Lfunc_end22:
	.size	usart_autobaud_detection_mode_config, .Lfunc_end22-usart_autobaud_detection_mode_config
	.cfi_endproc
	.cantunwind
	.fnend
                                        @ -- End function
	.section	.text.usart_address_config,"ax",%progbits
	.hidden	usart_address_config    @ -- Begin function usart_address_config
	.globl	usart_address_config
	.p2align	1
	.type	usart_address_config,%function
	.code	16                      @ @usart_address_config
	.thumb_func
usart_address_config:
.Lfunc_begin23:
	.loc	5 456 0                 @ ../Basic/Source/gd32e23x_usart.c:456:0
	.fnstart
	.cfi_startproc
@ %bb.0:
	@DEBUG_VALUE: usart_address_config:usart_periph <- $r0
	@DEBUG_VALUE: usart_address_config:usart_periph <- $r0
	@DEBUG_VALUE: usart_address_config:addr <- $r1
	@DEBUG_VALUE: usart_address_config:addr <- $r1
	.loc	5 458 30 prologue_end   @ ../Basic/Source/gd32e23x_usart.c:458:30
	ldr	r2, [r0]
	movs	r3, #1
	bics	r2, r3
	str	r2, [r0]
	movs	r2, #255
	lsls	r2, r2, #24
	.loc	5 460 30                @ ../Basic/Source/gd32e23x_usart.c:460:30
	ldr	r3, [r0, #4]
	bics	r3, r2
	str	r3, [r0, #4]
	.loc	5 461 70                @ ../Basic/Source/gd32e23x_usart.c:461:70
	lsls	r1, r1, #24
.Ltmp85:
	.loc	5 461 30 is_stmt 0      @ ../Basic/Source/gd32e23x_usart.c:461:30
	ldr	r2, [r0, #4]
	orrs	r2, r1
	str	r2, [r0, #4]
	.loc	5 462 1 is_stmt 1       @ ../Basic/Source/gd32e23x_usart.c:462:1
	bx	lr
.Ltmp86:
.Lfunc_end23:
	.size	usart_address_config, .Lfunc_end23-usart_address_config
	.cfi_endproc
	.cantunwind
	.fnend
                                        @ -- End function
	.section	.text.usart_address_detection_mode_config,"ax",%progbits
	.hidden	usart_address_detection_mode_config @ -- Begin function usart_address_detection_mode_config
	.globl	usart_address_detection_mode_config
	.p2align	1
	.type	usart_address_detection_mode_config,%function
	.code	16                      @ @usart_address_detection_mode_config
	.thumb_func
usart_address_detection_mode_config:
.Lfunc_begin24:
	.loc	5 475 0                 @ ../Basic/Source/gd32e23x_usart.c:475:0
	.fnstart
	.cfi_startproc
@ %bb.0:
	@DEBUG_VALUE: usart_address_detection_mode_config:usart_periph <- $r0
	@DEBUG_VALUE: usart_address_detection_mode_config:usart_periph <- $r0
	@DEBUG_VALUE: usart_address_detection_mode_config:addmod <- $r1
	@DEBUG_VALUE: usart_address_detection_mode_config:addmod <- $r1
	.loc	5 477 30 prologue_end   @ ../Basic/Source/gd32e23x_usart.c:477:30
	ldr	r2, [r0]
	movs	r3, #1
	bics	r2, r3
	str	r2, [r0]
	.loc	5 479 30                @ ../Basic/Source/gd32e23x_usart.c:479:30
	ldr	r2, [r0, #4]
	movs	r3, #16
	bics	r2, r3
	str	r2, [r0, #4]
	.loc	5 480 49                @ ../Basic/Source/gd32e23x_usart.c:480:49
	ands	r1, r3
.Ltmp87:
	.loc	5 480 30 is_stmt 0      @ ../Basic/Source/gd32e23x_usart.c:480:30
	ldr	r2, [r0, #4]
	orrs	r2, r1
	str	r2, [r0, #4]
	.loc	5 481 1 is_stmt 1       @ ../Basic/Source/gd32e23x_usart.c:481:1
	bx	lr
.Ltmp88:
.Lfunc_end24:
	.size	usart_address_detection_mode_config, .Lfunc_end24-usart_address_detection_mode_config
	.cfi_endproc
	.cantunwind
	.fnend
                                        @ -- End function
	.section	.text.usart_mute_mode_enable,"ax",%progbits
	.hidden	usart_mute_mode_enable  @ -- Begin function usart_mute_mode_enable
	.globl	usart_mute_mode_enable
	.p2align	1
	.type	usart_mute_mode_enable,%function
	.code	16                      @ @usart_mute_mode_enable
	.thumb_func
usart_mute_mode_enable:
.Lfunc_begin25:
	.loc	5 490 0                 @ ../Basic/Source/gd32e23x_usart.c:490:0
	.fnstart
	.cfi_startproc
@ %bb.0:
	@DEBUG_VALUE: usart_mute_mode_enable:usart_periph <- $r0
	@DEBUG_VALUE: usart_mute_mode_enable:usart_periph <- $r0
	.loc	5 491 30 prologue_end   @ ../Basic/Source/gd32e23x_usart.c:491:30
	ldr	r1, [r0]
	movw	r2, #8192
	orrs	r2, r1
	str	r2, [r0]
	.loc	5 492 1                 @ ../Basic/Source/gd32e23x_usart.c:492:1
	bx	lr
.Ltmp89:
.Lfunc_end25:
	.size	usart_mute_mode_enable, .Lfunc_end25-usart_mute_mode_enable
	.cfi_endproc
	.cantunwind
	.fnend
                                        @ -- End function
	.section	.text.usart_mute_mode_disable,"ax",%progbits
	.hidden	usart_mute_mode_disable @ -- Begin function usart_mute_mode_disable
	.globl	usart_mute_mode_disable
	.p2align	1
	.type	usart_mute_mode_disable,%function
	.code	16                      @ @usart_mute_mode_disable
	.thumb_func
usart_mute_mode_disable:
.Lfunc_begin26:
	.loc	5 501 0                 @ ../Basic/Source/gd32e23x_usart.c:501:0
	.fnstart
	.cfi_startproc
@ %bb.0:
	@DEBUG_VALUE: usart_mute_mode_disable:usart_periph <- $r0
	@DEBUG_VALUE: usart_mute_mode_disable:usart_periph <- $r0
	.loc	5 502 30 prologue_end   @ ../Basic/Source/gd32e23x_usart.c:502:30
	ldr	r1, [r0]
	movw	r2, #8192
	bics	r1, r2
	str	r1, [r0]
	.loc	5 503 1                 @ ../Basic/Source/gd32e23x_usart.c:503:1
	bx	lr
.Ltmp90:
.Lfunc_end26:
	.size	usart_mute_mode_disable, .Lfunc_end26-usart_mute_mode_disable
	.cfi_endproc
	.cantunwind
	.fnend
                                        @ -- End function
	.section	.text.usart_mute_mode_wakeup_config,"ax",%progbits
	.hidden	usart_mute_mode_wakeup_config @ -- Begin function usart_mute_mode_wakeup_config
	.globl	usart_mute_mode_wakeup_config
	.p2align	1
	.type	usart_mute_mode_wakeup_config,%function
	.code	16                      @ @usart_mute_mode_wakeup_config
	.thumb_func
usart_mute_mode_wakeup_config:
.Lfunc_begin27:
	.loc	5 516 0                 @ ../Basic/Source/gd32e23x_usart.c:516:0
	.fnstart
	.cfi_startproc
@ %bb.0:
	@DEBUG_VALUE: usart_mute_mode_wakeup_config:usart_periph <- $r0
	@DEBUG_VALUE: usart_mute_mode_wakeup_config:usart_periph <- $r0
	@DEBUG_VALUE: usart_mute_mode_wakeup_config:wmethod <- $r1
	@DEBUG_VALUE: usart_mute_mode_wakeup_config:wmethod <- $r1
	.loc	5 518 30 prologue_end   @ ../Basic/Source/gd32e23x_usart.c:518:30
	ldr	r2, [r0]
	movs	r3, #1
	bics	r2, r3
	str	r2, [r0]
	.loc	5 520 30                @ ../Basic/Source/gd32e23x_usart.c:520:30
	ldr	r2, [r0]
	movw	r3, #2048
	bics	r2, r3
	str	r2, [r0]
	.loc	5 521 30                @ ../Basic/Source/gd32e23x_usart.c:521:30
	ldr	r2, [r0]
	orrs	r2, r1
	str	r2, [r0]
	.loc	5 522 1                 @ ../Basic/Source/gd32e23x_usart.c:522:1
	bx	lr
.Ltmp91:
.Lfunc_end27:
	.size	usart_mute_mode_wakeup_config, .Lfunc_end27-usart_mute_mode_wakeup_config
	.cfi_endproc
	.cantunwind
	.fnend
                                        @ -- End function
	.section	.text.usart_lin_mode_enable,"ax",%progbits
	.hidden	usart_lin_mode_enable   @ -- Begin function usart_lin_mode_enable
	.globl	usart_lin_mode_enable
	.p2align	1
	.type	usart_lin_mode_enable,%function
	.code	16                      @ @usart_lin_mode_enable
	.thumb_func
usart_lin_mode_enable:
.Lfunc_begin28:
	.loc	5 531 0                 @ ../Basic/Source/gd32e23x_usart.c:531:0
	.fnstart
	.cfi_startproc
@ %bb.0:
	@DEBUG_VALUE: usart_lin_mode_enable:usart_periph <- $r0
	@DEBUG_VALUE: usart_lin_mode_enable:usart_periph <- $r0
	.loc	5 533 30 prologue_end   @ ../Basic/Source/gd32e23x_usart.c:533:30
	ldr	r1, [r0]
	movs	r2, #1
	bics	r1, r2
	str	r1, [r0]
	.loc	5 535 30                @ ../Basic/Source/gd32e23x_usart.c:535:30
	ldr	r1, [r0, #4]
	movw	r2, #16384
	orrs	r2, r1
	str	r2, [r0, #4]
	.loc	5 536 1                 @ ../Basic/Source/gd32e23x_usart.c:536:1
	bx	lr
.Ltmp92:
.Lfunc_end28:
	.size	usart_lin_mode_enable, .Lfunc_end28-usart_lin_mode_enable
	.cfi_endproc
	.cantunwind
	.fnend
                                        @ -- End function
	.section	.text.usart_lin_mode_disable,"ax",%progbits
	.hidden	usart_lin_mode_disable  @ -- Begin function usart_lin_mode_disable
	.globl	usart_lin_mode_disable
	.p2align	1
	.type	usart_lin_mode_disable,%function
	.code	16                      @ @usart_lin_mode_disable
	.thumb_func
usart_lin_mode_disable:
.Lfunc_begin29:
	.loc	5 545 0                 @ ../Basic/Source/gd32e23x_usart.c:545:0
	.fnstart
	.cfi_startproc
@ %bb.0:
	@DEBUG_VALUE: usart_lin_mode_disable:usart_periph <- $r0
	@DEBUG_VALUE: usart_lin_mode_disable:usart_periph <- $r0
	.loc	5 547 30 prologue_end   @ ../Basic/Source/gd32e23x_usart.c:547:30
	ldr	r1, [r0]
	movs	r2, #1
	bics	r1, r2
	str	r1, [r0]
	.loc	5 549 30                @ ../Basic/Source/gd32e23x_usart.c:549:30
	ldr	r1, [r0, #4]
	movw	r2, #16384
	bics	r1, r2
	str	r1, [r0, #4]
	.loc	5 550 1                 @ ../Basic/Source/gd32e23x_usart.c:550:1
	bx	lr
.Ltmp93:
.Lfunc_end29:
	.size	usart_lin_mode_disable, .Lfunc_end29-usart_lin_mode_disable
	.cfi_endproc
	.cantunwind
	.fnend
                                        @ -- End function
	.section	.text.usart_lin_break_detection_length_config,"ax",%progbits
	.hidden	usart_lin_break_detection_length_config @ -- Begin function usart_lin_break_detection_length_config
	.globl	usart_lin_break_detection_length_config
	.p2align	1
	.type	usart_lin_break_detection_length_config,%function
	.code	16                      @ @usart_lin_break_detection_length_config
	.thumb_func
usart_lin_break_detection_length_config:
.Lfunc_begin30:
	.loc	5 563 0                 @ ../Basic/Source/gd32e23x_usart.c:563:0
	.fnstart
	.cfi_startproc
@ %bb.0:
	@DEBUG_VALUE: usart_lin_break_detection_length_config:usart_periph <- $r0
	@DEBUG_VALUE: usart_lin_break_detection_length_config:usart_periph <- $r0
	@DEBUG_VALUE: usart_lin_break_detection_length_config:lblen <- $r1
	@DEBUG_VALUE: usart_lin_break_detection_length_config:lblen <- $r1
	.loc	5 565 30 prologue_end   @ ../Basic/Source/gd32e23x_usart.c:565:30
	ldr	r2, [r0]
	movs	r3, #1
	bics	r2, r3
	str	r2, [r0]
	.loc	5 566 30                @ ../Basic/Source/gd32e23x_usart.c:566:30
	ldr	r2, [r0, #4]
	movs	r3, #32
	bics	r2, r3
	str	r2, [r0, #4]
	.loc	5 567 50                @ ../Basic/Source/gd32e23x_usart.c:567:50
	ands	r1, r3
.Ltmp94:
	.loc	5 567 30 is_stmt 0      @ ../Basic/Source/gd32e23x_usart.c:567:30
	ldr	r2, [r0, #4]
	orrs	r2, r1
	str	r2, [r0, #4]
	.loc	5 568 1 is_stmt 1       @ ../Basic/Source/gd32e23x_usart.c:568:1
	bx	lr
.Ltmp95:
.Lfunc_end30:
	.size	usart_lin_break_detection_length_config, .Lfunc_end30-usart_lin_break_detection_length_config
	.cfi_endproc
	.cantunwind
	.fnend
                                        @ -- End function
	.section	.text.usart_halfduplex_enable,"ax",%progbits
	.hidden	usart_halfduplex_enable @ -- Begin function usart_halfduplex_enable
	.globl	usart_halfduplex_enable
	.p2align	1
	.type	usart_halfduplex_enable,%function
	.code	16                      @ @usart_halfduplex_enable
	.thumb_func
usart_halfduplex_enable:
.Lfunc_begin31:
	.loc	5 577 0                 @ ../Basic/Source/gd32e23x_usart.c:577:0
	.fnstart
	.cfi_startproc
@ %bb.0:
	@DEBUG_VALUE: usart_halfduplex_enable:usart_periph <- $r0
	@DEBUG_VALUE: usart_halfduplex_enable:usart_periph <- $r0
	.loc	5 579 30 prologue_end   @ ../Basic/Source/gd32e23x_usart.c:579:30
	ldr	r1, [r0]
	movs	r2, #1
	bics	r1, r2
	str	r1, [r0]
	.loc	5 581 30                @ ../Basic/Source/gd32e23x_usart.c:581:30
	ldr	r1, [r0, #8]
	movs	r2, #8
	orrs	r2, r1
	str	r2, [r0, #8]
	.loc	5 582 1                 @ ../Basic/Source/gd32e23x_usart.c:582:1
	bx	lr
.Ltmp96:
.Lfunc_end31:
	.size	usart_halfduplex_enable, .Lfunc_end31-usart_halfduplex_enable
	.cfi_endproc
	.cantunwind
	.fnend
                                        @ -- End function
	.section	.text.usart_halfduplex_disable,"ax",%progbits
	.hidden	usart_halfduplex_disable @ -- Begin function usart_halfduplex_disable
	.globl	usart_halfduplex_disable
	.p2align	1
	.type	usart_halfduplex_disable,%function
	.code	16                      @ @usart_halfduplex_disable
	.thumb_func
usart_halfduplex_disable:
.Lfunc_begin32:
	.loc	5 591 0                 @ ../Basic/Source/gd32e23x_usart.c:591:0
	.fnstart
	.cfi_startproc
@ %bb.0:
	@DEBUG_VALUE: usart_halfduplex_disable:usart_periph <- $r0
	@DEBUG_VALUE: usart_halfduplex_disable:usart_periph <- $r0
	.loc	5 593 30 prologue_end   @ ../Basic/Source/gd32e23x_usart.c:593:30
	ldr	r1, [r0]
	movs	r2, #1
	bics	r1, r2
	str	r1, [r0]
	.loc	5 595 30                @ ../Basic/Source/gd32e23x_usart.c:595:30
	ldr	r1, [r0, #8]
	movs	r2, #8
	bics	r1, r2
	str	r1, [r0, #8]
	.loc	5 596 1                 @ ../Basic/Source/gd32e23x_usart.c:596:1
	bx	lr
.Ltmp97:
.Lfunc_end32:
	.size	usart_halfduplex_disable, .Lfunc_end32-usart_halfduplex_disable
	.cfi_endproc
	.cantunwind
	.fnend
                                        @ -- End function
	.section	.text.usart_clock_enable,"ax",%progbits
	.hidden	usart_clock_enable      @ -- Begin function usart_clock_enable
	.globl	usart_clock_enable
	.p2align	1
	.type	usart_clock_enable,%function
	.code	16                      @ @usart_clock_enable
	.thumb_func
usart_clock_enable:
.Lfunc_begin33:
	.loc	5 605 0                 @ ../Basic/Source/gd32e23x_usart.c:605:0
	.fnstart
	.cfi_startproc
@ %bb.0:
	@DEBUG_VALUE: usart_clock_enable:usart_periph <- $r0
	@DEBUG_VALUE: usart_clock_enable:usart_periph <- $r0
	.loc	5 607 30 prologue_end   @ ../Basic/Source/gd32e23x_usart.c:607:30
	ldr	r1, [r0]
	movs	r2, #1
	bics	r1, r2
	str	r1, [r0]
	.loc	5 609 30                @ ../Basic/Source/gd32e23x_usart.c:609:30
	ldr	r1, [r0, #4]
	movw	r2, #2048
	orrs	r2, r1
	str	r2, [r0, #4]
	.loc	5 610 1                 @ ../Basic/Source/gd32e23x_usart.c:610:1
	bx	lr
.Ltmp98:
.Lfunc_end33:
	.size	usart_clock_enable, .Lfunc_end33-usart_clock_enable
	.cfi_endproc
	.cantunwind
	.fnend
                                        @ -- End function
	.section	.text.usart_clock_disable,"ax",%progbits
	.hidden	usart_clock_disable     @ -- Begin function usart_clock_disable
	.globl	usart_clock_disable
	.p2align	1
	.type	usart_clock_disable,%function
	.code	16                      @ @usart_clock_disable
	.thumb_func
usart_clock_disable:
.Lfunc_begin34:
	.loc	5 619 0                 @ ../Basic/Source/gd32e23x_usart.c:619:0
	.fnstart
	.cfi_startproc
@ %bb.0:
	@DEBUG_VALUE: usart_clock_disable:usart_periph <- $r0
	@DEBUG_VALUE: usart_clock_disable:usart_periph <- $r0
	.loc	5 621 30 prologue_end   @ ../Basic/Source/gd32e23x_usart.c:621:30
	ldr	r1, [r0]
	movs	r2, #1
	bics	r1, r2
	str	r1, [r0]
	.loc	5 623 30                @ ../Basic/Source/gd32e23x_usart.c:623:30
	ldr	r1, [r0, #4]
	movw	r2, #2048
	bics	r1, r2
	str	r1, [r0, #4]
	.loc	5 624 1                 @ ../Basic/Source/gd32e23x_usart.c:624:1
	bx	lr
.Ltmp99:
.Lfunc_end34:
	.size	usart_clock_disable, .Lfunc_end34-usart_clock_disable
	.cfi_endproc
	.cantunwind
	.fnend
                                        @ -- End function
	.section	.text.usart_synchronous_clock_config,"ax",%progbits
	.hidden	usart_synchronous_clock_config @ -- Begin function usart_synchronous_clock_config
	.globl	usart_synchronous_clock_config
	.p2align	1
	.type	usart_synchronous_clock_config,%function
	.code	16                      @ @usart_synchronous_clock_config
	.thumb_func
usart_synchronous_clock_config:
.Lfunc_begin35:
	.loc	5 645 0                 @ ../Basic/Source/gd32e23x_usart.c:645:0
	.fnstart
	.cfi_startproc
@ %bb.0:
	@DEBUG_VALUE: usart_synchronous_clock_config:usart_periph <- $r0
	@DEBUG_VALUE: usart_synchronous_clock_config:usart_periph <- $r0
	@DEBUG_VALUE: usart_synchronous_clock_config:clen <- $r1
	@DEBUG_VALUE: usart_synchronous_clock_config:clen <- $r1
	@DEBUG_VALUE: usart_synchronous_clock_config:cph <- $r2
	@DEBUG_VALUE: usart_synchronous_clock_config:cph <- $r2
	@DEBUG_VALUE: usart_synchronous_clock_config:cpl <- $r3
	@DEBUG_VALUE: usart_synchronous_clock_config:cpl <- $r3
	.save	{r4, r5, r7, lr}
	push	{r4, r5, r7, lr}
	.cfi_def_cfa_offset 16
	.cfi_offset lr, -4
	.cfi_offset r7, -8
	.cfi_offset r5, -12
	.cfi_offset r4, -16
.Ltmp100:
	.loc	5 647 30 prologue_end   @ ../Basic/Source/gd32e23x_usart.c:647:30
	ldr	r4, [r0]
	movs	r5, #1
	bics	r4, r5
	str	r4, [r0]
	.loc	5 649 30                @ ../Basic/Source/gd32e23x_usart.c:649:30
	ldr	r4, [r0, #4]
	movw	r5, #1792
	bics	r4, r5
	str	r4, [r0, #4]
	movw	r4, #256
	.loc	5 651 50                @ ../Basic/Source/gd32e23x_usart.c:651:50
	ands	r4, r1
	.loc	5 651 30 is_stmt 0      @ ../Basic/Source/gd32e23x_usart.c:651:30
	ldr	r1, [r0, #4]
.Ltmp101:
	orrs	r1, r4
	str	r1, [r0, #4]
	movw	r1, #512
	.loc	5 652 49 is_stmt 1      @ ../Basic/Source/gd32e23x_usart.c:652:49
	ands	r1, r2
	.loc	5 652 30 is_stmt 0      @ ../Basic/Source/gd32e23x_usart.c:652:30
	ldr	r2, [r0, #4]
.Ltmp102:
	orrs	r2, r1
	str	r2, [r0, #4]
	movw	r1, #1024
	.loc	5 653 49 is_stmt 1      @ ../Basic/Source/gd32e23x_usart.c:653:49
	ands	r1, r3
	.loc	5 653 30 is_stmt 0      @ ../Basic/Source/gd32e23x_usart.c:653:30
	ldr	r2, [r0, #4]
	orrs	r2, r1
	str	r2, [r0, #4]
	.loc	5 654 1 is_stmt 1       @ ../Basic/Source/gd32e23x_usart.c:654:1
	pop	{r4, r5, r7, pc}
.Ltmp103:
.Lfunc_end35:
	.size	usart_synchronous_clock_config, .Lfunc_end35-usart_synchronous_clock_config
	.cfi_endproc
	.cantunwind
	.fnend
                                        @ -- End function
	.section	.text.usart_guard_time_config,"ax",%progbits
	.hidden	usart_guard_time_config @ -- Begin function usart_guard_time_config
	.globl	usart_guard_time_config
	.p2align	1
	.type	usart_guard_time_config,%function
	.code	16                      @ @usart_guard_time_config
	.thumb_func
usart_guard_time_config:
.Lfunc_begin36:
	.loc	5 664 0                 @ ../Basic/Source/gd32e23x_usart.c:664:0
	.fnstart
	.cfi_startproc
@ %bb.0:
	@DEBUG_VALUE: usart_guard_time_config:usart_periph <- $r0
	@DEBUG_VALUE: usart_guard_time_config:usart_periph <- $r0
	@DEBUG_VALUE: usart_guard_time_config:guat <- $r1
	@DEBUG_VALUE: usart_guard_time_config:guat <- $r1
	.loc	5 666 30 prologue_end   @ ../Basic/Source/gd32e23x_usart.c:666:30
	ldr	r2, [r0]
	movs	r3, #1
	bics	r2, r3
	str	r2, [r0]
	.loc	5 668 28                @ ../Basic/Source/gd32e23x_usart.c:668:28
	ldr	r2, [r0, #16]
	movw	r3, #65280
	bics	r2, r3
	str	r2, [r0, #16]
	.loc	5 669 56                @ ../Basic/Source/gd32e23x_usart.c:669:56
	lsls	r1, r1, #8
.Ltmp104:
	.loc	5 669 46 is_stmt 0      @ ../Basic/Source/gd32e23x_usart.c:669:46
	uxth	r1, r1
	.loc	5 669 28                @ ../Basic/Source/gd32e23x_usart.c:669:28
	ldr	r2, [r0, #16]
	orrs	r2, r1
	str	r2, [r0, #16]
	.loc	5 670 1 is_stmt 1       @ ../Basic/Source/gd32e23x_usart.c:670:1
	bx	lr
.Ltmp105:
.Lfunc_end36:
	.size	usart_guard_time_config, .Lfunc_end36-usart_guard_time_config
	.cfi_endproc
	.cantunwind
	.fnend
                                        @ -- End function
	.section	.text.usart_smartcard_mode_enable,"ax",%progbits
	.hidden	usart_smartcard_mode_enable @ -- Begin function usart_smartcard_mode_enable
	.globl	usart_smartcard_mode_enable
	.p2align	1
	.type	usart_smartcard_mode_enable,%function
	.code	16                      @ @usart_smartcard_mode_enable
	.thumb_func
usart_smartcard_mode_enable:
.Lfunc_begin37:
	.loc	5 679 0                 @ ../Basic/Source/gd32e23x_usart.c:679:0
	.fnstart
	.cfi_startproc
@ %bb.0:
	@DEBUG_VALUE: usart_smartcard_mode_enable:usart_periph <- $r0
	@DEBUG_VALUE: usart_smartcard_mode_enable:usart_periph <- $r0
	.loc	5 681 30 prologue_end   @ ../Basic/Source/gd32e23x_usart.c:681:30
	ldr	r1, [r0]
	movs	r2, #1
	bics	r1, r2
	str	r1, [r0]
	.loc	5 683 30                @ ../Basic/Source/gd32e23x_usart.c:683:30
	ldr	r1, [r0, #8]
	movs	r2, #32
	orrs	r2, r1
	str	r2, [r0, #8]
	.loc	5 684 1                 @ ../Basic/Source/gd32e23x_usart.c:684:1
	bx	lr
.Ltmp106:
.Lfunc_end37:
	.size	usart_smartcard_mode_enable, .Lfunc_end37-usart_smartcard_mode_enable
	.cfi_endproc
	.cantunwind
	.fnend
                                        @ -- End function
	.section	.text.usart_smartcard_mode_disable,"ax",%progbits
	.hidden	usart_smartcard_mode_disable @ -- Begin function usart_smartcard_mode_disable
	.globl	usart_smartcard_mode_disable
	.p2align	1
	.type	usart_smartcard_mode_disable,%function
	.code	16                      @ @usart_smartcard_mode_disable
	.thumb_func
usart_smartcard_mode_disable:
.Lfunc_begin38:
	.loc	5 693 0                 @ ../Basic/Source/gd32e23x_usart.c:693:0
	.fnstart
	.cfi_startproc
@ %bb.0:
	@DEBUG_VALUE: usart_smartcard_mode_disable:usart_periph <- $r0
	@DEBUG_VALUE: usart_smartcard_mode_disable:usart_periph <- $r0
	.loc	5 695 30 prologue_end   @ ../Basic/Source/gd32e23x_usart.c:695:30
	ldr	r1, [r0]
	movs	r2, #1
	bics	r1, r2
	str	r1, [r0]
	.loc	5 697 30                @ ../Basic/Source/gd32e23x_usart.c:697:30
	ldr	r1, [r0, #8]
	movs	r2, #32
	bics	r1, r2
	str	r1, [r0, #8]
	.loc	5 698 1                 @ ../Basic/Source/gd32e23x_usart.c:698:1
	bx	lr
.Ltmp107:
.Lfunc_end38:
	.size	usart_smartcard_mode_disable, .Lfunc_end38-usart_smartcard_mode_disable
	.cfi_endproc
	.cantunwind
	.fnend
                                        @ -- End function
	.section	.text.usart_smartcard_mode_nack_enable,"ax",%progbits
	.hidden	usart_smartcard_mode_nack_enable @ -- Begin function usart_smartcard_mode_nack_enable
	.globl	usart_smartcard_mode_nack_enable
	.p2align	1
	.type	usart_smartcard_mode_nack_enable,%function
	.code	16                      @ @usart_smartcard_mode_nack_enable
	.thumb_func
usart_smartcard_mode_nack_enable:
.Lfunc_begin39:
	.loc	5 707 0                 @ ../Basic/Source/gd32e23x_usart.c:707:0
	.fnstart
	.cfi_startproc
@ %bb.0:
	@DEBUG_VALUE: usart_smartcard_mode_nack_enable:usart_periph <- $r0
	@DEBUG_VALUE: usart_smartcard_mode_nack_enable:usart_periph <- $r0
	.loc	5 709 30 prologue_end   @ ../Basic/Source/gd32e23x_usart.c:709:30
	ldr	r1, [r0]
	movs	r2, #1
	bics	r1, r2
	str	r1, [r0]
	.loc	5 711 30                @ ../Basic/Source/gd32e23x_usart.c:711:30
	ldr	r1, [r0, #8]
	movs	r2, #16
	orrs	r2, r1
	str	r2, [r0, #8]
	.loc	5 712 1                 @ ../Basic/Source/gd32e23x_usart.c:712:1
	bx	lr
.Ltmp108:
.Lfunc_end39:
	.size	usart_smartcard_mode_nack_enable, .Lfunc_end39-usart_smartcard_mode_nack_enable
	.cfi_endproc
	.cantunwind
	.fnend
                                        @ -- End function
	.section	.text.usart_smartcard_mode_nack_disable,"ax",%progbits
	.hidden	usart_smartcard_mode_nack_disable @ -- Begin function usart_smartcard_mode_nack_disable
	.globl	usart_smartcard_mode_nack_disable
	.p2align	1
	.type	usart_smartcard_mode_nack_disable,%function
	.code	16                      @ @usart_smartcard_mode_nack_disable
	.thumb_func
usart_smartcard_mode_nack_disable:
.Lfunc_begin40:
	.loc	5 721 0                 @ ../Basic/Source/gd32e23x_usart.c:721:0
	.fnstart
	.cfi_startproc
@ %bb.0:
	@DEBUG_VALUE: usart_smartcard_mode_nack_disable:usart_periph <- $r0
	@DEBUG_VALUE: usart_smartcard_mode_nack_disable:usart_periph <- $r0
	.loc	5 723 30 prologue_end   @ ../Basic/Source/gd32e23x_usart.c:723:30
	ldr	r1, [r0]
	movs	r2, #1
	bics	r1, r2
	str	r1, [r0]
	.loc	5 725 30                @ ../Basic/Source/gd32e23x_usart.c:725:30
	ldr	r1, [r0, #8]
	movs	r2, #16
	bics	r1, r2
	str	r1, [r0, #8]
	.loc	5 726 1                 @ ../Basic/Source/gd32e23x_usart.c:726:1
	bx	lr
.Ltmp109:
.Lfunc_end40:
	.size	usart_smartcard_mode_nack_disable, .Lfunc_end40-usart_smartcard_mode_nack_disable
	.cfi_endproc
	.cantunwind
	.fnend
                                        @ -- End function
	.section	.text.usart_smartcard_mode_early_nack_enable,"ax",%progbits
	.hidden	usart_smartcard_mode_early_nack_enable @ -- Begin function usart_smartcard_mode_early_nack_enable
	.globl	usart_smartcard_mode_early_nack_enable
	.p2align	1
	.type	usart_smartcard_mode_early_nack_enable,%function
	.code	16                      @ @usart_smartcard_mode_early_nack_enable
	.thumb_func
usart_smartcard_mode_early_nack_enable:
.Lfunc_begin41:
	.loc	5 735 0                 @ ../Basic/Source/gd32e23x_usart.c:735:0
	.fnstart
	.cfi_startproc
@ %bb.0:
	@DEBUG_VALUE: usart_smartcard_mode_early_nack_enable:usart_periph <- $r0
	@DEBUG_VALUE: usart_smartcard_mode_early_nack_enable:usart_periph <- $r0
	movs	r1, #208
.Ltmp110:
	.loc	5 736 30 prologue_end   @ ../Basic/Source/gd32e23x_usart.c:736:30
	ldr	r2, [r0, r1]
	movs	r3, #1
	orrs	r3, r2
	str	r3, [r0, r1]
	.loc	5 737 1                 @ ../Basic/Source/gd32e23x_usart.c:737:1
	bx	lr
.Ltmp111:
.Lfunc_end41:
	.size	usart_smartcard_mode_early_nack_enable, .Lfunc_end41-usart_smartcard_mode_early_nack_enable
	.cfi_endproc
	.cantunwind
	.fnend
                                        @ -- End function
	.section	.text.usart_smartcard_mode_early_nack_disable,"ax",%progbits
	.hidden	usart_smartcard_mode_early_nack_disable @ -- Begin function usart_smartcard_mode_early_nack_disable
	.globl	usart_smartcard_mode_early_nack_disable
	.p2align	1
	.type	usart_smartcard_mode_early_nack_disable,%function
	.code	16                      @ @usart_smartcard_mode_early_nack_disable
	.thumb_func
usart_smartcard_mode_early_nack_disable:
.Lfunc_begin42:
	.loc	5 746 0                 @ ../Basic/Source/gd32e23x_usart.c:746:0
	.fnstart
	.cfi_startproc
@ %bb.0:
	@DEBUG_VALUE: usart_smartcard_mode_early_nack_disable:usart_periph <- $r0
	@DEBUG_VALUE: usart_smartcard_mode_early_nack_disable:usart_periph <- $r0
	movs	r1, #208
.Ltmp112:
	.loc	5 747 30 prologue_end   @ ../Basic/Source/gd32e23x_usart.c:747:30
	ldr	r2, [r0, r1]
	movs	r3, #1
	bics	r2, r3
	str	r2, [r0, r1]
	.loc	5 748 1                 @ ../Basic/Source/gd32e23x_usart.c:748:1
	bx	lr
.Ltmp113:
.Lfunc_end42:
	.size	usart_smartcard_mode_early_nack_disable, .Lfunc_end42-usart_smartcard_mode_early_nack_disable
	.cfi_endproc
	.cantunwind
	.fnend
                                        @ -- End function
	.section	.text.usart_smartcard_autoretry_config,"ax",%progbits
	.hidden	usart_smartcard_autoretry_config @ -- Begin function usart_smartcard_autoretry_config
	.globl	usart_smartcard_autoretry_config
	.p2align	1
	.type	usart_smartcard_autoretry_config,%function
	.code	16                      @ @usart_smartcard_autoretry_config
	.thumb_func
usart_smartcard_autoretry_config:
.Lfunc_begin43:
	.loc	5 758 0                 @ ../Basic/Source/gd32e23x_usart.c:758:0
	.fnstart
	.cfi_startproc
@ %bb.0:
	@DEBUG_VALUE: usart_smartcard_autoretry_config:usart_periph <- $r0
	@DEBUG_VALUE: usart_smartcard_autoretry_config:usart_periph <- $r0
	@DEBUG_VALUE: usart_smartcard_autoretry_config:scrtnum <- $r1
	@DEBUG_VALUE: usart_smartcard_autoretry_config:scrtnum <- $r1
	.loc	5 760 30 prologue_end   @ ../Basic/Source/gd32e23x_usart.c:760:30
	ldr	r2, [r0]
	movs	r3, #1
	bics	r2, r3
	str	r2, [r0]
	movs	r2, #7
	lsls	r2, r2, #17
	.loc	5 761 30                @ ../Basic/Source/gd32e23x_usart.c:761:30
	ldr	r3, [r0, #8]
	bics	r3, r2
	str	r3, [r0, #8]
	.loc	5 762 53                @ ../Basic/Source/gd32e23x_usart.c:762:53
	lsls	r1, r1, #29
.Ltmp114:
	lsrs	r1, r1, #12
	.loc	5 762 30 is_stmt 0      @ ../Basic/Source/gd32e23x_usart.c:762:30
	ldr	r2, [r0, #8]
	orrs	r2, r1
	str	r2, [r0, #8]
	.loc	5 763 1 is_stmt 1       @ ../Basic/Source/gd32e23x_usart.c:763:1
	bx	lr
.Ltmp115:
.Lfunc_end43:
	.size	usart_smartcard_autoretry_config, .Lfunc_end43-usart_smartcard_autoretry_config
	.cfi_endproc
	.cantunwind
	.fnend
                                        @ -- End function
	.section	.text.usart_block_length_config,"ax",%progbits
	.hidden	usart_block_length_config @ -- Begin function usart_block_length_config
	.globl	usart_block_length_config
	.p2align	1
	.type	usart_block_length_config,%function
	.code	16                      @ @usart_block_length_config
	.thumb_func
usart_block_length_config:
.Lfunc_begin44:
	.loc	5 773 0                 @ ../Basic/Source/gd32e23x_usart.c:773:0
	.fnstart
	.cfi_startproc
@ %bb.0:
	@DEBUG_VALUE: usart_block_length_config:usart_periph <- $r0
	@DEBUG_VALUE: usart_block_length_config:usart_periph <- $r0
	@DEBUG_VALUE: usart_block_length_config:bl <- $r1
	@DEBUG_VALUE: usart_block_length_config:bl <- $r1
	movs	r2, #255
	lsls	r2, r2, #24
.Ltmp116:
	.loc	5 774 28 prologue_end   @ ../Basic/Source/gd32e23x_usart.c:774:28
	ldr	r3, [r0, #20]
	bics	r3, r2
	str	r3, [r0, #20]
	.loc	5 775 52                @ ../Basic/Source/gd32e23x_usart.c:775:52
	lsls	r1, r1, #24
.Ltmp117:
	.loc	5 775 28 is_stmt 0      @ ../Basic/Source/gd32e23x_usart.c:775:28
	ldr	r2, [r0, #20]
	orrs	r2, r1
	str	r2, [r0, #20]
	.loc	5 776 1 is_stmt 1       @ ../Basic/Source/gd32e23x_usart.c:776:1
	bx	lr
.Ltmp118:
.Lfunc_end44:
	.size	usart_block_length_config, .Lfunc_end44-usart_block_length_config
	.cfi_endproc
	.cantunwind
	.fnend
                                        @ -- End function
	.section	.text.usart_irda_mode_enable,"ax",%progbits
	.hidden	usart_irda_mode_enable  @ -- Begin function usart_irda_mode_enable
	.globl	usart_irda_mode_enable
	.p2align	1
	.type	usart_irda_mode_enable,%function
	.code	16                      @ @usart_irda_mode_enable
	.thumb_func
usart_irda_mode_enable:
.Lfunc_begin45:
	.loc	5 785 0                 @ ../Basic/Source/gd32e23x_usart.c:785:0
	.fnstart
	.cfi_startproc
@ %bb.0:
	@DEBUG_VALUE: usart_irda_mode_enable:usart_periph <- $r0
	@DEBUG_VALUE: usart_irda_mode_enable:usart_periph <- $r0
	.loc	5 787 30 prologue_end   @ ../Basic/Source/gd32e23x_usart.c:787:30
	ldr	r1, [r0]
	movs	r2, #1
	bics	r1, r2
	str	r1, [r0]
	.loc	5 789 30                @ ../Basic/Source/gd32e23x_usart.c:789:30
	ldr	r1, [r0, #8]
	movs	r2, #2
	orrs	r2, r1
	str	r2, [r0, #8]
	.loc	5 790 1                 @ ../Basic/Source/gd32e23x_usart.c:790:1
	bx	lr
.Ltmp119:
.Lfunc_end45:
	.size	usart_irda_mode_enable, .Lfunc_end45-usart_irda_mode_enable
	.cfi_endproc
	.cantunwind
	.fnend
                                        @ -- End function
	.section	.text.usart_irda_mode_disable,"ax",%progbits
	.hidden	usart_irda_mode_disable @ -- Begin function usart_irda_mode_disable
	.globl	usart_irda_mode_disable
	.p2align	1
	.type	usart_irda_mode_disable,%function
	.code	16                      @ @usart_irda_mode_disable
	.thumb_func
usart_irda_mode_disable:
.Lfunc_begin46:
	.loc	5 799 0                 @ ../Basic/Source/gd32e23x_usart.c:799:0
	.fnstart
	.cfi_startproc
@ %bb.0:
	@DEBUG_VALUE: usart_irda_mode_disable:usart_periph <- $r0
	@DEBUG_VALUE: usart_irda_mode_disable:usart_periph <- $r0
	.loc	5 801 30 prologue_end   @ ../Basic/Source/gd32e23x_usart.c:801:30
	ldr	r1, [r0]
	movs	r2, #1
	bics	r1, r2
	str	r1, [r0]
	.loc	5 803 30                @ ../Basic/Source/gd32e23x_usart.c:803:30
	ldr	r1, [r0, #8]
	movs	r2, #2
	bics	r1, r2
	str	r1, [r0, #8]
	.loc	5 804 1                 @ ../Basic/Source/gd32e23x_usart.c:804:1
	bx	lr
.Ltmp120:
.Lfunc_end46:
	.size	usart_irda_mode_disable, .Lfunc_end46-usart_irda_mode_disable
	.cfi_endproc
	.cantunwind
	.fnend
                                        @ -- End function
	.section	.text.usart_prescaler_config,"ax",%progbits
	.hidden	usart_prescaler_config  @ -- Begin function usart_prescaler_config
	.globl	usart_prescaler_config
	.p2align	1
	.type	usart_prescaler_config,%function
	.code	16                      @ @usart_prescaler_config
	.thumb_func
usart_prescaler_config:
.Lfunc_begin47:
	.loc	5 814 0                 @ ../Basic/Source/gd32e23x_usart.c:814:0
	.fnstart
	.cfi_startproc
@ %bb.0:
	@DEBUG_VALUE: usart_prescaler_config:usart_periph <- $r0
	@DEBUG_VALUE: usart_prescaler_config:usart_periph <- $r0
	@DEBUG_VALUE: usart_prescaler_config:psc <- $r1
	@DEBUG_VALUE: usart_prescaler_config:psc <- $r1
	.loc	5 816 30 prologue_end   @ ../Basic/Source/gd32e23x_usart.c:816:30
	ldr	r2, [r0]
	movs	r3, #1
	bics	r2, r3
	str	r2, [r0]
	.loc	5 817 28                @ ../Basic/Source/gd32e23x_usart.c:817:28
	ldr	r2, [r0, #16]
	movs	r3, #255
	bics	r2, r3
	str	r2, [r0, #16]
	.loc	5 818 28                @ ../Basic/Source/gd32e23x_usart.c:818:28
	ldr	r2, [r0, #16]
	orrs	r2, r1
	str	r2, [r0, #16]
	.loc	5 819 1                 @ ../Basic/Source/gd32e23x_usart.c:819:1
	bx	lr
.Ltmp121:
.Lfunc_end47:
	.size	usart_prescaler_config, .Lfunc_end47-usart_prescaler_config
	.cfi_endproc
	.cantunwind
	.fnend
                                        @ -- End function
	.section	.text.usart_irda_lowpower_config,"ax",%progbits
	.hidden	usart_irda_lowpower_config @ -- Begin function usart_irda_lowpower_config
	.globl	usart_irda_lowpower_config
	.p2align	1
	.type	usart_irda_lowpower_config,%function
	.code	16                      @ @usart_irda_lowpower_config
	.thumb_func
usart_irda_lowpower_config:
.Lfunc_begin48:
	.loc	5 832 0                 @ ../Basic/Source/gd32e23x_usart.c:832:0
	.fnstart
	.cfi_startproc
@ %bb.0:
	@DEBUG_VALUE: usart_irda_lowpower_config:usart_periph <- $r0
	@DEBUG_VALUE: usart_irda_lowpower_config:usart_periph <- $r0
	@DEBUG_VALUE: usart_irda_lowpower_config:irlp <- $r1
	@DEBUG_VALUE: usart_irda_lowpower_config:irlp <- $r1
	.loc	5 834 30 prologue_end   @ ../Basic/Source/gd32e23x_usart.c:834:30
	ldr	r2, [r0]
	movs	r3, #1
	bics	r2, r3
	str	r2, [r0]
	.loc	5 835 30                @ ../Basic/Source/gd32e23x_usart.c:835:30
	ldr	r2, [r0, #8]
	movs	r3, #4
	bics	r2, r3
	str	r2, [r0, #8]
	.loc	5 836 50                @ ../Basic/Source/gd32e23x_usart.c:836:50
	ands	r1, r3
.Ltmp122:
	.loc	5 836 30 is_stmt 0      @ ../Basic/Source/gd32e23x_usart.c:836:30
	ldr	r2, [r0, #8]
	orrs	r2, r1
	str	r2, [r0, #8]
	.loc	5 837 1 is_stmt 1       @ ../Basic/Source/gd32e23x_usart.c:837:1
	bx	lr
.Ltmp123:
.Lfunc_end48:
	.size	usart_irda_lowpower_config, .Lfunc_end48-usart_irda_lowpower_config
	.cfi_endproc
	.cantunwind
	.fnend
                                        @ -- End function
	.section	.text.usart_hardware_flow_rts_config,"ax",%progbits
	.hidden	usart_hardware_flow_rts_config @ -- Begin function usart_hardware_flow_rts_config
	.globl	usart_hardware_flow_rts_config
	.p2align	1
	.type	usart_hardware_flow_rts_config,%function
	.code	16                      @ @usart_hardware_flow_rts_config
	.thumb_func
usart_hardware_flow_rts_config:
.Lfunc_begin49:
	.loc	5 850 0                 @ ../Basic/Source/gd32e23x_usart.c:850:0
	.fnstart
	.cfi_startproc
@ %bb.0:
	@DEBUG_VALUE: usart_hardware_flow_rts_config:usart_periph <- $r0
	@DEBUG_VALUE: usart_hardware_flow_rts_config:usart_periph <- $r0
	@DEBUG_VALUE: usart_hardware_flow_rts_config:rtsconfig <- $r1
	@DEBUG_VALUE: usart_hardware_flow_rts_config:rtsconfig <- $r1
	.loc	5 852 30 prologue_end   @ ../Basic/Source/gd32e23x_usart.c:852:30
	ldr	r2, [r0]
	movs	r3, #1
	bics	r2, r3
	str	r2, [r0]
	.loc	5 854 30                @ ../Basic/Source/gd32e23x_usart.c:854:30
	ldr	r2, [r0, #8]
	movw	r3, #256
	bics	r2, r3
	str	r2, [r0, #8]
	.loc	5 855 30                @ ../Basic/Source/gd32e23x_usart.c:855:30
	ldr	r2, [r0, #8]
	orrs	r2, r1
	str	r2, [r0, #8]
	.loc	5 856 1                 @ ../Basic/Source/gd32e23x_usart.c:856:1
	bx	lr
.Ltmp124:
.Lfunc_end49:
	.size	usart_hardware_flow_rts_config, .Lfunc_end49-usart_hardware_flow_rts_config
	.cfi_endproc
	.cantunwind
	.fnend
                                        @ -- End function
	.section	.text.usart_hardware_flow_cts_config,"ax",%progbits
	.hidden	usart_hardware_flow_cts_config @ -- Begin function usart_hardware_flow_cts_config
	.globl	usart_hardware_flow_cts_config
	.p2align	1
	.type	usart_hardware_flow_cts_config,%function
	.code	16                      @ @usart_hardware_flow_cts_config
	.thumb_func
usart_hardware_flow_cts_config:
.Lfunc_begin50:
	.loc	5 869 0                 @ ../Basic/Source/gd32e23x_usart.c:869:0
	.fnstart
	.cfi_startproc
@ %bb.0:
	@DEBUG_VALUE: usart_hardware_flow_cts_config:usart_periph <- $r0
	@DEBUG_VALUE: usart_hardware_flow_cts_config:usart_periph <- $r0
	@DEBUG_VALUE: usart_hardware_flow_cts_config:ctsconfig <- $r1
	@DEBUG_VALUE: usart_hardware_flow_cts_config:ctsconfig <- $r1
	.loc	5 871 30 prologue_end   @ ../Basic/Source/gd32e23x_usart.c:871:30
	ldr	r2, [r0]
	movs	r3, #1
	bics	r2, r3
	str	r2, [r0]
	.loc	5 873 30                @ ../Basic/Source/gd32e23x_usart.c:873:30
	ldr	r2, [r0, #8]
	movw	r3, #512
	bics	r2, r3
	str	r2, [r0, #8]
	.loc	5 874 30                @ ../Basic/Source/gd32e23x_usart.c:874:30
	ldr	r2, [r0, #8]
	orrs	r2, r1
	str	r2, [r0, #8]
	.loc	5 875 1                 @ ../Basic/Source/gd32e23x_usart.c:875:1
	bx	lr
.Ltmp125:
.Lfunc_end50:
	.size	usart_hardware_flow_cts_config, .Lfunc_end50-usart_hardware_flow_cts_config
	.cfi_endproc
	.cantunwind
	.fnend
                                        @ -- End function
	.section	.text.usart_hardware_flow_coherence_config,"ax",%progbits
	.hidden	usart_hardware_flow_coherence_config @ -- Begin function usart_hardware_flow_coherence_config
	.globl	usart_hardware_flow_coherence_config
	.p2align	1
	.type	usart_hardware_flow_coherence_config,%function
	.code	16                      @ @usart_hardware_flow_coherence_config
	.thumb_func
usart_hardware_flow_coherence_config:
.Lfunc_begin51:
	.loc	5 888 0                 @ ../Basic/Source/gd32e23x_usart.c:888:0
	.fnstart
	.cfi_startproc
@ %bb.0:
	@DEBUG_VALUE: usart_hardware_flow_coherence_config:usart_periph <- $r0
	@DEBUG_VALUE: usart_hardware_flow_coherence_config:usart_periph <- $r0
	@DEBUG_VALUE: usart_hardware_flow_coherence_config:hcm <- $r1
	@DEBUG_VALUE: usart_hardware_flow_coherence_config:hcm <- $r1
	.save	{r4, lr}
	push	{r4, lr}
	.cfi_def_cfa_offset 8
	.cfi_offset lr, -4
	.cfi_offset r4, -8
	movs	r2, #192
.Ltmp126:
	.loc	5 889 29 prologue_end   @ ../Basic/Source/gd32e23x_usart.c:889:29
	ldr	r3, [r0, r2]
	movs	r4, #1
	bics	r3, r4
	str	r3, [r0, r2]
	.loc	5 890 47                @ ../Basic/Source/gd32e23x_usart.c:890:47
	ands	r1, r4
.Ltmp127:
	.loc	5 890 29 is_stmt 0      @ ../Basic/Source/gd32e23x_usart.c:890:29
	ldr	r3, [r0, r2]
	orrs	r3, r1
	str	r3, [r0, r2]
	.loc	5 891 1 is_stmt 1       @ ../Basic/Source/gd32e23x_usart.c:891:1
	pop	{r4, pc}
.Ltmp128:
.Lfunc_end51:
	.size	usart_hardware_flow_coherence_config, .Lfunc_end51-usart_hardware_flow_coherence_config
	.cfi_endproc
	.cantunwind
	.fnend
                                        @ -- End function
	.section	.text.usart_rs485_driver_enable,"ax",%progbits
	.hidden	usart_rs485_driver_enable @ -- Begin function usart_rs485_driver_enable
	.globl	usart_rs485_driver_enable
	.p2align	1
	.type	usart_rs485_driver_enable,%function
	.code	16                      @ @usart_rs485_driver_enable
	.thumb_func
usart_rs485_driver_enable:
.Lfunc_begin52:
	.loc	5 900 0                 @ ../Basic/Source/gd32e23x_usart.c:900:0
	.fnstart
	.cfi_startproc
@ %bb.0:
	@DEBUG_VALUE: usart_rs485_driver_enable:usart_periph <- $r0
	@DEBUG_VALUE: usart_rs485_driver_enable:usart_periph <- $r0
	.loc	5 902 30 prologue_end   @ ../Basic/Source/gd32e23x_usart.c:902:30
	ldr	r1, [r0]
	movs	r2, #1
	bics	r1, r2
	str	r1, [r0]
	.loc	5 904 30                @ ../Basic/Source/gd32e23x_usart.c:904:30
	ldr	r1, [r0, #8]
	movw	r2, #16384
	orrs	r2, r1
	str	r2, [r0, #8]
	.loc	5 905 1                 @ ../Basic/Source/gd32e23x_usart.c:905:1
	bx	lr
.Ltmp129:
.Lfunc_end52:
	.size	usart_rs485_driver_enable, .Lfunc_end52-usart_rs485_driver_enable
	.cfi_endproc
	.cantunwind
	.fnend
                                        @ -- End function
	.section	.text.usart_rs485_driver_disable,"ax",%progbits
	.hidden	usart_rs485_driver_disable @ -- Begin function usart_rs485_driver_disable
	.globl	usart_rs485_driver_disable
	.p2align	1
	.type	usart_rs485_driver_disable,%function
	.code	16                      @ @usart_rs485_driver_disable
	.thumb_func
usart_rs485_driver_disable:
.Lfunc_begin53:
	.loc	5 914 0                 @ ../Basic/Source/gd32e23x_usart.c:914:0
	.fnstart
	.cfi_startproc
@ %bb.0:
	@DEBUG_VALUE: usart_rs485_driver_disable:usart_periph <- $r0
	@DEBUG_VALUE: usart_rs485_driver_disable:usart_periph <- $r0
	.loc	5 916 30 prologue_end   @ ../Basic/Source/gd32e23x_usart.c:916:30
	ldr	r1, [r0]
	movs	r2, #1
	bics	r1, r2
	str	r1, [r0]
	.loc	5 918 30                @ ../Basic/Source/gd32e23x_usart.c:918:30
	ldr	r1, [r0, #8]
	movw	r2, #16384
	bics	r1, r2
	str	r1, [r0, #8]
	.loc	5 919 1                 @ ../Basic/Source/gd32e23x_usart.c:919:1
	bx	lr
.Ltmp130:
.Lfunc_end53:
	.size	usart_rs485_driver_disable, .Lfunc_end53-usart_rs485_driver_disable
	.cfi_endproc
	.cantunwind
	.fnend
                                        @ -- End function
	.section	.text.usart_driver_assertime_config,"ax",%progbits
	.hidden	usart_driver_assertime_config @ -- Begin function usart_driver_assertime_config
	.globl	usart_driver_assertime_config
	.p2align	1
	.type	usart_driver_assertime_config,%function
	.code	16                      @ @usart_driver_assertime_config
	.thumb_func
usart_driver_assertime_config:
.Lfunc_begin54:
	.loc	5 929 0                 @ ../Basic/Source/gd32e23x_usart.c:929:0
	.fnstart
	.cfi_startproc
@ %bb.0:
	@DEBUG_VALUE: usart_driver_assertime_config:usart_periph <- $r0
	@DEBUG_VALUE: usart_driver_assertime_config:usart_periph <- $r0
	@DEBUG_VALUE: usart_driver_assertime_config:deatime <- $r1
	@DEBUG_VALUE: usart_driver_assertime_config:deatime <- $r1
	.loc	5 931 30 prologue_end   @ ../Basic/Source/gd32e23x_usart.c:931:30
	ldr	r2, [r0]
	movs	r3, #1
	bics	r2, r3
	str	r2, [r0]
	movs	r2, #31
	lsls	r2, r2, #21
	.loc	5 933 30                @ ../Basic/Source/gd32e23x_usart.c:933:30
	ldr	r3, [r0]
	bics	r3, r2
	str	r3, [r0]
	.loc	5 934 49                @ ../Basic/Source/gd32e23x_usart.c:934:49
	lsls	r1, r1, #27
.Ltmp131:
	lsrs	r1, r1, #6
	.loc	5 934 30 is_stmt 0      @ ../Basic/Source/gd32e23x_usart.c:934:30
	ldr	r2, [r0]
	orrs	r2, r1
	str	r2, [r0]
	.loc	5 935 1 is_stmt 1       @ ../Basic/Source/gd32e23x_usart.c:935:1
	bx	lr
.Ltmp132:
.Lfunc_end54:
	.size	usart_driver_assertime_config, .Lfunc_end54-usart_driver_assertime_config
	.cfi_endproc
	.cantunwind
	.fnend
                                        @ -- End function
	.section	.text.usart_driver_deassertime_config,"ax",%progbits
	.hidden	usart_driver_deassertime_config @ -- Begin function usart_driver_deassertime_config
	.globl	usart_driver_deassertime_config
	.p2align	1
	.type	usart_driver_deassertime_config,%function
	.code	16                      @ @usart_driver_deassertime_config
	.thumb_func
usart_driver_deassertime_config:
.Lfunc_begin55:
	.loc	5 945 0                 @ ../Basic/Source/gd32e23x_usart.c:945:0
	.fnstart
	.cfi_startproc
@ %bb.0:
	@DEBUG_VALUE: usart_driver_deassertime_config:usart_periph <- $r0
	@DEBUG_VALUE: usart_driver_deassertime_config:usart_periph <- $r0
	@DEBUG_VALUE: usart_driver_deassertime_config:dedtime <- $r1
	@DEBUG_VALUE: usart_driver_deassertime_config:dedtime <- $r1
	.loc	5 947 30 prologue_end   @ ../Basic/Source/gd32e23x_usart.c:947:30
	ldr	r2, [r0]
	movs	r3, #1
	bics	r2, r3
	str	r2, [r0]
	movs	r2, #31
	lsls	r2, r2, #16
	.loc	5 949 30                @ ../Basic/Source/gd32e23x_usart.c:949:30
	ldr	r3, [r0]
	bics	r3, r2
	str	r3, [r0]
	.loc	5 950 49                @ ../Basic/Source/gd32e23x_usart.c:950:49
	lsls	r1, r1, #27
.Ltmp133:
	lsrs	r1, r1, #11
	.loc	5 950 30 is_stmt 0      @ ../Basic/Source/gd32e23x_usart.c:950:30
	ldr	r2, [r0]
	orrs	r2, r1
	str	r2, [r0]
	.loc	5 951 1 is_stmt 1       @ ../Basic/Source/gd32e23x_usart.c:951:1
	bx	lr
.Ltmp134:
.Lfunc_end55:
	.size	usart_driver_deassertime_config, .Lfunc_end55-usart_driver_deassertime_config
	.cfi_endproc
	.cantunwind
	.fnend
                                        @ -- End function
	.section	.text.usart_depolarity_config,"ax",%progbits
	.hidden	usart_depolarity_config @ -- Begin function usart_depolarity_config
	.globl	usart_depolarity_config
	.p2align	1
	.type	usart_depolarity_config,%function
	.code	16                      @ @usart_depolarity_config
	.thumb_func
usart_depolarity_config:
.Lfunc_begin56:
	.loc	5 964 0                 @ ../Basic/Source/gd32e23x_usart.c:964:0
	.fnstart
	.cfi_startproc
@ %bb.0:
	@DEBUG_VALUE: usart_depolarity_config:usart_periph <- $r0
	@DEBUG_VALUE: usart_depolarity_config:usart_periph <- $r0
	@DEBUG_VALUE: usart_depolarity_config:dep <- $r1
	@DEBUG_VALUE: usart_depolarity_config:dep <- $r1
	.loc	5 966 30 prologue_end   @ ../Basic/Source/gd32e23x_usart.c:966:30
	ldr	r2, [r0]
	movs	r3, #1
	bics	r2, r3
	str	r2, [r0]
	.loc	5 968 30                @ ../Basic/Source/gd32e23x_usart.c:968:30
	ldr	r2, [r0, #8]
	movw	r3, #32768
	bics	r2, r3
	str	r2, [r0, #8]
	.loc	5 969 49                @ ../Basic/Source/gd32e23x_usart.c:969:49
	ands	r1, r3
.Ltmp135:
	.loc	5 969 30 is_stmt 0      @ ../Basic/Source/gd32e23x_usart.c:969:30
	ldr	r2, [r0, #8]
	orrs	r2, r1
	str	r2, [r0, #8]
	.loc	5 970 1 is_stmt 1       @ ../Basic/Source/gd32e23x_usart.c:970:1
	bx	lr
.Ltmp136:
.Lfunc_end56:
	.size	usart_depolarity_config, .Lfunc_end56-usart_depolarity_config
	.cfi_endproc
	.cantunwind
	.fnend
                                        @ -- End function
	.section	.text.usart_dma_receive_config,"ax",%progbits
	.hidden	usart_dma_receive_config @ -- Begin function usart_dma_receive_config
	.globl	usart_dma_receive_config
	.p2align	1
	.type	usart_dma_receive_config,%function
	.code	16                      @ @usart_dma_receive_config
	.thumb_func
usart_dma_receive_config:
.Lfunc_begin57:
	.loc	5 983 0                 @ ../Basic/Source/gd32e23x_usart.c:983:0
	.fnstart
	.cfi_startproc
@ %bb.0:
	@DEBUG_VALUE: usart_dma_receive_config:usart_periph <- $r0
	@DEBUG_VALUE: usart_dma_receive_config:usart_periph <- $r0
	@DEBUG_VALUE: usart_dma_receive_config:dmacmd <- $r1
	@DEBUG_VALUE: usart_dma_receive_config:dmacmd <- $r1
	.loc	5 984 30 prologue_end   @ ../Basic/Source/gd32e23x_usart.c:984:30
	ldr	r2, [r0, #8]
	movs	r3, #64
	bics	r2, r3
	str	r2, [r0, #8]
	.loc	5 986 30                @ ../Basic/Source/gd32e23x_usart.c:986:30
	ldr	r2, [r0, #8]
	orrs	r2, r1
	str	r2, [r0, #8]
	.loc	5 987 1                 @ ../Basic/Source/gd32e23x_usart.c:987:1
	bx	lr
.Ltmp137:
.Lfunc_end57:
	.size	usart_dma_receive_config, .Lfunc_end57-usart_dma_receive_config
	.cfi_endproc
	.cantunwind
	.fnend
                                        @ -- End function
	.section	.text.usart_dma_transmit_config,"ax",%progbits
	.hidden	usart_dma_transmit_config @ -- Begin function usart_dma_transmit_config
	.globl	usart_dma_transmit_config
	.p2align	1
	.type	usart_dma_transmit_config,%function
	.code	16                      @ @usart_dma_transmit_config
	.thumb_func
usart_dma_transmit_config:
.Lfunc_begin58:
	.loc	5 1000 0                @ ../Basic/Source/gd32e23x_usart.c:1000:0
	.fnstart
	.cfi_startproc
@ %bb.0:
	@DEBUG_VALUE: usart_dma_transmit_config:usart_periph <- $r0
	@DEBUG_VALUE: usart_dma_transmit_config:usart_periph <- $r0
	@DEBUG_VALUE: usart_dma_transmit_config:dmacmd <- $r1
	@DEBUG_VALUE: usart_dma_transmit_config:dmacmd <- $r1
	.loc	5 1001 30 prologue_end  @ ../Basic/Source/gd32e23x_usart.c:1001:30
	ldr	r2, [r0, #8]
	movs	r3, #128
	bics	r2, r3
	str	r2, [r0, #8]
	.loc	5 1003 30               @ ../Basic/Source/gd32e23x_usart.c:1003:30
	ldr	r2, [r0, #8]
	orrs	r2, r1
	str	r2, [r0, #8]
	.loc	5 1004 1                @ ../Basic/Source/gd32e23x_usart.c:1004:1
	bx	lr
.Ltmp138:
.Lfunc_end58:
	.size	usart_dma_transmit_config, .Lfunc_end58-usart_dma_transmit_config
	.cfi_endproc
	.cantunwind
	.fnend
                                        @ -- End function
	.section	.text.usart_reception_error_dma_disable,"ax",%progbits
	.hidden	usart_reception_error_dma_disable @ -- Begin function usart_reception_error_dma_disable
	.globl	usart_reception_error_dma_disable
	.p2align	1
	.type	usart_reception_error_dma_disable,%function
	.code	16                      @ @usart_reception_error_dma_disable
	.thumb_func
usart_reception_error_dma_disable:
.Lfunc_begin59:
	.loc	5 1013 0                @ ../Basic/Source/gd32e23x_usart.c:1013:0
	.fnstart
	.cfi_startproc
@ %bb.0:
	@DEBUG_VALUE: usart_reception_error_dma_disable:usart_periph <- $r0
	@DEBUG_VALUE: usart_reception_error_dma_disable:usart_periph <- $r0
	.loc	5 1015 30 prologue_end  @ ../Basic/Source/gd32e23x_usart.c:1015:30
	ldr	r1, [r0]
	movs	r2, #1
	bics	r1, r2
	str	r1, [r0]
	.loc	5 1017 30               @ ../Basic/Source/gd32e23x_usart.c:1017:30
	ldr	r1, [r0, #8]
	movw	r2, #8192
	orrs	r2, r1
	str	r2, [r0, #8]
	.loc	5 1018 1                @ ../Basic/Source/gd32e23x_usart.c:1018:1
	bx	lr
.Ltmp139:
.Lfunc_end59:
	.size	usart_reception_error_dma_disable, .Lfunc_end59-usart_reception_error_dma_disable
	.cfi_endproc
	.cantunwind
	.fnend
                                        @ -- End function
	.section	.text.usart_reception_error_dma_enable,"ax",%progbits
	.hidden	usart_reception_error_dma_enable @ -- Begin function usart_reception_error_dma_enable
	.globl	usart_reception_error_dma_enable
	.p2align	1
	.type	usart_reception_error_dma_enable,%function
	.code	16                      @ @usart_reception_error_dma_enable
	.thumb_func
usart_reception_error_dma_enable:
.Lfunc_begin60:
	.loc	5 1027 0                @ ../Basic/Source/gd32e23x_usart.c:1027:0
	.fnstart
	.cfi_startproc
@ %bb.0:
	@DEBUG_VALUE: usart_reception_error_dma_enable:usart_periph <- $r0
	@DEBUG_VALUE: usart_reception_error_dma_enable:usart_periph <- $r0
	.loc	5 1029 30 prologue_end  @ ../Basic/Source/gd32e23x_usart.c:1029:30
	ldr	r1, [r0]
	movs	r2, #1
	bics	r1, r2
	str	r1, [r0]
	.loc	5 1031 30               @ ../Basic/Source/gd32e23x_usart.c:1031:30
	ldr	r1, [r0, #8]
	movw	r2, #8192
	bics	r1, r2
	str	r1, [r0, #8]
	.loc	5 1032 1                @ ../Basic/Source/gd32e23x_usart.c:1032:1
	bx	lr
.Ltmp140:
.Lfunc_end60:
	.size	usart_reception_error_dma_enable, .Lfunc_end60-usart_reception_error_dma_enable
	.cfi_endproc
	.cantunwind
	.fnend
                                        @ -- End function
	.section	.text.usart_wakeup_enable,"ax",%progbits
	.hidden	usart_wakeup_enable     @ -- Begin function usart_wakeup_enable
	.globl	usart_wakeup_enable
	.p2align	1
	.type	usart_wakeup_enable,%function
	.code	16                      @ @usart_wakeup_enable
	.thumb_func
usart_wakeup_enable:
.Lfunc_begin61:
	.loc	5 1041 0                @ ../Basic/Source/gd32e23x_usart.c:1041:0
	.fnstart
	.cfi_startproc
@ %bb.0:
	@DEBUG_VALUE: usart_wakeup_enable:usart_periph <- $r0
	@DEBUG_VALUE: usart_wakeup_enable:usart_periph <- $r0
	.loc	5 1042 30 prologue_end  @ ../Basic/Source/gd32e23x_usart.c:1042:30
	ldr	r1, [r0]
	movs	r2, #2
	orrs	r2, r1
	str	r2, [r0]
	.loc	5 1043 1                @ ../Basic/Source/gd32e23x_usart.c:1043:1
	bx	lr
.Ltmp141:
.Lfunc_end61:
	.size	usart_wakeup_enable, .Lfunc_end61-usart_wakeup_enable
	.cfi_endproc
	.cantunwind
	.fnend
                                        @ -- End function
	.section	.text.usart_wakeup_disable,"ax",%progbits
	.hidden	usart_wakeup_disable    @ -- Begin function usart_wakeup_disable
	.globl	usart_wakeup_disable
	.p2align	1
	.type	usart_wakeup_disable,%function
	.code	16                      @ @usart_wakeup_disable
	.thumb_func
usart_wakeup_disable:
.Lfunc_begin62:
	.loc	5 1052 0                @ ../Basic/Source/gd32e23x_usart.c:1052:0
	.fnstart
	.cfi_startproc
@ %bb.0:
	@DEBUG_VALUE: usart_wakeup_disable:usart_periph <- $r0
	@DEBUG_VALUE: usart_wakeup_disable:usart_periph <- $r0
	.loc	5 1053 30 prologue_end  @ ../Basic/Source/gd32e23x_usart.c:1053:30
	ldr	r1, [r0]
	movs	r2, #2
	bics	r1, r2
	str	r1, [r0]
	.loc	5 1054 1                @ ../Basic/Source/gd32e23x_usart.c:1054:1
	bx	lr
.Ltmp142:
.Lfunc_end62:
	.size	usart_wakeup_disable, .Lfunc_end62-usart_wakeup_disable
	.cfi_endproc
	.cantunwind
	.fnend
                                        @ -- End function
	.section	.text.usart_wakeup_mode_config,"ax",%progbits
	.hidden	usart_wakeup_mode_config @ -- Begin function usart_wakeup_mode_config
	.globl	usart_wakeup_mode_config
	.p2align	1
	.type	usart_wakeup_mode_config,%function
	.code	16                      @ @usart_wakeup_mode_config
	.thumb_func
usart_wakeup_mode_config:
.Lfunc_begin63:
	.loc	5 1068 0                @ ../Basic/Source/gd32e23x_usart.c:1068:0
	.fnstart
	.cfi_startproc
@ %bb.0:
	@DEBUG_VALUE: usart_wakeup_mode_config:usart_periph <- $r0
	@DEBUG_VALUE: usart_wakeup_mode_config:usart_periph <- $r0
	@DEBUG_VALUE: usart_wakeup_mode_config:wum <- $r1
	@DEBUG_VALUE: usart_wakeup_mode_config:wum <- $r1
	.loc	5 1070 30 prologue_end  @ ../Basic/Source/gd32e23x_usart.c:1070:30
	ldr	r2, [r0]
	movs	r3, #1
	bics	r2, r3
	str	r2, [r0]
	movs	r2, #3
	lsls	r2, r2, #20
	.loc	5 1072 30               @ ../Basic/Source/gd32e23x_usart.c:1072:30
	ldr	r3, [r0, #8]
	bics	r3, r2
	str	r3, [r0, #8]
	.loc	5 1073 48               @ ../Basic/Source/gd32e23x_usart.c:1073:48
	ands	r1, r2
.Ltmp143:
	.loc	5 1073 30 is_stmt 0     @ ../Basic/Source/gd32e23x_usart.c:1073:30
	ldr	r2, [r0, #8]
	orrs	r2, r1
	str	r2, [r0, #8]
	.loc	5 1074 1 is_stmt 1      @ ../Basic/Source/gd32e23x_usart.c:1074:1
	bx	lr
.Ltmp144:
.Lfunc_end63:
	.size	usart_wakeup_mode_config, .Lfunc_end63-usart_wakeup_mode_config
	.cfi_endproc
	.cantunwind
	.fnend
                                        @ -- End function
	.section	.text.usart_receive_fifo_enable,"ax",%progbits
	.hidden	usart_receive_fifo_enable @ -- Begin function usart_receive_fifo_enable
	.globl	usart_receive_fifo_enable
	.p2align	1
	.type	usart_receive_fifo_enable,%function
	.code	16                      @ @usart_receive_fifo_enable
	.thumb_func
usart_receive_fifo_enable:
.Lfunc_begin64:
	.loc	5 1083 0                @ ../Basic/Source/gd32e23x_usart.c:1083:0
	.fnstart
	.cfi_startproc
@ %bb.0:
	@DEBUG_VALUE: usart_receive_fifo_enable:usart_periph <- $r0
	@DEBUG_VALUE: usart_receive_fifo_enable:usart_periph <- $r0
	movs	r1, #208
.Ltmp145:
	.loc	5 1084 30 prologue_end  @ ../Basic/Source/gd32e23x_usart.c:1084:30
	ldr	r2, [r0, r1]
	movw	r3, #256
	orrs	r3, r2
	str	r3, [r0, r1]
	.loc	5 1085 1                @ ../Basic/Source/gd32e23x_usart.c:1085:1
	bx	lr
.Ltmp146:
.Lfunc_end64:
	.size	usart_receive_fifo_enable, .Lfunc_end64-usart_receive_fifo_enable
	.cfi_endproc
	.cantunwind
	.fnend
                                        @ -- End function
	.section	.text.usart_receive_fifo_disable,"ax",%progbits
	.hidden	usart_receive_fifo_disable @ -- Begin function usart_receive_fifo_disable
	.globl	usart_receive_fifo_disable
	.p2align	1
	.type	usart_receive_fifo_disable,%function
	.code	16                      @ @usart_receive_fifo_disable
	.thumb_func
usart_receive_fifo_disable:
.Lfunc_begin65:
	.loc	5 1094 0                @ ../Basic/Source/gd32e23x_usart.c:1094:0
	.fnstart
	.cfi_startproc
@ %bb.0:
	@DEBUG_VALUE: usart_receive_fifo_disable:usart_periph <- $r0
	@DEBUG_VALUE: usart_receive_fifo_disable:usart_periph <- $r0
	movs	r1, #208
.Ltmp147:
	.loc	5 1095 30 prologue_end  @ ../Basic/Source/gd32e23x_usart.c:1095:30
	ldr	r2, [r0, r1]
	movw	r3, #256
	bics	r2, r3
	str	r2, [r0, r1]
	.loc	5 1096 1                @ ../Basic/Source/gd32e23x_usart.c:1096:1
	bx	lr
.Ltmp148:
.Lfunc_end65:
	.size	usart_receive_fifo_disable, .Lfunc_end65-usart_receive_fifo_disable
	.cfi_endproc
	.cantunwind
	.fnend
                                        @ -- End function
	.section	.text.usart_receive_fifo_counter_number,"ax",%progbits
	.hidden	usart_receive_fifo_counter_number @ -- Begin function usart_receive_fifo_counter_number
	.globl	usart_receive_fifo_counter_number
	.p2align	1
	.type	usart_receive_fifo_counter_number,%function
	.code	16                      @ @usart_receive_fifo_counter_number
	.thumb_func
usart_receive_fifo_counter_number:
.Lfunc_begin66:
	.loc	5 1105 0                @ ../Basic/Source/gd32e23x_usart.c:1105:0
	.fnstart
	.cfi_startproc
@ %bb.0:
	@DEBUG_VALUE: usart_receive_fifo_counter_number:usart_periph <- $r0
	@DEBUG_VALUE: usart_receive_fifo_counter_number:usart_periph <- $r0
	movs	r1, #208
.Ltmp149:
	.loc	5 1106 22 prologue_end  @ ../Basic/Source/gd32e23x_usart.c:1106:22
	ldr	r0, [r0, r1]
.Ltmp150:
	.loc	5 1106 5 is_stmt 0      @ ../Basic/Source/gd32e23x_usart.c:1106:5
	lsls	r0, r0, #17
	lsrs	r0, r0, #29
	bx	lr
.Ltmp151:
.Lfunc_end66:
	.size	usart_receive_fifo_counter_number, .Lfunc_end66-usart_receive_fifo_counter_number
	.cfi_endproc
	.cantunwind
	.fnend
                                        @ -- End function
	.section	.text.usart_flag_get,"ax",%progbits
	.hidden	usart_flag_get          @ -- Begin function usart_flag_get
	.globl	usart_flag_get
	.p2align	1
	.type	usart_flag_get,%function
	.code	16                      @ @usart_flag_get
	.thumb_func
usart_flag_get:
.Lfunc_begin67:
	.loc	5 1144 0 is_stmt 1      @ ../Basic/Source/gd32e23x_usart.c:1144:0
	.fnstart
	.cfi_startproc
@ %bb.0:
	@DEBUG_VALUE: usart_flag_get:usart_periph <- $r0
	@DEBUG_VALUE: usart_flag_get:usart_periph <- $r0
	@DEBUG_VALUE: usart_flag_get:flag <- $r1
	@DEBUG_VALUE: usart_flag_get:flag <- $r1
	movs	r2, #31
.Ltmp152:
	.loc	5 1145 54 prologue_end  @ ../Basic/Source/gd32e23x_usart.c:1145:54
	ands	r2, r1
	.loc	5 1145 18 is_stmt 0     @ ../Basic/Source/gd32e23x_usart.c:1145:18
	lsrs	r1, r1, #6
.Ltmp153:
	ldr	r1, [r1, r0]
	.loc	5 1145 14               @ ../Basic/Source/gd32e23x_usart.c:1145:14
	lsrs	r1, r2
	movs	r0, #1
.Ltmp154:
	ands	r0, r1
.Ltmp155:
	.loc	5 1150 1 is_stmt 1      @ ../Basic/Source/gd32e23x_usart.c:1150:1
	bx	lr
.Ltmp156:
.Lfunc_end67:
	.size	usart_flag_get, .Lfunc_end67-usart_flag_get
	.cfi_endproc
	.cantunwind
	.fnend
                                        @ -- End function
	.section	.text.usart_flag_clear,"ax",%progbits
	.hidden	usart_flag_clear        @ -- Begin function usart_flag_clear
	.globl	usart_flag_clear
	.p2align	1
	.type	usart_flag_clear,%function
	.code	16                      @ @usart_flag_clear
	.thumb_func
usart_flag_clear:
.Lfunc_begin68:
	.loc	5 1174 0                @ ../Basic/Source/gd32e23x_usart.c:1174:0
	.fnstart
	.cfi_startproc
@ %bb.0:
	@DEBUG_VALUE: usart_flag_clear:usart_periph <- $r0
	@DEBUG_VALUE: usart_flag_clear:usart_periph <- $r0
	@DEBUG_VALUE: usart_flag_clear:flag <- $r1
	@DEBUG_VALUE: usart_flag_clear:flag <- $r1
	movs	r2, #31
.Ltmp157:
	.loc	5 1175 33 prologue_end  @ ../Basic/Source/gd32e23x_usart.c:1175:33
	ands	r2, r1
	movs	r1, #1
.Ltmp158:
	lsls	r1, r2
	.loc	5 1175 30 is_stmt 0     @ ../Basic/Source/gd32e23x_usart.c:1175:30
	ldr	r2, [r0, #32]
	orrs	r2, r1
	str	r2, [r0, #32]
	.loc	5 1176 1 is_stmt 1      @ ../Basic/Source/gd32e23x_usart.c:1176:1
	bx	lr
.Ltmp159:
.Lfunc_end68:
	.size	usart_flag_clear, .Lfunc_end68-usart_flag_clear
	.cfi_endproc
	.cantunwind
	.fnend
                                        @ -- End function
	.section	.text.usart_interrupt_enable,"ax",%progbits
	.hidden	usart_interrupt_enable  @ -- Begin function usart_interrupt_enable
	.globl	usart_interrupt_enable
	.p2align	1
	.type	usart_interrupt_enable,%function
	.code	16                      @ @usart_interrupt_enable
	.thumb_func
usart_interrupt_enable:
.Lfunc_begin69:
	.loc	5 1201 0                @ ../Basic/Source/gd32e23x_usart.c:1201:0
	.fnstart
	.cfi_startproc
@ %bb.0:
	@DEBUG_VALUE: usart_interrupt_enable:usart_periph <- $r0
	@DEBUG_VALUE: usart_interrupt_enable:usart_periph <- $r0
	@DEBUG_VALUE: usart_interrupt_enable:inttype <- $r1
	@DEBUG_VALUE: usart_interrupt_enable:inttype <- $r1
	movs	r2, #31
.Ltmp160:
	.loc	5 1202 45 prologue_end  @ ../Basic/Source/gd32e23x_usart.c:1202:45
	ands	r2, r1
	movs	r3, #1
	lsls	r3, r2
	.loc	5 1202 5 is_stmt 0      @ ../Basic/Source/gd32e23x_usart.c:1202:5
	lsrs	r1, r1, #6
.Ltmp161:
	.loc	5 1202 42               @ ../Basic/Source/gd32e23x_usart.c:1202:42
	ldr	r2, [r1, r0]
	orrs	r2, r3
	str	r2, [r1, r0]
	.loc	5 1203 1 is_stmt 1      @ ../Basic/Source/gd32e23x_usart.c:1203:1
	bx	lr
.Ltmp162:
.Lfunc_end69:
	.size	usart_interrupt_enable, .Lfunc_end69-usart_interrupt_enable
	.cfi_endproc
	.cantunwind
	.fnend
                                        @ -- End function
	.section	.text.usart_interrupt_disable,"ax",%progbits
	.hidden	usart_interrupt_disable @ -- Begin function usart_interrupt_disable
	.globl	usart_interrupt_disable
	.p2align	1
	.type	usart_interrupt_disable,%function
	.code	16                      @ @usart_interrupt_disable
	.thumb_func
usart_interrupt_disable:
.Lfunc_begin70:
	.loc	5 1228 0                @ ../Basic/Source/gd32e23x_usart.c:1228:0
	.fnstart
	.cfi_startproc
@ %bb.0:
	@DEBUG_VALUE: usart_interrupt_disable:usart_periph <- $r0
	@DEBUG_VALUE: usart_interrupt_disable:usart_periph <- $r0
	@DEBUG_VALUE: usart_interrupt_disable:inttype <- $r1
	@DEBUG_VALUE: usart_interrupt_disable:inttype <- $r1
	movs	r2, #31
.Ltmp163:
	.loc	5 1229 46 prologue_end  @ ../Basic/Source/gd32e23x_usart.c:1229:46
	ands	r2, r1
	movs	r3, #1
	lsls	r3, r2
	.loc	5 1229 5 is_stmt 0      @ ../Basic/Source/gd32e23x_usart.c:1229:5
	lsrs	r1, r1, #6
.Ltmp164:
	.loc	5 1229 42               @ ../Basic/Source/gd32e23x_usart.c:1229:42
	ldr	r2, [r1, r0]
	bics	r2, r3
	str	r2, [r1, r0]
	.loc	5 1230 1 is_stmt 1      @ ../Basic/Source/gd32e23x_usart.c:1230:1
	bx	lr
.Ltmp165:
.Lfunc_end70:
	.size	usart_interrupt_disable, .Lfunc_end70-usart_interrupt_disable
	.cfi_endproc
	.cantunwind
	.fnend
                                        @ -- End function
	.section	.text.usart_command_enable,"ax",%progbits
	.hidden	usart_command_enable    @ -- Begin function usart_command_enable
	.globl	usart_command_enable
	.p2align	1
	.type	usart_command_enable,%function
	.code	16                      @ @usart_command_enable
	.thumb_func
usart_command_enable:
.Lfunc_begin71:
	.loc	5 1246 0                @ ../Basic/Source/gd32e23x_usart.c:1246:0
	.fnstart
	.cfi_startproc
@ %bb.0:
	@DEBUG_VALUE: usart_command_enable:usart_periph <- $r0
	@DEBUG_VALUE: usart_command_enable:usart_periph <- $r0
	@DEBUG_VALUE: usart_command_enable:cmdtype <- $r1
	@DEBUG_VALUE: usart_command_enable:cmdtype <- $r1
	.loc	5 1247 29 prologue_end  @ ../Basic/Source/gd32e23x_usart.c:1247:29
	ldr	r2, [r0, #24]
	orrs	r2, r1
	str	r2, [r0, #24]
	.loc	5 1248 1                @ ../Basic/Source/gd32e23x_usart.c:1248:1
	bx	lr
.Ltmp166:
.Lfunc_end71:
	.size	usart_command_enable, .Lfunc_end71-usart_command_enable
	.cfi_endproc
	.cantunwind
	.fnend
                                        @ -- End function
	.section	.text.usart_interrupt_flag_get,"ax",%progbits
	.hidden	usart_interrupt_flag_get @ -- Begin function usart_interrupt_flag_get
	.globl	usart_interrupt_flag_get
	.p2align	1
	.type	usart_interrupt_flag_get,%function
	.code	16                      @ @usart_interrupt_flag_get
	.thumb_func
usart_interrupt_flag_get:
.Lfunc_begin72:
	.loc	5 1275 0                @ ../Basic/Source/gd32e23x_usart.c:1275:0
	.fnstart
	.cfi_startproc
@ %bb.0:
	@DEBUG_VALUE: usart_interrupt_flag_get:usart_periph <- $r0
	@DEBUG_VALUE: usart_interrupt_flag_get:usart_periph <- $r0
	@DEBUG_VALUE: usart_interrupt_flag_get:int_flag <- $r1
	@DEBUG_VALUE: usart_interrupt_flag_get:int_flag <- $r1
	@DEBUG_VALUE: usart_interrupt_flag_get:intenable <- 0
	@DEBUG_VALUE: usart_interrupt_flag_get:flagstatus <- 0
	movs	r2, #31
.Ltmp167:
	.loc	5 1278 58 prologue_end  @ ../Basic/Source/gd32e23x_usart.c:1278:58
	ands	r2, r1
	.loc	5 1278 18 is_stmt 0     @ ../Basic/Source/gd32e23x_usart.c:1278:18
	lsls	r3, r1, #16
	lsrs	r3, r3, #22
	ldr	r3, [r3, r0]
.Ltmp168:
	.loc	5 1282 22 is_stmt 1     @ ../Basic/Source/gd32e23x_usart.c:1282:22
	lsrs	r3, r2
.Ltmp169:
	@DEBUG_VALUE: usart_interrupt_flag_get:intenable <- undef
	.loc	5 1280 19               @ ../Basic/Source/gd32e23x_usart.c:1280:19
	lsrs	r2, r1, #22
	ldr	r2, [r2, r0]
	.loc	5 1280 60 is_stmt 0     @ ../Basic/Source/gd32e23x_usart.c:1280:60
	lsls	r0, r1, #11
.Ltmp170:
	lsrs	r0, r0, #27
.Ltmp171:
	@DEBUG_VALUE: usart_interrupt_flag_get:flagstatus <- undef
	.loc	5 1282 8 is_stmt 1      @ ../Basic/Source/gd32e23x_usart.c:1282:8
	lsrs	r2, r0
	.loc	5 1282 22 is_stmt 0     @ ../Basic/Source/gd32e23x_usart.c:1282:22
	ands	r2, r3
	movs	r0, #1
	.loc	5 1282 8                @ ../Basic/Source/gd32e23x_usart.c:1282:8
	ands	r0, r2
.Ltmp172:
	.loc	5 1287 1 is_stmt 1      @ ../Basic/Source/gd32e23x_usart.c:1287:1
	bx	lr
.Ltmp173:
.Lfunc_end72:
	.size	usart_interrupt_flag_get, .Lfunc_end72-usart_interrupt_flag_get
	.cfi_endproc
	.cantunwind
	.fnend
                                        @ -- End function
	.section	.text.usart_interrupt_flag_clear,"ax",%progbits
	.hidden	usart_interrupt_flag_clear @ -- Begin function usart_interrupt_flag_clear
	.globl	usart_interrupt_flag_clear
	.p2align	2
	.type	usart_interrupt_flag_clear,%function
	.code	16                      @ @usart_interrupt_flag_clear
	.thumb_func
usart_interrupt_flag_clear:
.Lfunc_begin73:
	.loc	5 1312 0                @ ../Basic/Source/gd32e23x_usart.c:1312:0
	.fnstart
	.cfi_startproc
@ %bb.0:
	@DEBUG_VALUE: usart_interrupt_flag_clear:usart_periph <- $r0
	@DEBUG_VALUE: usart_interrupt_flag_clear:usart_periph <- $r0
	@DEBUG_VALUE: usart_interrupt_flag_clear:flag <- $r1
	@DEBUG_VALUE: usart_interrupt_flag_clear:flag <- $r1
	ldr	r2, __arm_cp.73_0
.Ltmp174:
	.loc	5 1313 8 prologue_end   @ ../Basic/Source/gd32e23x_usart.c:1313:8
	cmp	r1, r2
	bne	.LBB73_2
.Ltmp175:
@ %bb.1:
	@DEBUG_VALUE: usart_interrupt_flag_clear:flag <- $r1
	@DEBUG_VALUE: usart_interrupt_flag_clear:usart_periph <- $r0
	.loc	5 0 8 is_stmt 0         @ ../Basic/Source/gd32e23x_usart.c:0:8
	movs	r1, #208
.Ltmp176:
	.loc	5 1314 34 is_stmt 1     @ ../Basic/Source/gd32e23x_usart.c:1314:34
	ldr	r2, [r0, r1]
	movw	r3, #32768
	bics	r2, r3
	str	r2, [r0, r1]
.Ltmp177:
	.loc	5 1318 1                @ ../Basic/Source/gd32e23x_usart.c:1318:1
	bx	lr
.Ltmp178:
.LBB73_2:
	@DEBUG_VALUE: usart_interrupt_flag_clear:flag <- $r1
	@DEBUG_VALUE: usart_interrupt_flag_clear:usart_periph <- $r0
	.loc	5 1316 37               @ ../Basic/Source/gd32e23x_usart.c:1316:37
	lsls	r1, r1, #11
.Ltmp179:
	lsrs	r1, r1, #27
	movs	r2, #1
	lsls	r2, r1
	.loc	5 1316 34 is_stmt 0     @ ../Basic/Source/gd32e23x_usart.c:1316:34
	ldr	r1, [r0, #32]
	orrs	r1, r2
	str	r1, [r0, #32]
.Ltmp180:
	.loc	5 1318 1 is_stmt 1      @ ../Basic/Source/gd32e23x_usart.c:1318:1
	bx	lr
.Ltmp181:
	.p2align	2
@ %bb.3:
	.loc	5 0 1 is_stmt 0         @ ../Basic/Source/gd32e23x_usart.c:0:1
__arm_cp.73_0:
	.long	873411593               @ 0x340f3409
.Lcpi_end9:
	.size	__arm_cp.73_0, .Lcpi_end9-__arm_cp.73_0
.Lfunc_end73:
	.size	usart_interrupt_flag_clear, .Lfunc_end73-usart_interrupt_flag_clear
	.cfi_endproc
	.cantunwind
	.fnend
                                        @ -- End function
	.section	".note.GNU-stack","",%progbits
	.eabi_attribute	30, 4	@ Tag_ABI_optimization_goals
	.ARM_attribute	16, 1	@ Tag_AV_eba